---
triple:          'arm64-apple-darwin'
binary-path:     Projekt_JPO
relocations:
  - { offsetInCU: 0x4F, offset: 0x4F, size: 0x8, addend: 0x0, symName: __ZN5boost4asio5errorL15system_categoryE, symObjAddr: 0x3EA298, symBinAddr: 0x10009D708, symSize: 0x0 }
  - { offsetInCU: 0x69, offset: 0x69, size: 0x8, addend: 0x0, symName: __ZN5boost4asio5errorL14netdb_categoryE, symObjAddr: 0x3EA2A0, symBinAddr: 0x10009D710, symSize: 0x0 }
  - { offsetInCU: 0x83, offset: 0x83, size: 0x8, addend: 0x0, symName: __ZN5boost4asio5errorL17addrinfo_categoryE, symObjAddr: 0x3EA2A8, symBinAddr: 0x10009D718, symSize: 0x0 }
  - { offsetInCU: 0x9D, offset: 0x9D, size: 0x8, addend: 0x0, symName: __ZN5boost4asio5errorL13misc_categoryE, symObjAddr: 0x3EA2B0, symBinAddr: 0x10009D720, symSize: 0x0 }
  - { offsetInCU: 0xAA, offset: 0xAA, size: 0x8, addend: 0x0, symName: __ZN5boost4asio5error18get_netdb_categoryEv, symObjAddr: 0x14, symBinAddr: 0x10000300C, symSize: 0xC }
  - { offsetInCU: 0xD3, offset: 0xD3, size: 0x8, addend: 0x0, symName: __ZZN5boost4asio5error18get_netdb_categoryEvE8instance, symObjAddr: 0x7F848, symBinAddr: 0x100098088, symSize: 0x0 }
  - { offsetInCU: 0x1E5, offset: 0x1E5, size: 0x8, addend: 0x0, symName: __ZN5boost4asio5error21get_addrinfo_categoryEv, symObjAddr: 0x20, symBinAddr: 0x100003018, symSize: 0xC }
  - { offsetInCU: 0x20E, offset: 0x20E, size: 0x8, addend: 0x0, symName: __ZZN5boost4asio5error21get_addrinfo_categoryEvE8instance, symObjAddr: 0x7F880, symBinAddr: 0x1000980C0, symSize: 0x0 }
  - { offsetInCU: 0x218, offset: 0x218, size: 0x8, addend: 0x0, symName: __ZN5boost4asio5error17get_misc_categoryEv, symObjAddr: 0x2C, symBinAddr: 0x100003024, symSize: 0xC }
  - { offsetInCU: 0x241, offset: 0x241, size: 0x8, addend: 0x0, symName: __ZZN5boost4asio5error17get_misc_categoryEvE8instance, symObjAddr: 0x7F8B8, symBinAddr: 0x1000980F8, symSize: 0x0 }
  - { offsetInCU: 0x387, offset: 0x387, size: 0x8, addend: 0x0, symName: __ZN5boost4asio5error19get_system_categoryEv, symObjAddr: 0x0, symBinAddr: 0x100002FF8, symSize: 0x14 }
  - { offsetInCU: 0x3A5, offset: 0x3A5, size: 0x8, addend: 0x0, symName: __ZN5boost4asio5error15make_error_codeENS1_12basic_errorsE, symObjAddr: 0x18678, symBinAddr: 0x10001B670, symSize: 0x3C }
  - { offsetInCU: 0x3D3, offset: 0x3D3, size: 0x8, addend: 0x0, symName: __ZN5boost4asio5error5clearERNS_6system10error_codeE, symObjAddr: 0x18AFC, symBinAddr: 0x10001BAF4, symSize: 0x38 }
  - { offsetInCU: 0x3FB, offset: 0x3FB, size: 0x8, addend: 0x0, symName: __ZN5boost4asio5error15make_error_codeENS1_12netdb_errorsE, symObjAddr: 0x19DD4, symBinAddr: 0x10001CDCC, symSize: 0x3C }
  - { offsetInCU: 0x429, offset: 0x429, size: 0x8, addend: 0x0, symName: __ZN5boost4asio5error15make_error_codeENS1_15addrinfo_errorsE, symObjAddr: 0x19E70, symBinAddr: 0x10001CE68, symSize: 0x3C }
  - { offsetInCU: 0x457, offset: 0x457, size: 0x8, addend: 0x0, symName: __ZN5boost4asio5error15make_error_codeENS1_11misc_errorsE, symObjAddr: 0x1ECEC, symBinAddr: 0x100021CE4, symSize: 0x3C }
  - { offsetInCU: 0x491, offset: 0x491, size: 0x8, addend: 0x0, symName: __ZN5boost4asio6detail10call_stackINS1_14thread_contextENS1_16thread_info_baseEE4top_E, symObjAddr: 0x7F7C0, symBinAddr: 0x100098000, symSize: 0x0 }
  - { offsetInCU: 0x7E4, offset: 0x7E4, size: 0x8, addend: 0x0, symName: __ZN5boost4asio6detail30execution_context_service_baseINS1_9schedulerEE2idE, symObjAddr: 0x7F7D0, symBinAddr: 0x100098010, symSize: 0x0 }
  - { offsetInCU: 0x1829, offset: 0x1829, size: 0x8, addend: 0x0, symName: __ZN5boost4asio6detail30execution_context_service_baseINS1_14kqueue_reactorEE2idE, symObjAddr: 0x7F7E0, symBinAddr: 0x100098020, symSize: 0x0 }
  - { offsetInCU: 0x2190, offset: 0x2190, size: 0x8, addend: 0x0, symName: __ZN5boost4asio6detail30execution_context_service_baseINS1_16resolver_serviceINS0_2ip3tcpEEEE2idE, symObjAddr: 0x7F7F0, symBinAddr: 0x100098030, symSize: 0x0 }
  - { offsetInCU: 0x26CC, offset: 0x26CC, size: 0x8, addend: 0x0, symName: __ZN5boost4asio6detail10socket_ops5closeEiRhbRNS_6system10error_codeE, symObjAddr: 0x18320, symBinAddr: 0x10001B318, symSize: 0x1CC }
  - { offsetInCU: 0x278A, offset: 0x278A, size: 0x8, addend: 0x0, symName: __ZN5boost4asio6detail10socket_ops10setsockoptEiRhiiPKvmRNS_6system10error_codeE, symObjAddr: 0x186B4, symBinAddr: 0x10001B6AC, symSize: 0x250 }
  - { offsetInCU: 0x282A, offset: 0x282A, size: 0x8, addend: 0x0, symName: __ZN5boost4asio6detail10socket_ops14get_last_errorERNS_6system10error_codeEb, symObjAddr: 0x18904, symBinAddr: 0x10001B8FC, symSize: 0x78 }
  - { offsetInCU: 0x2863, offset: 0x2863, size: 0x8, addend: 0x0, symName: __ZN5boost4asio6detail10socket_ops15call_setsockoptIjEEiM6msghdrT_iiiPKvm, symObjAddr: 0x18B34, symBinAddr: 0x10001BB2C, symSize: 0x4C }
  - { offsetInCU: 0x28E8, offset: 0x28E8, size: 0x8, addend: 0x0, symName: __ZN5boost4asio6detail10socket_ops11getaddrinfoEPKcS4_RK8addrinfoPPS5_RNS_6system10error_codeE, symObjAddr: 0x19448, symBinAddr: 0x10001C440, symSize: 0x250 }
  - { offsetInCU: 0x29EA, offset: 0x29EA, size: 0x8, addend: 0x0, symName: __ZN5boost4asio6detail10socket_ops16clear_last_errorEv, symObjAddr: 0x19A90, symBinAddr: 0x10001CA88, symSize: 0x18 }
  - { offsetInCU: 0x2A04, offset: 0x2A04, size: 0x8, addend: 0x0, symName: __ZN5boost4asio6detail10socket_ops21host_to_network_shortEt, symObjAddr: 0x19AD0, symBinAddr: 0x10001CAC8, symSize: 0x38 }
  - { offsetInCU: 0x2A34, offset: 0x2A34, size: 0x8, addend: 0x0, symName: __ZN5boost4asio6detail10socket_ops24translate_addrinfo_errorEi, symObjAddr: 0x19B08, symBinAddr: 0x10001CB00, symSize: 0x124 }
  - { offsetInCU: 0x2A64, offset: 0x2A64, size: 0x8, addend: 0x0, symName: __ZN5boost4asio6detail10socket_ops12freeaddrinfoEP8addrinfo, symObjAddr: 0x1CDDC, symBinAddr: 0x10001FDD4, symSize: 0x24 }
  - { offsetInCU: 0x2A90, offset: 0x2A90, size: 0x8, addend: 0x0, symName: __ZN5boost4asio6detail10socket_ops6socketEiiiRNS_6system10error_codeE, symObjAddr: 0x1DFF8, symBinAddr: 0x100020FF0, symSize: 0xE8 }
  - { offsetInCU: 0x2B20, offset: 0x2B20, size: 0x8, addend: 0x0, symName: __ZN5boost4asio6detail10socket_ops12sync_connectEiPKvmRNS_6system10error_codeE, symObjAddr: 0x1E654, symBinAddr: 0x10002164C, symSize: 0x14C }
  - { offsetInCU: 0x2B9E, offset: 0x2B9E, size: 0x8, addend: 0x0, symName: __ZN5boost4asio6detail10socket_ops7connectEiPKvmRNS_6system10error_codeE, symObjAddr: 0x1E7E8, symBinAddr: 0x1000217E0, symSize: 0x94 }
  - { offsetInCU: 0x2C0E, offset: 0x2C0E, size: 0x8, addend: 0x0, symName: __ZN5boost4asio6detail10socket_ops12poll_connectEiiRNS_6system10error_codeE, symObjAddr: 0x1E8B0, symBinAddr: 0x1000218A8, symSize: 0xA0 }
  - { offsetInCU: 0x2C7E, offset: 0x2C7E, size: 0x8, addend: 0x0, symName: __ZN5boost4asio6detail10socket_ops10getsockoptEihiiPvPmRNS_6system10error_codeE, symObjAddr: 0x1E950, symBinAddr: 0x100021948, symSize: 0x17C }
  - { offsetInCU: 0x2D1E, offset: 0x2D1E, size: 0x8, addend: 0x0, symName: __ZN5boost4asio6detail10socket_ops12call_connectIjEEiM6msghdrT_iPKvm, symObjAddr: 0x1EACC, symBinAddr: 0x100021AC4, symSize: 0x3C }
  - { offsetInCU: 0x2D83, offset: 0x2D83, size: 0x8, addend: 0x0, symName: __ZN5boost4asio6detail10socket_ops15call_getsockoptIjEEiM6msghdrT_iiiPvPm, symObjAddr: 0x1EB08, symBinAddr: 0x100021B00, symSize: 0x68 }
  - { offsetInCU: 0x2E28, offset: 0x2E28, size: 0x8, addend: 0x0, symName: __ZN5boost4asio6detail10socket_ops9sync_sendEihPK5iovecmibRNS_6system10error_codeE, symObjAddr: 0x31DD8, symBinAddr: 0x100034DD0, symSize: 0x1AC }
  - { offsetInCU: 0x2ED6, offset: 0x2ED6, size: 0x8, addend: 0x0, symName: __ZN5boost4asio6detail10socket_ops4sendEiPK5iovecmiRNS_6system10error_codeE, symObjAddr: 0x32830, symBinAddr: 0x100035828, symSize: 0x80 }
  - { offsetInCU: 0x2F66, offset: 0x2F66, size: 0x8, addend: 0x0, symName: __ZN5boost4asio6detail10socket_ops10poll_writeEihiRNS_6system10error_codeE, symObjAddr: 0x328B0, symBinAddr: 0x1000358A8, symSize: 0x114 }
  - { offsetInCU: 0x2FF6, offset: 0x2FF6, size: 0x8, addend: 0x0, symName: __ZN5boost4asio6detail10socket_ops10sync_recv1EihPvmiRNS_6system10error_codeE, symObjAddr: 0x5A2F0, symBinAddr: 0x10005D2E8, symSize: 0x1E4 }
  - { offsetInCU: 0x3094, offset: 0x3094, size: 0x8, addend: 0x0, symName: __ZN5boost4asio6detail10socket_ops5recv1EiPvmiRNS_6system10error_codeE, symObjAddr: 0x5A4F8, symBinAddr: 0x10005D4F0, symSize: 0x60 }
  - { offsetInCU: 0x3114, offset: 0x3114, size: 0x8, addend: 0x0, symName: __ZN5boost4asio6detail10socket_ops9poll_readEihiRNS_6system10error_codeE, symObjAddr: 0x5A558, symBinAddr: 0x10005D550, symSize: 0x114 }
  - { offsetInCU: 0x31A4, offset: 0x31A4, size: 0x8, addend: 0x0, symName: __ZN5boost4asio6detail10socket_ops8shutdownEiiRNS_6system10error_codeE, symObjAddr: 0x78244, symBinAddr: 0x10007B23C, symSize: 0x88 }
  - { offsetInCU: 0x32B7, offset: 0x32B7, size: 0x8, addend: 0x0, symName: __ZN5boost4asio6detail30execution_context_service_baseINS1_23reactive_socket_serviceINS0_2ip3tcpEEEE2idE, symObjAddr: 0x7F800, symBinAddr: 0x100098040, symSize: 0x0 }
  - { offsetInCU: 0x43C2, offset: 0x43C2, size: 0x8, addend: 0x0, symName: __ZN5boost4asio6detail11throw_errorERKNS_6system10error_codeEPKcRKNS_15source_locationE, symObjAddr: 0x2644, symBinAddr: 0x10000563C, symSize: 0x48 }
  - { offsetInCU: 0x440A, offset: 0x440A, size: 0x8, addend: 0x0, symName: __ZN5boost4asio6detail14do_throw_errorERKNS_6system10error_codeEPKcRKNS_15source_locationE, symObjAddr: 0x2830, symBinAddr: 0x100005828, symSize: 0x60 }
  - { offsetInCU: 0x4461, offset: 0x4461, size: 0x8, addend: 0x0, symName: __ZN5boost4asio6detail11throw_errorERKNS_6system10error_codeERKNS_15source_locationE, symObjAddr: 0x62A8, symBinAddr: 0x1000092A0, symSize: 0x40 }
  - { offsetInCU: 0x449A, offset: 0x449A, size: 0x8, addend: 0x0, symName: __ZN5boost4asio6detail14do_throw_errorERKNS_6system10error_codeERKNS_15source_locationE, symObjAddr: 0x721C, symBinAddr: 0x10000A214, symSize: 0x58 }
  - { offsetInCU: 0x4728, offset: 0x4728, size: 0x8, addend: 0x0, symName: __ZN5boost4asio6detail9incrementERNSt3__16atomicIlEEl, symObjAddr: 0xA5E4, symBinAddr: 0x10000D5DC, symSize: 0x2C }
  - { offsetInCU: 0x47CC, offset: 0x47CC, size: 0x8, addend: 0x0, symName: __ZN5boost4asio6detail20posix_tss_ptr_createERm, symObjAddr: 0xE014, symBinAddr: 0x10001100C, symSize: 0x84 }
  - { offsetInCU: 0x4B03, offset: 0x4B03, size: 0x8, addend: 0x0, symName: __ZN5boost4asio6detail22call_connect_conditionINS1_25default_connect_conditionENS0_2ip23basic_resolver_iteratorINS4_3tcpEEEEET0_RT_RKNS_6system10error_codeES8_S8_PNSt3__19enable_ifIXntsr27is_legacy_connect_conditionIS9_S8_EE5valueEvE4typeE, symObjAddr: 0x1D504, symBinAddr: 0x1000204FC, symSize: 0xB4 }
  - { offsetInCU: 0x568A, offset: 0x568A, size: 0x8, addend: 0x0, symName: __ZN5boost4asio6detail11buffer_sizeINS_5beast14buffers_suffixINS3_16buffers_cat_viewIJNS3_6detail11buffers_refINS5_IJNS0_12const_bufferES8_S8_NS3_4http12basic_fieldsINSt3__19allocatorIcEEE6writer11field_rangeENS9_10chunk_crlfEEEEEES8_EEEE14const_iteratorEEEmNS1_16multiple_buffersET_SO_, symObjAddr: 0x48840, symBinAddr: 0x10004B838, symSize: 0x100 }
  - { offsetInCU: 0x571B, offset: 0x571B, size: 0x8, addend: 0x0, symName: __ZN5boost4asio6detail11buffer_sizeINS_5beast14buffers_suffixINS3_6detail11buffers_refINS3_16buffers_cat_viewIJNS0_12const_bufferES8_S8_NS3_4http12basic_fieldsINSt3__19allocatorIcEEE6writer11field_rangeENS9_10chunk_crlfEEEEEEE14const_iteratorEEEmNS1_16multiple_buffersET_SN_, symObjAddr: 0x48A88, symBinAddr: 0x10004BA80, symSize: 0x100 }
  - { offsetInCU: 0x57AA, offset: 0x57AA, size: 0x8, addend: 0x0, symName: __ZN5boost4asio6detail11buffer_sizeINS_5beast14buffers_suffixINS0_12const_bufferEE14const_iteratorEEEmNS1_16multiple_buffersET_S9_, symObjAddr: 0x48CB0, symBinAddr: 0x10004BCA8, symSize: 0x98 }
  - { offsetInCU: 0x5836, offset: 0x5836, size: 0x8, addend: 0x0, symName: __ZN5boost4asio6detail11buffer_sizeINS_5beast14buffers_suffixINS3_16buffers_cat_viewIJNS3_6detail11buffers_refINS5_IJNS0_12const_bufferES8_S8_NS3_4http12basic_fieldsINSt3__19allocatorIcEEE6writer11field_rangeENS9_10chunk_crlfEEEEEENS9_6detail10chunk_sizeES8_SH_S8_SH_EEEE14const_iteratorEEEmNS1_16multiple_buffersET_SQ_, symObjAddr: 0x48E3C, symBinAddr: 0x10004BE34, symSize: 0x100 }
  - { offsetInCU: 0x58C7, offset: 0x58C7, size: 0x8, addend: 0x0, symName: __ZN5boost4asio6detail11buffer_sizeINS_5beast14buffers_suffixINS3_16buffers_cat_viewIJNS3_4http6detail10chunk_sizeENS0_12const_bufferENS6_10chunk_crlfES9_SA_EEEE14const_iteratorEEEmNS1_16multiple_buffersET_SF_, symObjAddr: 0x49084, symBinAddr: 0x10004C07C, symSize: 0x100 }
  - { offsetInCU: 0x5956, offset: 0x5956, size: 0x8, addend: 0x0, symName: __ZN5boost4asio6detail11buffer_sizeINS_5beast14buffers_suffixINS3_16buffers_cat_viewIJNS3_4http6detail10chunk_sizeENS0_12const_bufferENS6_10chunk_crlfES9_SA_S9_S9_SA_EEEE14const_iteratorEEEmNS1_16multiple_buffersET_SF_, symObjAddr: 0x492CC, symBinAddr: 0x10004C2C4, symSize: 0x100 }
  - { offsetInCU: 0x59E5, offset: 0x59E5, size: 0x8, addend: 0x0, symName: __ZN5boost4asio6detail11buffer_sizeINS_5beast14buffers_suffixINS3_16buffers_cat_viewIJNS3_6detail11buffers_refINS5_IJNS0_12const_bufferES8_S8_NS3_4http12basic_fieldsINSt3__19allocatorIcEEE6writer11field_rangeENS9_10chunk_crlfEEEEEENS9_6detail10chunk_sizeES8_SH_S8_SH_S8_S8_SH_EEEE14const_iteratorEEEmNS1_16multiple_buffersET_SQ_, symObjAddr: 0x49514, symBinAddr: 0x10004C50C, symSize: 0x100 }
  - { offsetInCU: 0x5A76, offset: 0x5A76, size: 0x8, addend: 0x0, symName: __ZN5boost4asio6detail11buffer_sizeINS_5beast14buffers_suffixINS3_16buffers_cat_viewIJNS0_12const_bufferES6_NS3_4http10chunk_crlfEEEEE14const_iteratorEEEmNS1_16multiple_buffersET_SD_, symObjAddr: 0x4975C, symBinAddr: 0x10004C754, symSize: 0x100 }
  - { offsetInCU: 0x5B05, offset: 0x5B05, size: 0x8, addend: 0x0, symName: __ZN5boost4asio6detail11buffer_sizeIPKNS0_12const_bufferEEEmNS1_10one_bufferET_S7_, symObjAddr: 0x4E7A8, symBinAddr: 0x1000517A0, symSize: 0x34 }
  - { offsetInCU: 0x5B52, offset: 0x5B52, size: 0x8, addend: 0x0, symName: __ZN5boost4asio6detail11buffer_sizeINS_5beast18basic_multi_bufferINSt3__19allocatorIcEEE8subrangeILb1EE14const_iteratorEEEmNS1_16multiple_buffersET_SD_, symObjAddr: 0x51CD0, symBinAddr: 0x100054CC8, symSize: 0xAC }
  - { offsetInCU: 0x5BE0, offset: 0x5BE0, size: 0x8, addend: 0x0, symName: __ZN5boost4asio6detail11buffer_copyINS_5beast18basic_multi_bufferINSt3__19allocatorIcEEE8subrangeILb1EE14const_iteratorEPKNS0_12const_bufferEEEmNS1_16multiple_buffersENS1_10one_bufferET_SH_T0_SI_m, symObjAddr: 0x52690, symBinAddr: 0x100055688, symSize: 0x114 }
  - { offsetInCU: 0x5CD9, offset: 0x5CD9, size: 0x8, addend: 0x0, symName: __ZN5boost4asio6detail13buffer_copy_1ERKNS0_14mutable_bufferERKNS0_12const_bufferE, symObjAddr: 0x52820, symBinAddr: 0x100055818, symSize: 0xB0 }
  - { offsetInCU: 0x5D4B, offset: 0x5D4B, size: 0x8, addend: 0x0, symName: __ZN5boost4asio6detail11buffer_copyIPKNS0_14mutable_bufferES5_EEmNS1_10one_bufferES6_T_S7_T0_S8_, symObjAddr: 0x596E8, symBinAddr: 0x10005C6E0, symSize: 0x4C }
  - { offsetInCU: 0x5EE6, offset: 0x5EE6, size: 0x8, addend: 0x0, symName: __ZN5boost4asio6detail11buffer_sizeINS_5beast14buffers_suffixINS3_16buffers_cat_viewIJNS3_6detail11buffers_refINS5_IJNS0_12const_bufferES8_S8_NS3_4http12basic_fieldsINSt3__19allocatorIcEEE6writer11field_rangeENS9_10chunk_crlfEEEEEENS3_18basic_multi_bufferISD_E8subrangeILb0EEEEEEE14const_iteratorEEEmNS1_16multiple_buffersET_SS_, symObjAddr: 0x6606C, symBinAddr: 0x100069064, symSize: 0x100 }
  - { offsetInCU: 0x5F77, offset: 0x5F77, size: 0x8, addend: 0x0, symName: __ZN5boost4asio6detail11buffer_sizeINS_5beast14buffers_suffixINS3_18basic_multi_bufferINSt3__19allocatorIcEEE8subrangeILb0EEEE14const_iteratorEEEmNS1_16multiple_buffersET_SF_, symObjAddr: 0x66264, symBinAddr: 0x10006925C, symSize: 0xBC }
  - { offsetInCU: 0x6005, offset: 0x6005, size: 0x8, addend: 0x0, symName: __ZN5boost4asio6detail11buffer_sizeINS_5beast14buffers_suffixINS3_16buffers_cat_viewIJNS3_6detail11buffers_refINS5_IJNS0_12const_bufferES8_S8_NS3_4http12basic_fieldsINSt3__19allocatorIcEEE6writer11field_rangeENS9_10chunk_crlfEEEEEENS9_6detail10chunk_sizeES8_SH_NS3_18basic_multi_bufferISD_E8subrangeILb0EEESH_EEEE14const_iteratorEEEmNS1_16multiple_buffersET_SU_, symObjAddr: 0x66778, symBinAddr: 0x100069770, symSize: 0x100 }
  - { offsetInCU: 0x6096, offset: 0x6096, size: 0x8, addend: 0x0, symName: __ZN5boost4asio6detail11buffer_sizeINS_5beast14buffers_suffixINS3_16buffers_cat_viewIJNS3_4http6detail10chunk_sizeENS0_12const_bufferENS6_10chunk_crlfENS3_18basic_multi_bufferINSt3__19allocatorIcEEE8subrangeILb0EEESA_EEEE14const_iteratorEEEmNS1_16multiple_buffersET_SM_, symObjAddr: 0x68CB4, symBinAddr: 0x10006BCAC, symSize: 0x100 }
  - { offsetInCU: 0x6126, offset: 0x6126, size: 0x8, addend: 0x0, symName: __ZN5boost4asio6detail11buffer_sizeINS_5beast14buffers_suffixINS3_16buffers_cat_viewIJNS3_4http6detail10chunk_sizeENS0_12const_bufferENS6_10chunk_crlfENS3_18basic_multi_bufferINSt3__19allocatorIcEEE8subrangeILb0EEESA_S9_S9_SA_EEEE14const_iteratorEEEmNS1_16multiple_buffersET_SM_, symObjAddr: 0x6AE74, symBinAddr: 0x10006DE6C, symSize: 0x100 }
  - { offsetInCU: 0x61B6, offset: 0x61B6, size: 0x8, addend: 0x0, symName: __ZN5boost4asio6detail11buffer_sizeINS_5beast14buffers_suffixINS3_16buffers_cat_viewIJNS3_6detail11buffers_refINS5_IJNS0_12const_bufferES8_S8_NS3_4http12basic_fieldsINSt3__19allocatorIcEEE6writer11field_rangeENS9_10chunk_crlfEEEEEENS9_6detail10chunk_sizeES8_SH_NS3_18basic_multi_bufferISD_E8subrangeILb0EEESH_S8_S8_SH_EEEE14const_iteratorEEEmNS1_16multiple_buffersET_SU_, symObjAddr: 0x6DA70, symBinAddr: 0x100070A68, symSize: 0x100 }
  - { offsetInCU: 0x6247, offset: 0x6247, size: 0x8, addend: 0x0, symName: __ZN5boost4asio6detail11buffer_sizeINS_5beast18basic_multi_bufferINSt3__19allocatorIcEEE8subrangeILb0EE14const_iteratorEEEmNS1_16multiple_buffersET_SD_, symObjAddr: 0x724A8, symBinAddr: 0x1000754A0, symSize: 0x9C }
  - { offsetInCU: 0x7C90, offset: 0x7C90, size: 0x8, addend: 0x0, symName: __ZN5boost4asio2ipneERKNS1_23basic_resolver_iteratorINS1_3tcpEEES6_, symObjAddr: 0x1D4D0, symBinAddr: 0x1000204C8, symSize: 0x34 }
  - { offsetInCU: 0xA85E, offset: 0xA85E, size: 0x8, addend: 0x0, symName: __ZN5boost4asio9execution6detail10blocking_tILi0EE5neverE, symObjAddr: 0x8717B, symBinAddr: 0x10008B59B, symSize: 0x0 }
  - { offsetInCU: 0xA871, offset: 0xA871, size: 0x8, addend: 0x0, symName: __ZN5boost4asio9execution6detail10blocking_tILi0EE8possiblyE, symObjAddr: 0x8717C, symBinAddr: 0x10008B59C, symSize: 0x0 }
  - { offsetInCU: 0xA884, offset: 0xA884, size: 0x8, addend: 0x0, symName: __ZN5boost4asio9execution6detail10blocking_tILi0EE6alwaysE, symObjAddr: 0x870AC, symBinAddr: 0x10008B4CC, symSize: 0x0 }
  - { offsetInCU: 0xABE6, offset: 0xABE6, size: 0x8, addend: 0x0, symName: __ZN5boost4asio9execution6detail14relationship_tILi0EE12continuationE, symObjAddr: 0x8723C, symBinAddr: 0x10008B65C, symSize: 0x0 }
  - { offsetInCU: 0xABF9, offset: 0xABF9, size: 0x8, addend: 0x0, symName: __ZN5boost4asio9execution6detail14relationship_tILi0EE4forkE, symObjAddr: 0x8723D, symBinAddr: 0x10008B65D, symSize: 0x0 }
  - { offsetInCU: 0xACE9, offset: 0xACE9, size: 0x8, addend: 0x0, symName: __ZN5boost4asio9execution6detaileqERKNS2_10blocking_tILi0EEES6_, symObjAddr: 0xF0E8, symBinAddr: 0x1000120E0, symSize: 0x30 }
  - { offsetInCU: 0xADA3, offset: 0xADA3, size: 0x8, addend: 0x0, symName: __ZN5boost4asio9executionL8blockingE, symObjAddr: 0x870A8, symBinAddr: 0x10008B4C8, symSize: 0x0 }
  - { offsetInCU: 0xB17C, offset: 0xB17C, size: 0x8, addend: 0x0, symName: __ZN5boost4asio9executionL7contextE, symObjAddr: 0x8717D, symBinAddr: 0x10008B59D, symSize: 0x0 }
  - { offsetInCU: 0xB196, offset: 0xB196, size: 0x8, addend: 0x0, symName: __ZN5boost4asio9executionL12relationshipE, symObjAddr: 0x87238, symBinAddr: 0x10008B658, symSize: 0x0 }
  - { offsetInCU: 0xB21B, offset: 0xB21B, size: 0x8, addend: 0x0, symName: __ZN5boost4asio9execution5queryINS0_10io_context19basic_executor_typeINSt3__19allocatorIvEELm0EEERNS0_17execution_contextEEET0_RKT_RKNS1_12context_as_tISB_EEPNS5_9enable_ifIXsr7is_sameISA_SB_EE5valueEvE4typeEPNSJ_IXsr9can_queryISE_RKNS1_6detail9context_tILi0EEEEE5valueEvE4typeE, symObjAddr: 0x11DE0, symBinAddr: 0x100014DD8, symSize: 0x40 }
  - { offsetInCU: 0xB277, offset: 0xB277, size: 0x8, addend: 0x0, symName: __ZN5boost4asio9execution5queryINS0_10io_context19basic_executor_typeINSt3__19allocatorIvEELm0EEENS1_6detail8blocking10possibly_tILi0EEEEENS0_12query_resultIRKT_RKSC_E4typeESG_RKNS1_11prefer_onlyIT0_EEPNS5_9enable_ifIXsr7is_sameISM_SC_EE5valueEvE4typeEPNSQ_IXsr9can_queryISG_SI_EE5valueEvE4typeE, symObjAddr: 0x13614, symBinAddr: 0x10001660C, symSize: 0x44 }
  - { offsetInCU: 0xB2D7, offset: 0xB2D7, size: 0x8, addend: 0x0, symName: __ZN5boost4asio9execution6preferINS0_10io_context19basic_executor_typeINSt3__19allocatorIvEELm0EEENS1_6detail8blocking10possibly_tILi0EEEEENS0_13prefer_resultIRKT_JRKSC_EE4typeESG_RKNS1_11prefer_onlyIT0_EEPNS5_9enable_ifIXsr7is_sameISM_SC_EE5valueEvE4typeEPNSQ_IXsr10can_preferISG_SI_EE5valueEvE4typeE, symObjAddr: 0x137A0, symBinAddr: 0x100016798, symSize: 0x44 }
  - { offsetInCU: 0xB337, offset: 0xB337, size: 0x8, addend: 0x0, symName: __ZN5boost4asio9execution6preferINS0_10io_context19basic_executor_typeINSt3__19allocatorIvEELm0EEENS1_6detail16outstanding_work9tracked_tILi0EEEEENS0_13prefer_resultIRKT_JRKSC_EE4typeESG_RKNS1_11prefer_onlyIT0_EEPNS5_9enable_ifIXsr7is_sameISM_SC_EE5valueEvE4typeEPNSQ_IXsr10can_preferISG_SI_EE5valueEvE4typeE, symObjAddr: 0x13ABC, symBinAddr: 0x100016AB4, symSize: 0x44 }
  - { offsetInCU: 0xB397, offset: 0xB397, size: 0x8, addend: 0x0, symName: __ZN5boost4asio9execution5queryINS0_10io_context19basic_executor_typeINSt3__19allocatorIvEELm4EEERNS0_17execution_contextEEET0_RKT_RKNS1_12context_as_tISB_EEPNS5_9enable_ifIXsr7is_sameISA_SB_EE5valueEvE4typeEPNSJ_IXsr9can_queryISE_RKNS1_6detail9context_tILi0EEEEE5valueEvE4typeE, symObjAddr: 0x14C90, symBinAddr: 0x100017C88, symSize: 0x40 }
  - { offsetInCU: 0xB3F3, offset: 0xB3F3, size: 0x8, addend: 0x0, symName: __ZN5boost4asio9execution5queryINS0_10io_context19basic_executor_typeINSt3__19allocatorIvEELm4EEENS1_6detail8blocking10possibly_tILi0EEEEENS0_12query_resultIRKT_RKSC_E4typeESG_RKNS1_11prefer_onlyIT0_EEPNS5_9enable_ifIXsr7is_sameISM_SC_EE5valueEvE4typeEPNSQ_IXsr9can_queryISG_SI_EE5valueEvE4typeE, symObjAddr: 0x1516C, symBinAddr: 0x100018164, symSize: 0x44 }
  - { offsetInCU: 0xB453, offset: 0xB453, size: 0x8, addend: 0x0, symName: __ZN5boost4asio9execution6preferINS0_10io_context19basic_executor_typeINSt3__19allocatorIvEELm4EEENS1_6detail8blocking10possibly_tILi0EEEEENS0_13prefer_resultIRKT_JRKSC_EE4typeESG_RKNS1_11prefer_onlyIT0_EEPNS5_9enable_ifIXsr7is_sameISM_SC_EE5valueEvE4typeEPNSQ_IXsr10can_preferISG_SI_EE5valueEvE4typeE, symObjAddr: 0x152F8, symBinAddr: 0x1000182F0, symSize: 0x44 }
  - { offsetInCU: 0xB4B3, offset: 0xB4B3, size: 0x8, addend: 0x0, symName: __ZN5boost4asio9execution6preferINS0_10io_context19basic_executor_typeINSt3__19allocatorIvEELm4EEENS1_6detail16outstanding_work9tracked_tILi0EEEEENS0_13prefer_resultIRKT_JRKSC_EE4typeESG_RKNS1_11prefer_onlyIT0_EEPNS5_9enable_ifIXsr7is_sameISM_SC_EE5valueEvE4typeEPNSQ_IXsr10can_preferISG_SI_EE5valueEvE4typeE, symObjAddr: 0x155AC, symBinAddr: 0x1000185A4, symSize: 0x3C }
  - { offsetInCU: 0xB513, offset: 0xB513, size: 0x8, addend: 0x0, symName: __ZN5boost4asio9execution6preferINS0_10io_context19basic_executor_typeINSt3__19allocatorIvEELm4EEENS1_6detail16outstanding_work11untracked_tILi0EEEEENS0_13prefer_resultIRKT_JRKSC_EE4typeESG_RKNS1_11prefer_onlyIT0_EEPNS5_9enable_ifIXsr7is_sameISM_SC_EE5valueEvE4typeEPNSQ_IXsr10can_preferISG_SI_EE5valueEvE4typeE, symObjAddr: 0x157E8, symBinAddr: 0x1000187E0, symSize: 0x44 }
  - { offsetInCU: 0xB573, offset: 0xB573, size: 0x8, addend: 0x0, symName: __ZN5boost4asio9execution5queryINS0_10io_context19basic_executor_typeINSt3__19allocatorIvEELm4EEENS1_6detail12relationship6fork_tILi0EEEEENS0_12query_resultIRKT_RKSC_E4typeESG_RKNS1_11prefer_onlyIT0_EEPNS5_9enable_ifIXsr7is_sameISM_SC_EE5valueEvE4typeEPNSQ_IXsr9can_queryISG_SI_EE5valueEvE4typeE, symObjAddr: 0x159B8, symBinAddr: 0x1000189B0, symSize: 0x44 }
  - { offsetInCU: 0xB5D3, offset: 0xB5D3, size: 0x8, addend: 0x0, symName: __ZN5boost4asio9execution6preferINS0_10io_context19basic_executor_typeINSt3__19allocatorIvEELm4EEENS1_6detail12relationship6fork_tILi0EEEEENS0_13prefer_resultIRKT_JRKSC_EE4typeESG_RKNS1_11prefer_onlyIT0_EEPNS5_9enable_ifIXsr7is_sameISM_SC_EE5valueEvE4typeEPNSQ_IXsr10can_preferISG_SI_EE5valueEvE4typeE, symObjAddr: 0x15C34, symBinAddr: 0x100018C2C, symSize: 0x44 }
  - { offsetInCU: 0xB633, offset: 0xB633, size: 0x8, addend: 0x0, symName: __ZN5boost4asio9execution5queryINS0_10io_context19basic_executor_typeINSt3__19allocatorIvEELm4EEENS1_6detail12relationship14continuation_tILi0EEEEENS0_12query_resultIRKT_RKSC_E4typeESG_RKNS1_11prefer_onlyIT0_EEPNS5_9enable_ifIXsr7is_sameISM_SC_EE5valueEvE4typeEPNSQ_IXsr9can_queryISG_SI_EE5valueEvE4typeE, symObjAddr: 0x15E08, symBinAddr: 0x100018E00, symSize: 0x44 }
  - { offsetInCU: 0xB693, offset: 0xB693, size: 0x8, addend: 0x0, symName: __ZN5boost4asio9execution6preferINS0_10io_context19basic_executor_typeINSt3__19allocatorIvEELm4EEENS1_6detail12relationship14continuation_tILi0EEEEENS0_13prefer_resultIRKT_JRKSC_EE4typeESG_RKNS1_11prefer_onlyIT0_EEPNS5_9enable_ifIXsr7is_sameISM_SC_EE5valueEvE4typeEPNSQ_IXsr10can_preferISG_SI_EE5valueEvE4typeE, symObjAddr: 0x15F94, symBinAddr: 0x100018F8C, symSize: 0x44 }
  - { offsetInCU: 0xB6F3, offset: 0xB6F3, size: 0x8, addend: 0x0, symName: __ZN5boost4asio9execution6preferINS0_10io_context19basic_executor_typeINSt3__19allocatorIvEELm0EEENS1_6detail16outstanding_work11untracked_tILi0EEEEENS0_13prefer_resultIRKT_JRKSC_EE4typeESG_RKNS1_11prefer_onlyIT0_EEPNS5_9enable_ifIXsr7is_sameISM_SC_EE5valueEvE4typeEPNSQ_IXsr10can_preferISG_SI_EE5valueEvE4typeE, symObjAddr: 0x162A4, symBinAddr: 0x10001929C, symSize: 0x3C }
  - { offsetInCU: 0xB753, offset: 0xB753, size: 0x8, addend: 0x0, symName: __ZN5boost4asio9execution5queryINS0_10io_context19basic_executor_typeINSt3__19allocatorIvEELm0EEENS1_6detail12relationship6fork_tILi0EEEEENS0_12query_resultIRKT_RKSC_E4typeESG_RKNS1_11prefer_onlyIT0_EEPNS5_9enable_ifIXsr7is_sameISM_SC_EE5valueEvE4typeEPNSQ_IXsr9can_queryISG_SI_EE5valueEvE4typeE, symObjAddr: 0x16400, symBinAddr: 0x1000193F8, symSize: 0x44 }
  - { offsetInCU: 0xB7B3, offset: 0xB7B3, size: 0x8, addend: 0x0, symName: __ZN5boost4asio9execution6preferINS0_10io_context19basic_executor_typeINSt3__19allocatorIvEELm0EEENS1_6detail12relationship6fork_tILi0EEEEENS0_13prefer_resultIRKT_JRKSC_EE4typeESG_RKNS1_11prefer_onlyIT0_EEPNS5_9enable_ifIXsr7is_sameISM_SC_EE5valueEvE4typeEPNSQ_IXsr10can_preferISG_SI_EE5valueEvE4typeE, symObjAddr: 0x165F0, symBinAddr: 0x1000195E8, symSize: 0x44 }
  - { offsetInCU: 0xB813, offset: 0xB813, size: 0x8, addend: 0x0, symName: __ZN5boost4asio9execution5queryINS0_10io_context19basic_executor_typeINSt3__19allocatorIvEELm0EEENS1_6detail12relationship14continuation_tILi0EEEEENS0_12query_resultIRKT_RKSC_E4typeESG_RKNS1_11prefer_onlyIT0_EEPNS5_9enable_ifIXsr7is_sameISM_SC_EE5valueEvE4typeEPNSQ_IXsr9can_queryISG_SI_EE5valueEvE4typeE, symObjAddr: 0x167C4, symBinAddr: 0x1000197BC, symSize: 0x44 }
  - { offsetInCU: 0xB873, offset: 0xB873, size: 0x8, addend: 0x0, symName: __ZN5boost4asio9execution6preferINS0_10io_context19basic_executor_typeINSt3__19allocatorIvEELm0EEENS1_6detail12relationship14continuation_tILi0EEEEENS0_13prefer_resultIRKT_JRKSC_EE4typeESG_RKNS1_11prefer_onlyIT0_EEPNS5_9enable_ifIXsr7is_sameISM_SC_EE5valueEvE4typeEPNSQ_IXsr10can_preferISG_SI_EE5valueEvE4typeE, symObjAddr: 0x16950, symBinAddr: 0x100019948, symSize: 0x44 }
  - { offsetInCU: 0xCDBE, offset: 0xCDBE, size: 0x8, addend: 0x0, symName: __ZN5boost4asio7connectINS0_2ip3tcpENS0_15any_io_executorENS2_23basic_resolver_iteratorIS3_EEEET1_RNS0_12basic_socketIT_T0_EES7_S7_, symObjAddr: 0x5D4, symBinAddr: 0x1000035CC, symSize: 0x158 }
  - { offsetInCU: 0xCE40, offset: 0xCE40, size: 0x8, addend: 0x0, symName: __ZN5boost4asio11add_serviceINS0_6detail9schedulerEEEvRNS0_17execution_contextEPT_, symObjAddr: 0x4568, symBinAddr: 0x100007560, symSize: 0x30 }
  - { offsetInCU: 0xCE83, offset: 0xCE83, size: 0x8, addend: 0x0, symName: __ZN5boost4asio11use_serviceINS0_6detail14kqueue_reactorEEERT_RNS0_17execution_contextE, symObjAddr: 0x59E4, symBinAddr: 0x1000089DC, symSize: 0x28 }
  - { offsetInCU: 0xCEBB, offset: 0xCEBB, size: 0x8, addend: 0x0, symName: __ZN5boost4asio11use_serviceINS0_6detail9schedulerEEERT_RNS0_17execution_contextE, symObjAddr: 0x60D8, symBinAddr: 0x1000090D0, symSize: 0x28 }
  - { offsetInCU: 0xCEF2, offset: 0xCEF2, size: 0x8, addend: 0x0, symName: __ZN5boost4asio14aligned_deleteEPv, symObjAddr: 0x9FD8, symBinAddr: 0x10000CFD0, symSize: 0x24 }
  - { offsetInCU: 0xCF1D, offset: 0xCF1D, size: 0x8, addend: 0x0, symName: __ZN5boost4asio11use_serviceINS0_6detail16resolver_serviceINS0_2ip3tcpEEEEERT_RNS0_10io_contextE, symObjAddr: 0xE3B4, symBinAddr: 0x1000113AC, symSize: 0x2C }
  - { offsetInCU: 0xCF54, offset: 0xCF54, size: 0x8, addend: 0x0, symName: __ZN5boost4asioeqERKNS0_10io_context19basic_executor_typeINSt3__19allocatorIvEELm0EEES8_, symObjAddr: 0xF34C, symBinAddr: 0x100012344, symSize: 0x64 }
  - { offsetInCU: 0xCF92, offset: 0xCF92, size: 0x8, addend: 0x0, symName: __ZN5boost4asio19asio_handler_invokeINS0_6detail17executor_functionEEEvRT_z, symObjAddr: 0xFAC4, symBinAddr: 0x100012ABC, symSize: 0x24 }
  - { offsetInCU: 0xCFCB, offset: 0xCFCB, size: 0x8, addend: 0x0, symName: __ZN5boost4asio11aligned_newEmm, symObjAddr: 0x102B0, symBinAddr: 0x1000132A8, symSize: 0x11C }
  - { offsetInCU: 0xD035, offset: 0xD035, size: 0x8, addend: 0x0, symName: __ZN5boost4asio19asio_handler_invokeINS0_6detail22executor_function_viewEEEvRT_z, symObjAddr: 0x1124C, symBinAddr: 0x100014244, symSize: 0x24 }
  - { offsetInCU: 0xD06D, offset: 0xD06D, size: 0x8, addend: 0x0, symName: __ZN5boost4asioeqERKNS0_10io_context19basic_executor_typeINSt3__19allocatorIvEELm4EEES8_, symObjAddr: 0x14038, symBinAddr: 0x100017030, symSize: 0x64 }
  - { offsetInCU: 0xD0AB, offset: 0xD0AB, size: 0x8, addend: 0x0, symName: __ZN5boost4asio11use_serviceINS0_6detail23reactive_socket_serviceINS0_2ip3tcpEEEEERT_RNS0_10io_contextE, symObjAddr: 0x17754, symBinAddr: 0x10001A74C, symSize: 0x2C }
  - { offsetInCU: 0xD0E2, offset: 0xD0E2, size: 0x8, addend: 0x0, symName: __ZN5boost4asio7connectINS0_2ip3tcpENS0_15any_io_executorENS2_23basic_resolver_iteratorIS3_EEEET1_RNS0_12basic_socketIT_T0_EES7_S7_RNS_6system10error_codeE, symObjAddr: 0x1D128, symBinAddr: 0x100020120, symSize: 0xC0 }
  - { offsetInCU: 0xD15D, offset: 0xD15D, size: 0x8, addend: 0x0, symName: __ZN5boost4asio7connectINS0_2ip3tcpENS0_15any_io_executorENS2_23basic_resolver_iteratorIS3_EENS0_6detail25default_connect_conditionEEET1_RNS0_12basic_socketIT_T0_EES9_S9_T2_RNS_6system10error_codeE, symObjAddr: 0x1D21C, symBinAddr: 0x100020214, symSize: 0x2B4 }
  - { offsetInCU: 0xD207, offset: 0xD207, size: 0x8, addend: 0x0, symName: __ZN5boost4asio21buffer_sequence_beginINS_5beast16buffers_cat_viewIJNS2_6detail11buffers_refINS3_IJNS0_12const_bufferES6_S6_NS2_4http12basic_fieldsINSt3__19allocatorIcEEE6writer11field_rangeENS7_10chunk_crlfEEEEEES6_EEEEEDTcldtfp_5beginEERT_NS0_10constraintIXaantsr14is_convertibleIPKSK_PKNS0_14mutable_bufferEEE5valuentsr14is_convertibleISO_PKS6_EE5valueEiE4typeE, symObjAddr: 0x2C9F0, symBinAddr: 0x10002F9E8, symSize: 0x38 }
  - { offsetInCU: 0xD249, offset: 0xD249, size: 0x8, addend: 0x0, symName: __ZN5boost4asio21buffer_sequence_beginINS_5beast6detail11buffers_refINS2_16buffers_cat_viewIJNS0_12const_bufferES6_S6_NS2_4http12basic_fieldsINSt3__19allocatorIcEEE6writer11field_rangeENS7_10chunk_crlfEEEEEEEEDTcldtfp_5beginEERKT_NS0_10constraintIXaantsr14is_convertibleIPSK_PKNS0_14mutable_bufferEEE5valuentsr14is_convertibleISN_PKS6_EE5valueEiE4typeE, symObjAddr: 0x2CD28, symBinAddr: 0x10002FD20, symSize: 0x38 }
  - { offsetInCU: 0xD28B, offset: 0xD28B, size: 0x8, addend: 0x0, symName: __ZN5boost4asio21buffer_sequence_beginINS_5beast16buffers_cat_viewIJNS0_12const_bufferES4_S4_NS2_4http12basic_fieldsINSt3__19allocatorIcEEE6writer11field_rangeENS5_10chunk_crlfEEEEEEDTcldtfp_5beginEERKT_NS0_10constraintIXaantsr14is_convertibleIPSH_PKNS0_14mutable_bufferEEE5valuentsr14is_convertibleISK_PKS4_EE5valueEiE4typeE, symObjAddr: 0x2D470, symBinAddr: 0x100030468, symSize: 0x38 }
  - { offsetInCU: 0xD2CD, offset: 0xD2CD, size: 0x8, addend: 0x0, symName: __ZN5boost4asio21buffer_sequence_beginINS0_12const_bufferEEEPKS2_RKT_NS0_10constraintIXsr14is_convertibleIPS6_S4_EE5valueEiE4typeE, symObjAddr: 0x2D640, symBinAddr: 0x100030638, symSize: 0x18 }
  - { offsetInCU: 0xD30F, offset: 0xD30F, size: 0x8, addend: 0x0, symName: __ZN5boost4asio19buffer_sequence_endINS0_12const_bufferEEEPKS2_RKT_NS0_10constraintIXsr14is_convertibleIPS6_S4_EE5valueEiE4typeE, symObjAddr: 0x2D7E4, symBinAddr: 0x1000307DC, symSize: 0x1C }
  - { offsetInCU: 0xD351, offset: 0xD351, size: 0x8, addend: 0x0, symName: __ZN5boost4asio21buffer_sequence_beginINS_5beast4http12basic_fieldsINSt3__19allocatorIcEEE6writer11field_rangeEEEDTcldtfp_5beginEERKT_NS0_10constraintIXaantsr14is_convertibleIPSD_PKNS0_14mutable_bufferEEE5valuentsr14is_convertibleISG_PKNS0_12const_bufferEEE5valueEiE4typeE, symObjAddr: 0x2DBF0, symBinAddr: 0x100030BE8, symSize: 0x38 }
  - { offsetInCU: 0xD393, offset: 0xD393, size: 0x8, addend: 0x0, symName: __ZN5boost4asio19buffer_sequence_endINS_5beast4http12basic_fieldsINSt3__19allocatorIcEEE6writer11field_rangeEEEDTcldtfp_3endEERKT_NS0_10constraintIXaantsr14is_convertibleIPSD_PKNS0_14mutable_bufferEEE5valuentsr14is_convertibleISG_PKNS0_12const_bufferEEE5valueEiE4typeE, symObjAddr: 0x2DEF8, symBinAddr: 0x100030EF0, symSize: 0x38 }
  - { offsetInCU: 0xD3D5, offset: 0xD3D5, size: 0x8, addend: 0x0, symName: __ZN5boost4asio21buffer_sequence_beginINS_5beast4http10chunk_crlfEEEDTcldtfp_5beginEERKT_NS0_10constraintIXaantsr14is_convertibleIPS7_PKNS0_14mutable_bufferEEE5valuentsr14is_convertibleISA_PKNS0_12const_bufferEEE5valueEiE4typeE, symObjAddr: 0x2E054, symBinAddr: 0x10003104C, symSize: 0x38 }
  - { offsetInCU: 0xD417, offset: 0xD417, size: 0x8, addend: 0x0, symName: __ZN5boost4asio19buffer_sequence_endINS_5beast4http10chunk_crlfEEEDTcldtfp_3endEERKT_NS0_10constraintIXaantsr14is_convertibleIPS7_PKNS0_14mutable_bufferEEE5valuentsr14is_convertibleISA_PKNS0_12const_bufferEEE5valueEiE4typeE, symObjAddr: 0x2E2E8, symBinAddr: 0x1000312E0, symSize: 0x38 }
  - { offsetInCU: 0xD459, offset: 0xD459, size: 0x8, addend: 0x0, symName: __ZN5boost4asio19buffer_sequence_endINS_5beast6detail11buffers_refINS2_16buffers_cat_viewIJNS0_12const_bufferES6_S6_NS2_4http12basic_fieldsINSt3__19allocatorIcEEE6writer11field_rangeENS7_10chunk_crlfEEEEEEEEDTcldtfp_3endEERKT_NS0_10constraintIXaantsr14is_convertibleIPSK_PKNS0_14mutable_bufferEEE5valuentsr14is_convertibleISN_PKS6_EE5valueEiE4typeE, symObjAddr: 0x2E4A8, symBinAddr: 0x1000314A0, symSize: 0x38 }
  - { offsetInCU: 0xD49B, offset: 0xD49B, size: 0x8, addend: 0x0, symName: __ZN5boost4asio19buffer_sequence_endINS_5beast16buffers_cat_viewIJNS0_12const_bufferES4_S4_NS2_4http12basic_fieldsINSt3__19allocatorIcEEE6writer11field_rangeENS5_10chunk_crlfEEEEEEDTcldtfp_3endEERKT_NS0_10constraintIXaantsr14is_convertibleIPSH_PKNS0_14mutable_bufferEEE5valuentsr14is_convertibleISK_PKS4_EE5valueEiE4typeE, symObjAddr: 0x2EB04, symBinAddr: 0x100031AFC, symSize: 0x38 }
  - { offsetInCU: 0xD4DD, offset: 0xD4DD, size: 0x8, addend: 0x0, symName: __ZN5boost4asio21buffer_sequence_beginINS_5beast14buffers_suffixINS2_16buffers_cat_viewIJNS2_6detail11buffers_refINS4_IJNS0_12const_bufferES7_S7_NS2_4http12basic_fieldsINSt3__19allocatorIcEEE6writer11field_rangeENS8_10chunk_crlfEEEEEES7_EEEEEEEDTcldtfp_5beginEERKT_NS0_10constraintIXaantsr14is_convertibleIPSN_PKNS0_14mutable_bufferEEE5valuentsr14is_convertibleISQ_PKS7_EE5valueEiE4typeE, symObjAddr: 0x308E4, symBinAddr: 0x1000338DC, symSize: 0x38 }
  - { offsetInCU: 0xD51F, offset: 0xD51F, size: 0x8, addend: 0x0, symName: __ZN5boost4asio19buffer_sequence_endINS_5beast16buffers_cat_viewIJNS2_6detail11buffers_refINS3_IJNS0_12const_bufferES6_S6_NS2_4http12basic_fieldsINSt3__19allocatorIcEEE6writer11field_rangeENS7_10chunk_crlfEEEEEES6_EEEEEDTcldtfp_3endEERKT_NS0_10constraintIXaantsr14is_convertibleIPSL_PKNS0_14mutable_bufferEEE5valuentsr14is_convertibleISO_PKS6_EE5valueEiE4typeE, symObjAddr: 0x310F8, symBinAddr: 0x1000340F0, symSize: 0x38 }
  - { offsetInCU: 0xD561, offset: 0xD561, size: 0x8, addend: 0x0, symName: __ZN5boost4asioplERKNS0_12const_bufferEm, symObjAddr: 0x3186C, symBinAddr: 0x100034864, symSize: 0xA8 }
  - { offsetInCU: 0xD63B, offset: 0xD63B, size: 0x8, addend: 0x0, symName: __ZN5boost4asio21buffer_sequence_beginINS_5beast6detail11buffers_refINS2_19buffers_prefix_viewIRKNS2_14buffers_suffixINS2_16buffers_cat_viewIJNS4_INS7_IJNS0_12const_bufferES8_S8_NS2_4http12basic_fieldsINSt3__19allocatorIcEEE6writer11field_rangeENS9_10chunk_crlfEEEEEES8_EEEEEEEEEEEDTcldtfp_5beginEERKT_NS0_10constraintIXaantsr14is_convertibleIPSS_PKNS0_14mutable_bufferEEE5valuentsr14is_convertibleISV_PKS8_EE5valueEiE4typeE, symObjAddr: 0x32214, symBinAddr: 0x10003520C, symSize: 0x38 }
  - { offsetInCU: 0xD67D, offset: 0xD67D, size: 0x8, addend: 0x0, symName: __ZN5boost4asio19buffer_sequence_endINS_5beast6detail11buffers_refINS2_19buffers_prefix_viewIRKNS2_14buffers_suffixINS2_16buffers_cat_viewIJNS4_INS7_IJNS0_12const_bufferES8_S8_NS2_4http12basic_fieldsINSt3__19allocatorIcEEE6writer11field_rangeENS9_10chunk_crlfEEEEEES8_EEEEEEEEEEEDTcldtfp_3endEERKT_NS0_10constraintIXaantsr14is_convertibleIPSS_PKNS0_14mutable_bufferEEE5valuentsr14is_convertibleISV_PKS8_EE5valueEiE4typeE, symObjAddr: 0x3224C, symBinAddr: 0x100035244, symSize: 0x38 }
  - { offsetInCU: 0xD6BF, offset: 0xD6BF, size: 0x8, addend: 0x0, symName: __ZN5boost4asio21buffer_sequence_beginINS_5beast19buffers_prefix_viewIRKNS2_14buffers_suffixINS2_16buffers_cat_viewIJNS2_6detail11buffers_refINS5_IJNS0_12const_bufferES8_S8_NS2_4http12basic_fieldsINSt3__19allocatorIcEEE6writer11field_rangeENS9_10chunk_crlfEEEEEES8_EEEEEEEEEDTcldtfp_5beginEERKT_NS0_10constraintIXaantsr14is_convertibleIPSR_PKNS0_14mutable_bufferEEE5valuentsr14is_convertibleISU_PKS8_EE5valueEiE4typeE, symObjAddr: 0x325E0, symBinAddr: 0x1000355D8, symSize: 0x38 }
  - { offsetInCU: 0xD701, offset: 0xD701, size: 0x8, addend: 0x0, symName: __ZN5boost4asio19buffer_sequence_endINS_5beast19buffers_prefix_viewIRKNS2_14buffers_suffixINS2_16buffers_cat_viewIJNS2_6detail11buffers_refINS5_IJNS0_12const_bufferES8_S8_NS2_4http12basic_fieldsINSt3__19allocatorIcEEE6writer11field_rangeENS9_10chunk_crlfEEEEEES8_EEEEEEEEEDTcldtfp_3endEERKT_NS0_10constraintIXaantsr14is_convertibleIPSR_PKNS0_14mutable_bufferEEE5valuentsr14is_convertibleISU_PKS8_EE5valueEiE4typeE, symObjAddr: 0x3270C, symBinAddr: 0x100035704, symSize: 0x38 }
  - { offsetInCU: 0xD743, offset: 0xD743, size: 0x8, addend: 0x0, symName: __ZN5boost4asio21buffer_sequence_beginINS_5beast6detail11buffers_refINS2_16buffers_cat_viewIJNS0_12const_bufferES6_S6_NS2_4http12basic_fieldsINSt3__19allocatorIcEEE6writer11field_rangeENS7_10chunk_crlfEEEEEEEEDTcldtfp_5beginEERT_NS0_10constraintIXaantsr14is_convertibleIPKSJ_PKNS0_14mutable_bufferEEE5valuentsr14is_convertibleISN_PKS6_EE5valueEiE4typeE, symObjAddr: 0x32A94, symBinAddr: 0x100035A8C, symSize: 0x30 }
  - { offsetInCU: 0xD785, offset: 0xD785, size: 0x8, addend: 0x0, symName: __ZN5boost4asio21buffer_sequence_beginINS_5beast14buffers_suffixINS2_6detail11buffers_refINS2_16buffers_cat_viewIJNS0_12const_bufferES7_S7_NS2_4http12basic_fieldsINSt3__19allocatorIcEEE6writer11field_rangeENS8_10chunk_crlfEEEEEEEEEEDTcldtfp_5beginEERKT_NS0_10constraintIXaantsr14is_convertibleIPSM_PKNS0_14mutable_bufferEEE5valuentsr14is_convertibleISP_PKS7_EE5valueEiE4typeE, symObjAddr: 0x32FEC, symBinAddr: 0x100035FE4, symSize: 0x38 }
  - { offsetInCU: 0xD7C7, offset: 0xD7C7, size: 0x8, addend: 0x0, symName: __ZN5boost4asio21buffer_sequence_beginINS_5beast6detail11buffers_refINS2_19buffers_prefix_viewIRKNS2_14buffers_suffixINS4_INS2_16buffers_cat_viewIJNS0_12const_bufferES8_S8_NS2_4http12basic_fieldsINSt3__19allocatorIcEEE6writer11field_rangeENS9_10chunk_crlfEEEEEEEEEEEEEEDTcldtfp_5beginEERKT_NS0_10constraintIXaantsr14is_convertibleIPSR_PKNS0_14mutable_bufferEEE5valuentsr14is_convertibleISU_PKS8_EE5valueEiE4typeE, symObjAddr: 0x3391C, symBinAddr: 0x100036914, symSize: 0x38 }
  - { offsetInCU: 0xD809, offset: 0xD809, size: 0x8, addend: 0x0, symName: __ZN5boost4asio19buffer_sequence_endINS_5beast6detail11buffers_refINS2_19buffers_prefix_viewIRKNS2_14buffers_suffixINS4_INS2_16buffers_cat_viewIJNS0_12const_bufferES8_S8_NS2_4http12basic_fieldsINSt3__19allocatorIcEEE6writer11field_rangeENS9_10chunk_crlfEEEEEEEEEEEEEEDTcldtfp_3endEERKT_NS0_10constraintIXaantsr14is_convertibleIPSR_PKNS0_14mutable_bufferEEE5valuentsr14is_convertibleISU_PKS8_EE5valueEiE4typeE, symObjAddr: 0x33954, symBinAddr: 0x10003694C, symSize: 0x38 }
  - { offsetInCU: 0xD84B, offset: 0xD84B, size: 0x8, addend: 0x0, symName: __ZN5boost4asio21buffer_sequence_beginINS_5beast19buffers_prefix_viewIRKNS2_14buffers_suffixINS2_6detail11buffers_refINS2_16buffers_cat_viewIJNS0_12const_bufferES8_S8_NS2_4http12basic_fieldsINSt3__19allocatorIcEEE6writer11field_rangeENS9_10chunk_crlfEEEEEEEEEEEEDTcldtfp_5beginEERKT_NS0_10constraintIXaantsr14is_convertibleIPSQ_PKNS0_14mutable_bufferEEE5valuentsr14is_convertibleIST_PKS8_EE5valueEiE4typeE, symObjAddr: 0x33C7C, symBinAddr: 0x100036C74, symSize: 0x38 }
  - { offsetInCU: 0xD88D, offset: 0xD88D, size: 0x8, addend: 0x0, symName: __ZN5boost4asio19buffer_sequence_endINS_5beast19buffers_prefix_viewIRKNS2_14buffers_suffixINS2_6detail11buffers_refINS2_16buffers_cat_viewIJNS0_12const_bufferES8_S8_NS2_4http12basic_fieldsINSt3__19allocatorIcEEE6writer11field_rangeENS9_10chunk_crlfEEEEEEEEEEEEDTcldtfp_3endEERKT_NS0_10constraintIXaantsr14is_convertibleIPSQ_PKNS0_14mutable_bufferEEE5valuentsr14is_convertibleIST_PKS8_EE5valueEiE4typeE, symObjAddr: 0x33DA8, symBinAddr: 0x100036DA0, symSize: 0x38 }
  - { offsetInCU: 0xD8CF, offset: 0xD8CF, size: 0x8, addend: 0x0, symName: __ZN5boost4asio21buffer_sequence_beginINS_5beast14buffers_suffixINS0_12const_bufferEEEEEDTcldtfp_5beginEERKT_NS0_10constraintIXaantsr14is_convertibleIPS8_PKNS0_14mutable_bufferEEE5valuentsr14is_convertibleISB_PKS4_EE5valueEiE4typeE, symObjAddr: 0x34344, symBinAddr: 0x10003733C, symSize: 0x50 }
  - { offsetInCU: 0xD911, offset: 0xD911, size: 0x8, addend: 0x0, symName: __ZN5boost4asio21buffer_sequence_beginINS_5beast6detail11buffers_refINS2_19buffers_prefix_viewIRKNS2_14buffers_suffixINS0_12const_bufferEEEEEEEEEDTcldtfp_5beginEERKT_NS0_10constraintIXaantsr14is_convertibleIPSF_PKNS0_14mutable_bufferEEE5valuentsr14is_convertibleISI_PKS7_EE5valueEiE4typeE, symObjAddr: 0x348DC, symBinAddr: 0x1000378D4, symSize: 0x30 }
  - { offsetInCU: 0xD953, offset: 0xD953, size: 0x8, addend: 0x0, symName: __ZN5boost4asio19buffer_sequence_endINS_5beast6detail11buffers_refINS2_19buffers_prefix_viewIRKNS2_14buffers_suffixINS0_12const_bufferEEEEEEEEEDTcldtfp_3endEERKT_NS0_10constraintIXaantsr14is_convertibleIPSF_PKNS0_14mutable_bufferEEE5valuentsr14is_convertibleISI_PKS7_EE5valueEiE4typeE, symObjAddr: 0x3490C, symBinAddr: 0x100037904, symSize: 0x30 }
  - { offsetInCU: 0xD995, offset: 0xD995, size: 0x8, addend: 0x0, symName: __ZN5boost4asio21buffer_sequence_beginINS_5beast19buffers_prefix_viewIRKNS2_14buffers_suffixINS0_12const_bufferEEEEEEEDTcldtfp_5beginEERKT_NS0_10constraintIXaantsr14is_convertibleIPSC_PKNS0_14mutable_bufferEEE5valuentsr14is_convertibleISF_PKS5_EE5valueEiE4typeE, symObjAddr: 0x34B0C, symBinAddr: 0x100037B04, symSize: 0x30 }
  - { offsetInCU: 0xD9D7, offset: 0xD9D7, size: 0x8, addend: 0x0, symName: __ZN5boost4asio19buffer_sequence_endINS_5beast19buffers_prefix_viewIRKNS2_14buffers_suffixINS0_12const_bufferEEEEEEEDTcldtfp_3endEERKT_NS0_10constraintIXaantsr14is_convertibleIPSC_PKNS0_14mutable_bufferEEE5valuentsr14is_convertibleISF_PKS5_EE5valueEiE4typeE, symObjAddr: 0x34C28, symBinAddr: 0x100037C20, symSize: 0x30 }
  - { offsetInCU: 0xDA19, offset: 0xDA19, size: 0x8, addend: 0x0, symName: __ZN5boost4asio21buffer_sequence_beginINS_5beast16buffers_cat_viewIJNS2_6detail11buffers_refINS3_IJNS0_12const_bufferES6_S6_NS2_4http12basic_fieldsINSt3__19allocatorIcEEE6writer11field_rangeENS7_10chunk_crlfEEEEEENS7_6detail10chunk_sizeES6_SF_S6_SF_S6_S6_SF_EEEEEDTcldtfp_5beginEERT_NS0_10constraintIXaantsr14is_convertibleIPKSM_PKNS0_14mutable_bufferEEE5valuentsr14is_convertibleISQ_PKS6_EE5valueEiE4typeE, symObjAddr: 0x34F74, symBinAddr: 0x100037F6C, symSize: 0x38 }
  - { offsetInCU: 0xDA5B, offset: 0xDA5B, size: 0x8, addend: 0x0, symName: __ZN5boost4asio21buffer_sequence_beginINS_5beast4http6detail10chunk_sizeEEEDTcldtfp_5beginEERKT_NS0_10constraintIXaantsr14is_convertibleIPS8_PKNS0_14mutable_bufferEEE5valuentsr14is_convertibleISB_PKNS0_12const_bufferEEE5valueEiE4typeE, symObjAddr: 0x3631C, symBinAddr: 0x100039314, symSize: 0x38 }
  - { offsetInCU: 0xDA9D, offset: 0xDA9D, size: 0x8, addend: 0x0, symName: __ZN5boost4asio19buffer_sequence_endINS_5beast4http6detail10chunk_sizeEEEDTcldtfp_3endEERKT_NS0_10constraintIXaantsr14is_convertibleIPS8_PKNS0_14mutable_bufferEEE5valuentsr14is_convertibleISB_PKNS0_12const_bufferEEE5valueEiE4typeE, symObjAddr: 0x36508, symBinAddr: 0x100039500, symSize: 0x38 }
  - { offsetInCU: 0xDADF, offset: 0xDADF, size: 0x8, addend: 0x0, symName: __ZN5boost4asio21buffer_sequence_beginINS_5beast16buffers_cat_viewIJNS2_6detail11buffers_refINS3_IJNS0_12const_bufferES6_S6_NS2_4http12basic_fieldsINSt3__19allocatorIcEEE6writer11field_rangeENS7_10chunk_crlfEEEEEENS7_6detail10chunk_sizeES6_SF_S6_SF_EEEEEDTcldtfp_5beginEERT_NS0_10constraintIXaantsr14is_convertibleIPKSM_PKNS0_14mutable_bufferEEE5valuentsr14is_convertibleISQ_PKS6_EE5valueEiE4typeE, symObjAddr: 0x3736C, symBinAddr: 0x10003A364, symSize: 0x38 }
  - { offsetInCU: 0xDB21, offset: 0xDB21, size: 0x8, addend: 0x0, symName: __ZN5boost4asio21buffer_sequence_beginINS_5beast14buffers_suffixINS2_16buffers_cat_viewIJNS2_6detail11buffers_refINS4_IJNS0_12const_bufferES7_S7_NS2_4http12basic_fieldsINSt3__19allocatorIcEEE6writer11field_rangeENS8_10chunk_crlfEEEEEENS8_6detail10chunk_sizeES7_SG_S7_SG_EEEEEEEDTcldtfp_5beginEERKT_NS0_10constraintIXaantsr14is_convertibleIPSP_PKNS0_14mutable_bufferEEE5valuentsr14is_convertibleISS_PKS7_EE5valueEiE4typeE, symObjAddr: 0x386CC, symBinAddr: 0x10003B6C4, symSize: 0x38 }
  - { offsetInCU: 0xDB63, offset: 0xDB63, size: 0x8, addend: 0x0, symName: __ZN5boost4asio19buffer_sequence_endINS_5beast16buffers_cat_viewIJNS2_6detail11buffers_refINS3_IJNS0_12const_bufferES6_S6_NS2_4http12basic_fieldsINSt3__19allocatorIcEEE6writer11field_rangeENS7_10chunk_crlfEEEEEENS7_6detail10chunk_sizeES6_SF_S6_SF_EEEEEDTcldtfp_3endEERKT_NS0_10constraintIXaantsr14is_convertibleIPSN_PKNS0_14mutable_bufferEEE5valuentsr14is_convertibleISQ_PKS6_EE5valueEiE4typeE, symObjAddr: 0x38FBC, symBinAddr: 0x10003BFB4, symSize: 0x38 }
  - { offsetInCU: 0xDBA5, offset: 0xDBA5, size: 0x8, addend: 0x0, symName: __ZN5boost4asio21buffer_sequence_beginINS_5beast6detail11buffers_refINS2_19buffers_prefix_viewIRKNS2_14buffers_suffixINS2_16buffers_cat_viewIJNS4_INS7_IJNS0_12const_bufferES8_S8_NS2_4http12basic_fieldsINSt3__19allocatorIcEEE6writer11field_rangeENS9_10chunk_crlfEEEEEENS9_6detail10chunk_sizeES8_SH_S8_SH_EEEEEEEEEEEDTcldtfp_5beginEERKT_NS0_10constraintIXaantsr14is_convertibleIPSU_PKNS0_14mutable_bufferEEE5valuentsr14is_convertibleISX_PKS8_EE5valueEiE4typeE, symObjAddr: 0x3A47C, symBinAddr: 0x10003D474, symSize: 0x38 }
  - { offsetInCU: 0xDBE7, offset: 0xDBE7, size: 0x8, addend: 0x0, symName: __ZN5boost4asio19buffer_sequence_endINS_5beast6detail11buffers_refINS2_19buffers_prefix_viewIRKNS2_14buffers_suffixINS2_16buffers_cat_viewIJNS4_INS7_IJNS0_12const_bufferES8_S8_NS2_4http12basic_fieldsINSt3__19allocatorIcEEE6writer11field_rangeENS9_10chunk_crlfEEEEEENS9_6detail10chunk_sizeES8_SH_S8_SH_EEEEEEEEEEEDTcldtfp_3endEERKT_NS0_10constraintIXaantsr14is_convertibleIPSU_PKNS0_14mutable_bufferEEE5valuentsr14is_convertibleISX_PKS8_EE5valueEiE4typeE, symObjAddr: 0x3A4B4, symBinAddr: 0x10003D4AC, symSize: 0x38 }
  - { offsetInCU: 0xDC29, offset: 0xDC29, size: 0x8, addend: 0x0, symName: __ZN5boost4asio21buffer_sequence_beginINS_5beast19buffers_prefix_viewIRKNS2_14buffers_suffixINS2_16buffers_cat_viewIJNS2_6detail11buffers_refINS5_IJNS0_12const_bufferES8_S8_NS2_4http12basic_fieldsINSt3__19allocatorIcEEE6writer11field_rangeENS9_10chunk_crlfEEEEEENS9_6detail10chunk_sizeES8_SH_S8_SH_EEEEEEEEEDTcldtfp_5beginEERKT_NS0_10constraintIXaantsr14is_convertibleIPST_PKNS0_14mutable_bufferEEE5valuentsr14is_convertibleISW_PKS8_EE5valueEiE4typeE, symObjAddr: 0x3A7DC, symBinAddr: 0x10003D7D4, symSize: 0x38 }
  - { offsetInCU: 0xDC6B, offset: 0xDC6B, size: 0x8, addend: 0x0, symName: __ZN5boost4asio19buffer_sequence_endINS_5beast19buffers_prefix_viewIRKNS2_14buffers_suffixINS2_16buffers_cat_viewIJNS2_6detail11buffers_refINS5_IJNS0_12const_bufferES8_S8_NS2_4http12basic_fieldsINSt3__19allocatorIcEEE6writer11field_rangeENS9_10chunk_crlfEEEEEENS9_6detail10chunk_sizeES8_SH_S8_SH_EEEEEEEEEDTcldtfp_3endEERKT_NS0_10constraintIXaantsr14is_convertibleIPST_PKNS0_14mutable_bufferEEE5valuentsr14is_convertibleISW_PKS8_EE5valueEiE4typeE, symObjAddr: 0x3A908, symBinAddr: 0x10003D900, symSize: 0x38 }
  - { offsetInCU: 0xDCAD, offset: 0xDCAD, size: 0x8, addend: 0x0, symName: __ZN5boost4asio21buffer_sequence_beginINS_5beast16buffers_cat_viewIJNS2_4http6detail10chunk_sizeENS0_12const_bufferENS4_10chunk_crlfES7_S8_S7_S7_S8_EEEEEDTcldtfp_5beginEERT_NS0_10constraintIXaantsr14is_convertibleIPKSB_PKNS0_14mutable_bufferEEE5valuentsr14is_convertibleISF_PKS7_EE5valueEiE4typeE, symObjAddr: 0x3AC40, symBinAddr: 0x10003DC38, symSize: 0x38 }
  - { offsetInCU: 0xDCEF, offset: 0xDCEF, size: 0x8, addend: 0x0, symName: __ZN5boost4asio21buffer_sequence_beginINS_5beast16buffers_cat_viewIJNS2_4http6detail10chunk_sizeENS0_12const_bufferENS4_10chunk_crlfES7_S8_EEEEEDTcldtfp_5beginEERT_NS0_10constraintIXaantsr14is_convertibleIPKSB_PKNS0_14mutable_bufferEEE5valuentsr14is_convertibleISF_PKS7_EE5valueEiE4typeE, symObjAddr: 0x3C038, symBinAddr: 0x10003F030, symSize: 0x38 }
  - { offsetInCU: 0xDD31, offset: 0xDD31, size: 0x8, addend: 0x0, symName: __ZN5boost4asio21buffer_sequence_beginINS_5beast14buffers_suffixINS2_16buffers_cat_viewIJNS2_4http6detail10chunk_sizeENS0_12const_bufferENS5_10chunk_crlfES8_S9_EEEEEEEDTcldtfp_5beginEERKT_NS0_10constraintIXaantsr14is_convertibleIPSE_PKNS0_14mutable_bufferEEE5valuentsr14is_convertibleISH_PKS8_EE5valueEiE4typeE, symObjAddr: 0x3D0F8, symBinAddr: 0x1000400F0, symSize: 0x38 }
  - { offsetInCU: 0xDD73, offset: 0xDD73, size: 0x8, addend: 0x0, symName: __ZN5boost4asio19buffer_sequence_endINS_5beast16buffers_cat_viewIJNS2_4http6detail10chunk_sizeENS0_12const_bufferENS4_10chunk_crlfES7_S8_EEEEEDTcldtfp_3endEERKT_NS0_10constraintIXaantsr14is_convertibleIPSC_PKNS0_14mutable_bufferEEE5valuentsr14is_convertibleISF_PKS7_EE5valueEiE4typeE, symObjAddr: 0x3D988, symBinAddr: 0x100040980, symSize: 0x38 }
  - { offsetInCU: 0xDDB5, offset: 0xDDB5, size: 0x8, addend: 0x0, symName: __ZN5boost4asio21buffer_sequence_beginINS_5beast6detail11buffers_refINS2_19buffers_prefix_viewIRKNS2_14buffers_suffixINS2_16buffers_cat_viewIJNS2_4http6detail10chunk_sizeENS0_12const_bufferENS8_10chunk_crlfESB_SC_EEEEEEEEEEEDTcldtfp_5beginEERKT_NS0_10constraintIXaantsr14is_convertibleIPSL_PKNS0_14mutable_bufferEEE5valuentsr14is_convertibleISO_PKSB_EE5valueEiE4typeE, symObjAddr: 0x3ECD4, symBinAddr: 0x100041CCC, symSize: 0x38 }
  - { offsetInCU: 0xDDF7, offset: 0xDDF7, size: 0x8, addend: 0x0, symName: __ZN5boost4asio19buffer_sequence_endINS_5beast6detail11buffers_refINS2_19buffers_prefix_viewIRKNS2_14buffers_suffixINS2_16buffers_cat_viewIJNS2_4http6detail10chunk_sizeENS0_12const_bufferENS8_10chunk_crlfESB_SC_EEEEEEEEEEEDTcldtfp_3endEERKT_NS0_10constraintIXaantsr14is_convertibleIPSL_PKNS0_14mutable_bufferEEE5valuentsr14is_convertibleISO_PKSB_EE5valueEiE4typeE, symObjAddr: 0x3ED0C, symBinAddr: 0x100041D04, symSize: 0x38 }
  - { offsetInCU: 0xDE39, offset: 0xDE39, size: 0x8, addend: 0x0, symName: __ZN5boost4asio21buffer_sequence_beginINS_5beast19buffers_prefix_viewIRKNS2_14buffers_suffixINS2_16buffers_cat_viewIJNS2_4http6detail10chunk_sizeENS0_12const_bufferENS6_10chunk_crlfES9_SA_EEEEEEEEEDTcldtfp_5beginEERKT_NS0_10constraintIXaantsr14is_convertibleIPSI_PKNS0_14mutable_bufferEEE5valuentsr14is_convertibleISL_PKS9_EE5valueEiE4typeE, symObjAddr: 0x3F034, symBinAddr: 0x10004202C, symSize: 0x38 }
  - { offsetInCU: 0xDE7B, offset: 0xDE7B, size: 0x8, addend: 0x0, symName: __ZN5boost4asio19buffer_sequence_endINS_5beast19buffers_prefix_viewIRKNS2_14buffers_suffixINS2_16buffers_cat_viewIJNS2_4http6detail10chunk_sizeENS0_12const_bufferENS6_10chunk_crlfES9_SA_EEEEEEEEEDTcldtfp_3endEERKT_NS0_10constraintIXaantsr14is_convertibleIPSI_PKNS0_14mutable_bufferEEE5valuentsr14is_convertibleISL_PKS9_EE5valueEiE4typeE, symObjAddr: 0x3F160, symBinAddr: 0x100042158, symSize: 0x38 }
  - { offsetInCU: 0xDEBD, offset: 0xDEBD, size: 0x8, addend: 0x0, symName: __ZN5boost4asio21buffer_sequence_beginINS_5beast14buffers_suffixINS2_16buffers_cat_viewIJNS2_4http6detail10chunk_sizeENS0_12const_bufferENS5_10chunk_crlfES8_S9_S8_S8_S9_EEEEEEEDTcldtfp_5beginEERKT_NS0_10constraintIXaantsr14is_convertibleIPSE_PKNS0_14mutable_bufferEEE5valuentsr14is_convertibleISH_PKS8_EE5valueEiE4typeE, symObjAddr: 0x3F800, symBinAddr: 0x1000427F8, symSize: 0x38 }
  - { offsetInCU: 0xDEFF, offset: 0xDEFF, size: 0x8, addend: 0x0, symName: __ZN5boost4asio19buffer_sequence_endINS_5beast16buffers_cat_viewIJNS2_4http6detail10chunk_sizeENS0_12const_bufferENS4_10chunk_crlfES7_S8_S7_S7_S8_EEEEEDTcldtfp_3endEERKT_NS0_10constraintIXaantsr14is_convertibleIPSC_PKNS0_14mutable_bufferEEE5valuentsr14is_convertibleISF_PKS7_EE5valueEiE4typeE, symObjAddr: 0x401B0, symBinAddr: 0x1000431A8, symSize: 0x38 }
  - { offsetInCU: 0xDF41, offset: 0xDF41, size: 0x8, addend: 0x0, symName: __ZN5boost4asio21buffer_sequence_beginINS_5beast6detail11buffers_refINS2_19buffers_prefix_viewIRKNS2_14buffers_suffixINS2_16buffers_cat_viewIJNS2_4http6detail10chunk_sizeENS0_12const_bufferENS8_10chunk_crlfESB_SC_SB_SB_SC_EEEEEEEEEEEDTcldtfp_5beginEERKT_NS0_10constraintIXaantsr14is_convertibleIPSL_PKNS0_14mutable_bufferEEE5valuentsr14is_convertibleISO_PKSB_EE5valueEiE4typeE, symObjAddr: 0x41988, symBinAddr: 0x100044980, symSize: 0x38 }
  - { offsetInCU: 0xDF83, offset: 0xDF83, size: 0x8, addend: 0x0, symName: __ZN5boost4asio19buffer_sequence_endINS_5beast6detail11buffers_refINS2_19buffers_prefix_viewIRKNS2_14buffers_suffixINS2_16buffers_cat_viewIJNS2_4http6detail10chunk_sizeENS0_12const_bufferENS8_10chunk_crlfESB_SC_SB_SB_SC_EEEEEEEEEEEDTcldtfp_3endEERKT_NS0_10constraintIXaantsr14is_convertibleIPSL_PKNS0_14mutable_bufferEEE5valuentsr14is_convertibleISO_PKSB_EE5valueEiE4typeE, symObjAddr: 0x419C0, symBinAddr: 0x1000449B8, symSize: 0x38 }
  - { offsetInCU: 0xDFC5, offset: 0xDFC5, size: 0x8, addend: 0x0, symName: __ZN5boost4asio21buffer_sequence_beginINS_5beast19buffers_prefix_viewIRKNS2_14buffers_suffixINS2_16buffers_cat_viewIJNS2_4http6detail10chunk_sizeENS0_12const_bufferENS6_10chunk_crlfES9_SA_S9_S9_SA_EEEEEEEEEDTcldtfp_5beginEERKT_NS0_10constraintIXaantsr14is_convertibleIPSI_PKNS0_14mutable_bufferEEE5valuentsr14is_convertibleISL_PKS9_EE5valueEiE4typeE, symObjAddr: 0x41CE8, symBinAddr: 0x100044CE0, symSize: 0x38 }
  - { offsetInCU: 0xE007, offset: 0xE007, size: 0x8, addend: 0x0, symName: __ZN5boost4asio19buffer_sequence_endINS_5beast19buffers_prefix_viewIRKNS2_14buffers_suffixINS2_16buffers_cat_viewIJNS2_4http6detail10chunk_sizeENS0_12const_bufferENS6_10chunk_crlfES9_SA_S9_S9_SA_EEEEEEEEEDTcldtfp_3endEERKT_NS0_10constraintIXaantsr14is_convertibleIPSI_PKNS0_14mutable_bufferEEE5valuentsr14is_convertibleISL_PKS9_EE5valueEiE4typeE, symObjAddr: 0x41E14, symBinAddr: 0x100044E0C, symSize: 0x38 }
  - { offsetInCU: 0xE049, offset: 0xE049, size: 0x8, addend: 0x0, symName: __ZN5boost4asio21buffer_sequence_beginINS_5beast14buffers_suffixINS2_16buffers_cat_viewIJNS2_6detail11buffers_refINS4_IJNS0_12const_bufferES7_S7_NS2_4http12basic_fieldsINSt3__19allocatorIcEEE6writer11field_rangeENS8_10chunk_crlfEEEEEENS8_6detail10chunk_sizeES7_SG_S7_SG_S7_S7_SG_EEEEEEEDTcldtfp_5beginEERKT_NS0_10constraintIXaantsr14is_convertibleIPSP_PKNS0_14mutable_bufferEEE5valuentsr14is_convertibleISS_PKS7_EE5valueEiE4typeE, symObjAddr: 0x424C8, symBinAddr: 0x1000454C0, symSize: 0x38 }
  - { offsetInCU: 0xE08B, offset: 0xE08B, size: 0x8, addend: 0x0, symName: __ZN5boost4asio19buffer_sequence_endINS_5beast16buffers_cat_viewIJNS2_6detail11buffers_refINS3_IJNS0_12const_bufferES6_S6_NS2_4http12basic_fieldsINSt3__19allocatorIcEEE6writer11field_rangeENS7_10chunk_crlfEEEEEENS7_6detail10chunk_sizeES6_SF_S6_SF_S6_S6_SF_EEEEEDTcldtfp_3endEERKT_NS0_10constraintIXaantsr14is_convertibleIPSN_PKNS0_14mutable_bufferEEE5valuentsr14is_convertibleISQ_PKS6_EE5valueEiE4typeE, symObjAddr: 0x42ED8, symBinAddr: 0x100045ED0, symSize: 0x38 }
  - { offsetInCU: 0xE0CD, offset: 0xE0CD, size: 0x8, addend: 0x0, symName: __ZN5boost4asio21buffer_sequence_beginINS_5beast6detail11buffers_refINS2_19buffers_prefix_viewIRKNS2_14buffers_suffixINS2_16buffers_cat_viewIJNS4_INS7_IJNS0_12const_bufferES8_S8_NS2_4http12basic_fieldsINSt3__19allocatorIcEEE6writer11field_rangeENS9_10chunk_crlfEEEEEENS9_6detail10chunk_sizeES8_SH_S8_SH_S8_S8_SH_EEEEEEEEEEEDTcldtfp_5beginEERKT_NS0_10constraintIXaantsr14is_convertibleIPSU_PKNS0_14mutable_bufferEEE5valuentsr14is_convertibleISX_PKS8_EE5valueEiE4typeE, symObjAddr: 0x44824, symBinAddr: 0x10004781C, symSize: 0x38 }
  - { offsetInCU: 0xE10F, offset: 0xE10F, size: 0x8, addend: 0x0, symName: __ZN5boost4asio19buffer_sequence_endINS_5beast6detail11buffers_refINS2_19buffers_prefix_viewIRKNS2_14buffers_suffixINS2_16buffers_cat_viewIJNS4_INS7_IJNS0_12const_bufferES8_S8_NS2_4http12basic_fieldsINSt3__19allocatorIcEEE6writer11field_rangeENS9_10chunk_crlfEEEEEENS9_6detail10chunk_sizeES8_SH_S8_SH_S8_S8_SH_EEEEEEEEEEEDTcldtfp_3endEERKT_NS0_10constraintIXaantsr14is_convertibleIPSU_PKNS0_14mutable_bufferEEE5valuentsr14is_convertibleISX_PKS8_EE5valueEiE4typeE, symObjAddr: 0x4485C, symBinAddr: 0x100047854, symSize: 0x38 }
  - { offsetInCU: 0xE151, offset: 0xE151, size: 0x8, addend: 0x0, symName: __ZN5boost4asio21buffer_sequence_beginINS_5beast19buffers_prefix_viewIRKNS2_14buffers_suffixINS2_16buffers_cat_viewIJNS2_6detail11buffers_refINS5_IJNS0_12const_bufferES8_S8_NS2_4http12basic_fieldsINSt3__19allocatorIcEEE6writer11field_rangeENS9_10chunk_crlfEEEEEENS9_6detail10chunk_sizeES8_SH_S8_SH_S8_S8_SH_EEEEEEEEEDTcldtfp_5beginEERKT_NS0_10constraintIXaantsr14is_convertibleIPST_PKNS0_14mutable_bufferEEE5valuentsr14is_convertibleISW_PKS8_EE5valueEiE4typeE, symObjAddr: 0x44B84, symBinAddr: 0x100047B7C, symSize: 0x38 }
  - { offsetInCU: 0xE193, offset: 0xE193, size: 0x8, addend: 0x0, symName: __ZN5boost4asio19buffer_sequence_endINS_5beast19buffers_prefix_viewIRKNS2_14buffers_suffixINS2_16buffers_cat_viewIJNS2_6detail11buffers_refINS5_IJNS0_12const_bufferES8_S8_NS2_4http12basic_fieldsINSt3__19allocatorIcEEE6writer11field_rangeENS9_10chunk_crlfEEEEEENS9_6detail10chunk_sizeES8_SH_S8_SH_S8_S8_SH_EEEEEEEEEDTcldtfp_3endEERKT_NS0_10constraintIXaantsr14is_convertibleIPST_PKNS0_14mutable_bufferEEE5valuentsr14is_convertibleISW_PKS8_EE5valueEiE4typeE, symObjAddr: 0x44CB0, symBinAddr: 0x100047CA8, symSize: 0x38 }
  - { offsetInCU: 0xE1D5, offset: 0xE1D5, size: 0x8, addend: 0x0, symName: __ZN5boost4asio21buffer_sequence_beginINS_5beast16buffers_cat_viewIJNS0_12const_bufferES4_NS2_4http10chunk_crlfEEEEEEDTcldtfp_5beginEERT_NS0_10constraintIXaantsr14is_convertibleIPKS9_PKNS0_14mutable_bufferEEE5valuentsr14is_convertibleISD_PKS4_EE5valueEiE4typeE, symObjAddr: 0x44F08, symBinAddr: 0x100047F00, symSize: 0x38 }
  - { offsetInCU: 0xE217, offset: 0xE217, size: 0x8, addend: 0x0, symName: __ZN5boost4asio21buffer_sequence_beginINS_5beast14buffers_suffixINS2_16buffers_cat_viewIJNS0_12const_bufferES5_NS2_4http10chunk_crlfEEEEEEEEDTcldtfp_5beginEERKT_NS0_10constraintIXaantsr14is_convertibleIPSC_PKNS0_14mutable_bufferEEE5valuentsr14is_convertibleISF_PKS5_EE5valueEiE4typeE, symObjAddr: 0x45C10, symBinAddr: 0x100048C08, symSize: 0x38 }
  - { offsetInCU: 0xE259, offset: 0xE259, size: 0x8, addend: 0x0, symName: __ZN5boost4asio19buffer_sequence_endINS_5beast16buffers_cat_viewIJNS0_12const_bufferES4_NS2_4http10chunk_crlfEEEEEEDTcldtfp_3endEERKT_NS0_10constraintIXaantsr14is_convertibleIPSA_PKNS0_14mutable_bufferEEE5valuentsr14is_convertibleISD_PKS4_EE5valueEiE4typeE, symObjAddr: 0x463E0, symBinAddr: 0x1000493D8, symSize: 0x38 }
  - { offsetInCU: 0xE29B, offset: 0xE29B, size: 0x8, addend: 0x0, symName: __ZN5boost4asio21buffer_sequence_beginINS_5beast6detail11buffers_refINS2_19buffers_prefix_viewIRKNS2_14buffers_suffixINS2_16buffers_cat_viewIJNS0_12const_bufferES8_NS2_4http10chunk_crlfEEEEEEEEEEEEDTcldtfp_5beginEERKT_NS0_10constraintIXaantsr14is_convertibleIPSJ_PKNS0_14mutable_bufferEEE5valuentsr14is_convertibleISM_PKS8_EE5valueEiE4typeE, symObjAddr: 0x47424, symBinAddr: 0x10004A41C, symSize: 0x38 }
  - { offsetInCU: 0xE2DD, offset: 0xE2DD, size: 0x8, addend: 0x0, symName: __ZN5boost4asio19buffer_sequence_endINS_5beast6detail11buffers_refINS2_19buffers_prefix_viewIRKNS2_14buffers_suffixINS2_16buffers_cat_viewIJNS0_12const_bufferES8_NS2_4http10chunk_crlfEEEEEEEEEEEEDTcldtfp_3endEERKT_NS0_10constraintIXaantsr14is_convertibleIPSJ_PKNS0_14mutable_bufferEEE5valuentsr14is_convertibleISM_PKS8_EE5valueEiE4typeE, symObjAddr: 0x4745C, symBinAddr: 0x10004A454, symSize: 0x38 }
  - { offsetInCU: 0xE31F, offset: 0xE31F, size: 0x8, addend: 0x0, symName: __ZN5boost4asio21buffer_sequence_beginINS_5beast19buffers_prefix_viewIRKNS2_14buffers_suffixINS2_16buffers_cat_viewIJNS0_12const_bufferES6_NS2_4http10chunk_crlfEEEEEEEEEEDTcldtfp_5beginEERKT_NS0_10constraintIXaantsr14is_convertibleIPSG_PKNS0_14mutable_bufferEEE5valuentsr14is_convertibleISJ_PKS6_EE5valueEiE4typeE, symObjAddr: 0x47784, symBinAddr: 0x10004A77C, symSize: 0x38 }
  - { offsetInCU: 0xE361, offset: 0xE361, size: 0x8, addend: 0x0, symName: __ZN5boost4asio19buffer_sequence_endINS_5beast19buffers_prefix_viewIRKNS2_14buffers_suffixINS2_16buffers_cat_viewIJNS0_12const_bufferES6_NS2_4http10chunk_crlfEEEEEEEEEEDTcldtfp_3endEERKT_NS0_10constraintIXaantsr14is_convertibleIPSG_PKNS0_14mutable_bufferEEE5valuentsr14is_convertibleISJ_PKS6_EE5valueEiE4typeE, symObjAddr: 0x478B0, symBinAddr: 0x10004A8A8, symSize: 0x38 }
  - { offsetInCU: 0xE3A3, offset: 0xE3A3, size: 0x8, addend: 0x0, symName: __ZN5boost4asio11buffer_sizeINS_5beast14buffers_suffixINS2_16buffers_cat_viewIJNS2_6detail11buffers_refINS4_IJNS0_12const_bufferES7_S7_NS2_4http12basic_fieldsINSt3__19allocatorIcEEE6writer11field_rangeENS8_10chunk_crlfEEEEEES7_EEEEEEEmRKT_, symObjAddr: 0x4879C, symBinAddr: 0x10004B794, symSize: 0xA4 }
  - { offsetInCU: 0xE3DA, offset: 0xE3DA, size: 0x8, addend: 0x0, symName: __ZN5boost4asio19buffer_sequence_endINS_5beast14buffers_suffixINS2_16buffers_cat_viewIJNS2_6detail11buffers_refINS4_IJNS0_12const_bufferES7_S7_NS2_4http12basic_fieldsINSt3__19allocatorIcEEE6writer11field_rangeENS8_10chunk_crlfEEEEEES7_EEEEEEEDTcldtfp_3endEERKT_NS0_10constraintIXaantsr14is_convertibleIPSN_PKNS0_14mutable_bufferEEE5valuentsr14is_convertibleISQ_PKS7_EE5valueEiE4typeE, symObjAddr: 0x48940, symBinAddr: 0x10004B938, symSize: 0x38 }
  - { offsetInCU: 0xE41C, offset: 0xE41C, size: 0x8, addend: 0x0, symName: __ZN5boost4asio19buffer_sequence_endINS_5beast16buffers_cat_viewIJNS2_6detail11buffers_refINS3_IJNS0_12const_bufferES6_S6_NS2_4http12basic_fieldsINSt3__19allocatorIcEEE6writer11field_rangeENS7_10chunk_crlfEEEEEES6_EEEEEDTcldtfp_3endEERT_NS0_10constraintIXaantsr14is_convertibleIPKSK_PKNS0_14mutable_bufferEEE5valuentsr14is_convertibleISO_PKS6_EE5valueEiE4typeE, symObjAddr: 0x48978, symBinAddr: 0x10004B970, symSize: 0x38 }
  - { offsetInCU: 0xE45E, offset: 0xE45E, size: 0x8, addend: 0x0, symName: __ZN5boost4asio11buffer_sizeINS_5beast14buffers_suffixINS2_6detail11buffers_refINS2_16buffers_cat_viewIJNS0_12const_bufferES7_S7_NS2_4http12basic_fieldsINSt3__19allocatorIcEEE6writer11field_rangeENS8_10chunk_crlfEEEEEEEEEEmRKT_, symObjAddr: 0x489E4, symBinAddr: 0x10004B9DC, symSize: 0xA4 }
  - { offsetInCU: 0xE495, offset: 0xE495, size: 0x8, addend: 0x0, symName: __ZN5boost4asio19buffer_sequence_endINS_5beast14buffers_suffixINS2_6detail11buffers_refINS2_16buffers_cat_viewIJNS0_12const_bufferES7_S7_NS2_4http12basic_fieldsINSt3__19allocatorIcEEE6writer11field_rangeENS8_10chunk_crlfEEEEEEEEEEDTcldtfp_3endEERKT_NS0_10constraintIXaantsr14is_convertibleIPSM_PKNS0_14mutable_bufferEEE5valuentsr14is_convertibleISP_PKS7_EE5valueEiE4typeE, symObjAddr: 0x48B88, symBinAddr: 0x10004BB80, symSize: 0x38 }
  - { offsetInCU: 0xE4D7, offset: 0xE4D7, size: 0x8, addend: 0x0, symName: __ZN5boost4asio19buffer_sequence_endINS_5beast6detail11buffers_refINS2_16buffers_cat_viewIJNS0_12const_bufferES6_S6_NS2_4http12basic_fieldsINSt3__19allocatorIcEEE6writer11field_rangeENS7_10chunk_crlfEEEEEEEEDTcldtfp_3endEERT_NS0_10constraintIXaantsr14is_convertibleIPKSJ_PKNS0_14mutable_bufferEEE5valuentsr14is_convertibleISN_PKS6_EE5valueEiE4typeE, symObjAddr: 0x48BC0, symBinAddr: 0x10004BBB8, symSize: 0x30 }
  - { offsetInCU: 0xE519, offset: 0xE519, size: 0x8, addend: 0x0, symName: __ZN5boost4asio11buffer_sizeINS_5beast14buffers_suffixINS0_12const_bufferEEEEEmRKT_, symObjAddr: 0x48C50, symBinAddr: 0x10004BC48, symSize: 0x60 }
  - { offsetInCU: 0xE550, offset: 0xE550, size: 0x8, addend: 0x0, symName: __ZN5boost4asio19buffer_sequence_endINS_5beast14buffers_suffixINS0_12const_bufferEEEEEDTcldtfp_3endEERKT_NS0_10constraintIXaantsr14is_convertibleIPS8_PKNS0_14mutable_bufferEEE5valuentsr14is_convertibleISB_PKS4_EE5valueEiE4typeE, symObjAddr: 0x48D48, symBinAddr: 0x10004BD40, symSize: 0x50 }
  - { offsetInCU: 0xE592, offset: 0xE592, size: 0x8, addend: 0x0, symName: __ZN5boost4asio11buffer_sizeINS_5beast14buffers_suffixINS2_16buffers_cat_viewIJNS2_6detail11buffers_refINS4_IJNS0_12const_bufferES7_S7_NS2_4http12basic_fieldsINSt3__19allocatorIcEEE6writer11field_rangeENS8_10chunk_crlfEEEEEENS8_6detail10chunk_sizeES7_SG_S7_SG_EEEEEEEmRKT_, symObjAddr: 0x48D98, symBinAddr: 0x10004BD90, symSize: 0xA4 }
  - { offsetInCU: 0xE5C9, offset: 0xE5C9, size: 0x8, addend: 0x0, symName: __ZN5boost4asio19buffer_sequence_endINS_5beast14buffers_suffixINS2_16buffers_cat_viewIJNS2_6detail11buffers_refINS4_IJNS0_12const_bufferES7_S7_NS2_4http12basic_fieldsINSt3__19allocatorIcEEE6writer11field_rangeENS8_10chunk_crlfEEEEEENS8_6detail10chunk_sizeES7_SG_S7_SG_EEEEEEEDTcldtfp_3endEERKT_NS0_10constraintIXaantsr14is_convertibleIPSP_PKNS0_14mutable_bufferEEE5valuentsr14is_convertibleISS_PKS7_EE5valueEiE4typeE, symObjAddr: 0x48F3C, symBinAddr: 0x10004BF34, symSize: 0x38 }
  - { offsetInCU: 0xE60B, offset: 0xE60B, size: 0x8, addend: 0x0, symName: __ZN5boost4asio19buffer_sequence_endINS_5beast16buffers_cat_viewIJNS2_6detail11buffers_refINS3_IJNS0_12const_bufferES6_S6_NS2_4http12basic_fieldsINSt3__19allocatorIcEEE6writer11field_rangeENS7_10chunk_crlfEEEEEENS7_6detail10chunk_sizeES6_SF_S6_SF_EEEEEDTcldtfp_3endEERT_NS0_10constraintIXaantsr14is_convertibleIPKSM_PKNS0_14mutable_bufferEEE5valuentsr14is_convertibleISQ_PKS6_EE5valueEiE4typeE, symObjAddr: 0x48F74, symBinAddr: 0x10004BF6C, symSize: 0x38 }
  - { offsetInCU: 0xE64D, offset: 0xE64D, size: 0x8, addend: 0x0, symName: __ZN5boost4asio11buffer_sizeINS_5beast14buffers_suffixINS2_16buffers_cat_viewIJNS2_4http6detail10chunk_sizeENS0_12const_bufferENS5_10chunk_crlfES8_S9_EEEEEEEmRKT_, symObjAddr: 0x48FE0, symBinAddr: 0x10004BFD8, symSize: 0xA4 }
  - { offsetInCU: 0xE684, offset: 0xE684, size: 0x8, addend: 0x0, symName: __ZN5boost4asio19buffer_sequence_endINS_5beast14buffers_suffixINS2_16buffers_cat_viewIJNS2_4http6detail10chunk_sizeENS0_12const_bufferENS5_10chunk_crlfES8_S9_EEEEEEEDTcldtfp_3endEERKT_NS0_10constraintIXaantsr14is_convertibleIPSE_PKNS0_14mutable_bufferEEE5valuentsr14is_convertibleISH_PKS8_EE5valueEiE4typeE, symObjAddr: 0x49184, symBinAddr: 0x10004C17C, symSize: 0x38 }
  - { offsetInCU: 0xE6C6, offset: 0xE6C6, size: 0x8, addend: 0x0, symName: __ZN5boost4asio19buffer_sequence_endINS_5beast16buffers_cat_viewIJNS2_4http6detail10chunk_sizeENS0_12const_bufferENS4_10chunk_crlfES7_S8_EEEEEDTcldtfp_3endEERT_NS0_10constraintIXaantsr14is_convertibleIPKSB_PKNS0_14mutable_bufferEEE5valuentsr14is_convertibleISF_PKS7_EE5valueEiE4typeE, symObjAddr: 0x491BC, symBinAddr: 0x10004C1B4, symSize: 0x38 }
  - { offsetInCU: 0xE708, offset: 0xE708, size: 0x8, addend: 0x0, symName: __ZN5boost4asio11buffer_sizeINS_5beast14buffers_suffixINS2_16buffers_cat_viewIJNS2_4http6detail10chunk_sizeENS0_12const_bufferENS5_10chunk_crlfES8_S9_S8_S8_S9_EEEEEEEmRKT_, symObjAddr: 0x49228, symBinAddr: 0x10004C220, symSize: 0xA4 }
  - { offsetInCU: 0xE73F, offset: 0xE73F, size: 0x8, addend: 0x0, symName: __ZN5boost4asio19buffer_sequence_endINS_5beast14buffers_suffixINS2_16buffers_cat_viewIJNS2_4http6detail10chunk_sizeENS0_12const_bufferENS5_10chunk_crlfES8_S9_S8_S8_S9_EEEEEEEDTcldtfp_3endEERKT_NS0_10constraintIXaantsr14is_convertibleIPSE_PKNS0_14mutable_bufferEEE5valuentsr14is_convertibleISH_PKS8_EE5valueEiE4typeE, symObjAddr: 0x493CC, symBinAddr: 0x10004C3C4, symSize: 0x38 }
  - { offsetInCU: 0xE781, offset: 0xE781, size: 0x8, addend: 0x0, symName: __ZN5boost4asio19buffer_sequence_endINS_5beast16buffers_cat_viewIJNS2_4http6detail10chunk_sizeENS0_12const_bufferENS4_10chunk_crlfES7_S8_S7_S7_S8_EEEEEDTcldtfp_3endEERT_NS0_10constraintIXaantsr14is_convertibleIPKSB_PKNS0_14mutable_bufferEEE5valuentsr14is_convertibleISF_PKS7_EE5valueEiE4typeE, symObjAddr: 0x49404, symBinAddr: 0x10004C3FC, symSize: 0x38 }
  - { offsetInCU: 0xE7C3, offset: 0xE7C3, size: 0x8, addend: 0x0, symName: __ZN5boost4asio11buffer_sizeINS_5beast14buffers_suffixINS2_16buffers_cat_viewIJNS2_6detail11buffers_refINS4_IJNS0_12const_bufferES7_S7_NS2_4http12basic_fieldsINSt3__19allocatorIcEEE6writer11field_rangeENS8_10chunk_crlfEEEEEENS8_6detail10chunk_sizeES7_SG_S7_SG_S7_S7_SG_EEEEEEEmRKT_, symObjAddr: 0x49470, symBinAddr: 0x10004C468, symSize: 0xA4 }
  - { offsetInCU: 0xE7FA, offset: 0xE7FA, size: 0x8, addend: 0x0, symName: __ZN5boost4asio19buffer_sequence_endINS_5beast14buffers_suffixINS2_16buffers_cat_viewIJNS2_6detail11buffers_refINS4_IJNS0_12const_bufferES7_S7_NS2_4http12basic_fieldsINSt3__19allocatorIcEEE6writer11field_rangeENS8_10chunk_crlfEEEEEENS8_6detail10chunk_sizeES7_SG_S7_SG_S7_S7_SG_EEEEEEEDTcldtfp_3endEERKT_NS0_10constraintIXaantsr14is_convertibleIPSP_PKNS0_14mutable_bufferEEE5valuentsr14is_convertibleISS_PKS7_EE5valueEiE4typeE, symObjAddr: 0x49614, symBinAddr: 0x10004C60C, symSize: 0x38 }
  - { offsetInCU: 0xE83C, offset: 0xE83C, size: 0x8, addend: 0x0, symName: __ZN5boost4asio19buffer_sequence_endINS_5beast16buffers_cat_viewIJNS2_6detail11buffers_refINS3_IJNS0_12const_bufferES6_S6_NS2_4http12basic_fieldsINSt3__19allocatorIcEEE6writer11field_rangeENS7_10chunk_crlfEEEEEENS7_6detail10chunk_sizeES6_SF_S6_SF_S6_S6_SF_EEEEEDTcldtfp_3endEERT_NS0_10constraintIXaantsr14is_convertibleIPKSM_PKNS0_14mutable_bufferEEE5valuentsr14is_convertibleISQ_PKS6_EE5valueEiE4typeE, symObjAddr: 0x4964C, symBinAddr: 0x10004C644, symSize: 0x38 }
  - { offsetInCU: 0xE87E, offset: 0xE87E, size: 0x8, addend: 0x0, symName: __ZN5boost4asio11buffer_sizeINS_5beast14buffers_suffixINS2_16buffers_cat_viewIJNS0_12const_bufferES5_NS2_4http10chunk_crlfEEEEEEEEmRKT_, symObjAddr: 0x496B8, symBinAddr: 0x10004C6B0, symSize: 0xA4 }
  - { offsetInCU: 0xE8B5, offset: 0xE8B5, size: 0x8, addend: 0x0, symName: __ZN5boost4asio19buffer_sequence_endINS_5beast14buffers_suffixINS2_16buffers_cat_viewIJNS0_12const_bufferES5_NS2_4http10chunk_crlfEEEEEEEEDTcldtfp_3endEERKT_NS0_10constraintIXaantsr14is_convertibleIPSC_PKNS0_14mutable_bufferEEE5valuentsr14is_convertibleISF_PKS5_EE5valueEiE4typeE, symObjAddr: 0x4985C, symBinAddr: 0x10004C854, symSize: 0x38 }
  - { offsetInCU: 0xE8F7, offset: 0xE8F7, size: 0x8, addend: 0x0, symName: __ZN5boost4asio19buffer_sequence_endINS_5beast16buffers_cat_viewIJNS0_12const_bufferES4_NS2_4http10chunk_crlfEEEEEEDTcldtfp_3endEERT_NS0_10constraintIXaantsr14is_convertibleIPKS9_PKNS0_14mutable_bufferEEE5valuentsr14is_convertibleISD_PKS4_EE5valueEiE4typeE, symObjAddr: 0x49894, symBinAddr: 0x10004C88C, symSize: 0x38 }
  - { offsetInCU: 0xE939, offset: 0xE939, size: 0x8, addend: 0x0, symName: __ZN5boost4asio6bufferEPKvm, symObjAddr: 0x4DF18, symBinAddr: 0x100050F10, symSize: 0x38 }
  - { offsetInCU: 0xE976, offset: 0xE976, size: 0x8, addend: 0x0, symName: __ZN5boost4asio11buffer_copyINS_5beast18basic_multi_bufferINSt3__19allocatorIcEEE8subrangeILb1EEENS0_15const_buffers_1EEEmRKT_RKT0_, symObjAddr: 0x4E160, symBinAddr: 0x100051158, symSize: 0x88 }
  - { offsetInCU: 0xE9C5, offset: 0xE9C5, size: 0x8, addend: 0x0, symName: __ZN5boost4asio11buffer_sizeINS0_15const_buffers_1EEEmRKT_, symObjAddr: 0x4E760, symBinAddr: 0x100051758, symSize: 0x48 }
  - { offsetInCU: 0xE9FC, offset: 0xE9FC, size: 0x8, addend: 0x0, symName: __ZN5boost4asio21buffer_sequence_beginINS0_15const_buffers_1EEEPKNS0_12const_bufferERKT_NS0_10constraintIXsr14is_convertibleIPS7_S5_EE5valueEiE4typeE, symObjAddr: 0x4E7DC, symBinAddr: 0x1000517D4, symSize: 0x18 }
  - { offsetInCU: 0xEA3E, offset: 0xEA3E, size: 0x8, addend: 0x0, symName: __ZN5boost4asio19buffer_sequence_endINS0_15const_buffers_1EEEPKNS0_12const_bufferERKT_NS0_10constraintIXsr14is_convertibleIPS7_S5_EE5valueEiE4typeE, symObjAddr: 0x4E7F4, symBinAddr: 0x1000517EC, symSize: 0x1C }
  - { offsetInCU: 0xEA80, offset: 0xEA80, size: 0x8, addend: 0x0, symName: __ZN5boost4asio11buffer_sizeINS_5beast18basic_multi_bufferINSt3__19allocatorIcEEE8subrangeILb1EEEEEmRKT_, symObjAddr: 0x503B0, symBinAddr: 0x1000533A8, symSize: 0x54 }
  - { offsetInCU: 0xEAB7, offset: 0xEAB7, size: 0x8, addend: 0x0, symName: __ZN5boost4asio21buffer_sequence_beginINS_5beast18basic_multi_bufferINSt3__19allocatorIcEEE8subrangeILb1EEEEEDTcldtfp_5beginEERKT_NS0_10constraintIXaantsr14is_convertibleIPSC_PKNS0_14mutable_bufferEEE5valuentsr14is_convertibleISF_PKNS0_12const_bufferEEE5valueEiE4typeE, symObjAddr: 0x51D7C, symBinAddr: 0x100054D74, symSize: 0x30 }
  - { offsetInCU: 0xEAF9, offset: 0xEAF9, size: 0x8, addend: 0x0, symName: __ZN5boost4asio19buffer_sequence_endINS_5beast18basic_multi_bufferINSt3__19allocatorIcEEE8subrangeILb1EEEEEDTcldtfp_3endEERKT_NS0_10constraintIXaantsr14is_convertibleIPSC_PKNS0_14mutable_bufferEEE5valuentsr14is_convertibleISF_PKNS0_12const_bufferEEE5valueEiE4typeE, symObjAddr: 0x51DAC, symBinAddr: 0x100054DA4, symSize: 0x30 }
  - { offsetInCU: 0xEB3B, offset: 0xEB3B, size: 0x8, addend: 0x0, symName: __ZN5boost4asio6bufferERKNS0_12const_bufferEm, symObjAddr: 0x527A4, symBinAddr: 0x10005579C, symSize: 0x7C }
  - { offsetInCU: 0xEB78, offset: 0xEB78, size: 0x8, addend: 0x0, symName: __ZN5boost4asio21buffer_sequence_beginINS0_14mutable_bufferEEEPKS2_RKT_NS0_10constraintIXsr14is_convertibleIPS6_S4_EE5valueEiE4typeE, symObjAddr: 0x53B90, symBinAddr: 0x100056B88, symSize: 0x18 }
  - { offsetInCU: 0xEBBA, offset: 0xEBBA, size: 0x8, addend: 0x0, symName: __ZN5boost4asio19buffer_sequence_endINS0_14mutable_bufferEEEPKS2_RKT_NS0_10constraintIXsr14is_convertibleIPS6_S4_EE5valueEiE4typeE, symObjAddr: 0x53BA8, symBinAddr: 0x100056BA0, symSize: 0x1C }
  - { offsetInCU: 0xEBFC, offset: 0xEBFC, size: 0x8, addend: 0x0, symName: __ZN5boost4asio11buffer_copyINS0_17mutable_buffers_1ENS0_14mutable_bufferEEEmRKT_RKT0_, symObjAddr: 0x545C0, symBinAddr: 0x1000575B8, symSize: 0x74 }
  - { offsetInCU: 0xEC4B, offset: 0xEC4B, size: 0x8, addend: 0x0, symName: __ZN5boost4asio6bufferEPvm, symObjAddr: 0x54634, symBinAddr: 0x10005762C, symSize: 0x38 }
  - { offsetInCU: 0xEC88, offset: 0xEC88, size: 0x8, addend: 0x0, symName: __ZN5boost4asio11buffer_copyINS0_14mutable_bufferES2_EEmRKT_RKT0_, symObjAddr: 0x59674, symBinAddr: 0x10005C66C, symSize: 0x74 }
  - { offsetInCU: 0xECD7, offset: 0xECD7, size: 0x8, addend: 0x0, symName: __ZN5boost4asio21buffer_sequence_beginINS0_17mutable_buffers_1EEEPKNS0_14mutable_bufferERKT_NS0_10constraintIXsr14is_convertibleIPS7_S5_EE5valueEiE4typeE, symObjAddr: 0x5992C, symBinAddr: 0x10005C924, symSize: 0x18 }
  - { offsetInCU: 0xED19, offset: 0xED19, size: 0x8, addend: 0x0, symName: __ZN5boost4asio19buffer_sequence_endINS0_17mutable_buffers_1EEEPKNS0_14mutable_bufferERKT_NS0_10constraintIXsr14is_convertibleIPS7_S5_EE5valueEiE4typeE, symObjAddr: 0x59944, symBinAddr: 0x10005C93C, symSize: 0x1C }
  - { offsetInCU: 0xEDCF, offset: 0xEDCF, size: 0x8, addend: 0x0, symName: __ZN5boost4asio21buffer_sequence_beginINS_5beast16buffers_cat_viewIJNS2_6detail11buffers_refINS3_IJNS0_12const_bufferES6_S6_NS2_4http12basic_fieldsINSt3__19allocatorIcEEE6writer11field_rangeENS7_10chunk_crlfEEEEEENS2_18basic_multi_bufferISB_E8subrangeILb0EEEEEEEEDTcldtfp_5beginEERT_NS0_10constraintIXaantsr14is_convertibleIPKSO_PKNS0_14mutable_bufferEEE5valuentsr14is_convertibleISS_PKS6_EE5valueEiE4typeE, symObjAddr: 0x6107C, symBinAddr: 0x100064074, symSize: 0x38 }
  - { offsetInCU: 0xEE11, offset: 0xEE11, size: 0x8, addend: 0x0, symName: __ZN5boost4asio21buffer_sequence_beginINS_5beast18basic_multi_bufferINSt3__19allocatorIcEEE8subrangeILb0EEEEEDTcldtfp_5beginEERKT_NS0_10constraintIXaantsr14is_convertibleIPSC_PKNS0_14mutable_bufferEEE5valuentsr14is_convertibleISF_PKNS0_12const_bufferEEE5valueEiE4typeE, symObjAddr: 0x615E8, symBinAddr: 0x1000645E0, symSize: 0x30 }
  - { offsetInCU: 0xEE53, offset: 0xEE53, size: 0x8, addend: 0x0, symName: __ZN5boost4asio19buffer_sequence_endINS_5beast18basic_multi_bufferINSt3__19allocatorIcEEE8subrangeILb0EEEEEDTcldtfp_3endEERKT_NS0_10constraintIXaantsr14is_convertibleIPSC_PKNS0_14mutable_bufferEEE5valuentsr14is_convertibleISF_PKNS0_12const_bufferEEE5valueEiE4typeE, symObjAddr: 0x61A10, symBinAddr: 0x100064A08, symSize: 0x30 }
  - { offsetInCU: 0xEE95, offset: 0xEE95, size: 0x8, addend: 0x0, symName: __ZN5boost4asio21buffer_sequence_beginINS_5beast14buffers_suffixINS2_16buffers_cat_viewIJNS2_6detail11buffers_refINS4_IJNS0_12const_bufferES7_S7_NS2_4http12basic_fieldsINSt3__19allocatorIcEEE6writer11field_rangeENS8_10chunk_crlfEEEEEENS2_18basic_multi_bufferISC_E8subrangeILb0EEEEEEEEEEDTcldtfp_5beginEERKT_NS0_10constraintIXaantsr14is_convertibleIPSR_PKNS0_14mutable_bufferEEE5valuentsr14is_convertibleISU_PKS7_EE5valueEiE4typeE, symObjAddr: 0x62FC4, symBinAddr: 0x100065FBC, symSize: 0x38 }
  - { offsetInCU: 0xEED7, offset: 0xEED7, size: 0x8, addend: 0x0, symName: __ZN5boost4asio19buffer_sequence_endINS_5beast16buffers_cat_viewIJNS2_6detail11buffers_refINS3_IJNS0_12const_bufferES6_S6_NS2_4http12basic_fieldsINSt3__19allocatorIcEEE6writer11field_rangeENS7_10chunk_crlfEEEEEENS2_18basic_multi_bufferISB_E8subrangeILb0EEEEEEEEDTcldtfp_3endEERKT_NS0_10constraintIXaantsr14is_convertibleIPSP_PKNS0_14mutable_bufferEEE5valuentsr14is_convertibleISS_PKS6_EE5valueEiE4typeE, symObjAddr: 0x63790, symBinAddr: 0x100066788, symSize: 0x38 }
  - { offsetInCU: 0xEF19, offset: 0xEF19, size: 0x8, addend: 0x0, symName: __ZN5boost4asio21buffer_sequence_beginINS_5beast6detail11buffers_refINS2_19buffers_prefix_viewIRKNS2_14buffers_suffixINS2_16buffers_cat_viewIJNS4_INS7_IJNS0_12const_bufferES8_S8_NS2_4http12basic_fieldsINSt3__19allocatorIcEEE6writer11field_rangeENS9_10chunk_crlfEEEEEENS2_18basic_multi_bufferISD_E8subrangeILb0EEEEEEEEEEEEEEDTcldtfp_5beginEERKT_NS0_10constraintIXaantsr14is_convertibleIPSW_PKNS0_14mutable_bufferEEE5valuentsr14is_convertibleISZ_PKS8_EE5valueEiE4typeE, symObjAddr: 0x64CF0, symBinAddr: 0x100067CE8, symSize: 0x38 }
  - { offsetInCU: 0xEF5B, offset: 0xEF5B, size: 0x8, addend: 0x0, symName: __ZN5boost4asio21buffer_sequence_beginINS_5beast19buffers_prefix_viewIRKNS2_14buffers_suffixINS2_16buffers_cat_viewIJNS2_6detail11buffers_refINS5_IJNS0_12const_bufferES8_S8_NS2_4http12basic_fieldsINSt3__19allocatorIcEEE6writer11field_rangeENS9_10chunk_crlfEEEEEENS2_18basic_multi_bufferISD_E8subrangeILb0EEEEEEEEEEEEDTcldtfp_5beginEERKT_NS0_10constraintIXaantsr14is_convertibleIPSV_PKNS0_14mutable_bufferEEE5valuentsr14is_convertibleISY_PKS8_EE5valueEiE4typeE, symObjAddr: 0x64DBC, symBinAddr: 0x100067DB4, symSize: 0x38 }
  - { offsetInCU: 0xEF9D, offset: 0xEF9D, size: 0x8, addend: 0x0, symName: __ZN5boost4asio19buffer_sequence_endINS_5beast6detail11buffers_refINS2_19buffers_prefix_viewIRKNS2_14buffers_suffixINS2_16buffers_cat_viewIJNS4_INS7_IJNS0_12const_bufferES8_S8_NS2_4http12basic_fieldsINSt3__19allocatorIcEEE6writer11field_rangeENS9_10chunk_crlfEEEEEENS2_18basic_multi_bufferISD_E8subrangeILb0EEEEEEEEEEEEEEDTcldtfp_3endEERKT_NS0_10constraintIXaantsr14is_convertibleIPSW_PKNS0_14mutable_bufferEEE5valuentsr14is_convertibleISZ_PKS8_EE5valueEiE4typeE, symObjAddr: 0x64F94, symBinAddr: 0x100067F8C, symSize: 0x38 }
  - { offsetInCU: 0xEFDF, offset: 0xEFDF, size: 0x8, addend: 0x0, symName: __ZN5boost4asio19buffer_sequence_endINS_5beast19buffers_prefix_viewIRKNS2_14buffers_suffixINS2_16buffers_cat_viewIJNS2_6detail11buffers_refINS5_IJNS0_12const_bufferES8_S8_NS2_4http12basic_fieldsINSt3__19allocatorIcEEE6writer11field_rangeENS9_10chunk_crlfEEEEEENS2_18basic_multi_bufferISD_E8subrangeILb0EEEEEEEEEEEEDTcldtfp_3endEERKT_NS0_10constraintIXaantsr14is_convertibleIPSV_PKNS0_14mutable_bufferEEE5valuentsr14is_convertibleISY_PKS8_EE5valueEiE4typeE, symObjAddr: 0x65000, symBinAddr: 0x100067FF8, symSize: 0x38 }
  - { offsetInCU: 0xF021, offset: 0xF021, size: 0x8, addend: 0x0, symName: __ZN5boost4asio11buffer_sizeINS_5beast14buffers_suffixINS2_16buffers_cat_viewIJNS2_6detail11buffers_refINS4_IJNS0_12const_bufferES7_S7_NS2_4http12basic_fieldsINSt3__19allocatorIcEEE6writer11field_rangeENS8_10chunk_crlfEEEEEENS2_18basic_multi_bufferISC_E8subrangeILb0EEEEEEEEEEmRKT_, symObjAddr: 0x65FC8, symBinAddr: 0x100068FC0, symSize: 0xA4 }
  - { offsetInCU: 0xF058, offset: 0xF058, size: 0x8, addend: 0x0, symName: __ZN5boost4asio19buffer_sequence_endINS_5beast14buffers_suffixINS2_16buffers_cat_viewIJNS2_6detail11buffers_refINS4_IJNS0_12const_bufferES7_S7_NS2_4http12basic_fieldsINSt3__19allocatorIcEEE6writer11field_rangeENS8_10chunk_crlfEEEEEENS2_18basic_multi_bufferISC_E8subrangeILb0EEEEEEEEEEDTcldtfp_3endEERKT_NS0_10constraintIXaantsr14is_convertibleIPSR_PKNS0_14mutable_bufferEEE5valuentsr14is_convertibleISU_PKS7_EE5valueEiE4typeE, symObjAddr: 0x6616C, symBinAddr: 0x100069164, symSize: 0x38 }
  - { offsetInCU: 0xF09A, offset: 0xF09A, size: 0x8, addend: 0x0, symName: __ZN5boost4asio19buffer_sequence_endINS_5beast16buffers_cat_viewIJNS2_6detail11buffers_refINS3_IJNS0_12const_bufferES6_S6_NS2_4http12basic_fieldsINSt3__19allocatorIcEEE6writer11field_rangeENS7_10chunk_crlfEEEEEENS2_18basic_multi_bufferISB_E8subrangeILb0EEEEEEEEDTcldtfp_3endEERT_NS0_10constraintIXaantsr14is_convertibleIPKSO_PKNS0_14mutable_bufferEEE5valuentsr14is_convertibleISS_PKS6_EE5valueEiE4typeE, symObjAddr: 0x661A4, symBinAddr: 0x10006919C, symSize: 0x38 }
  - { offsetInCU: 0xF0DC, offset: 0xF0DC, size: 0x8, addend: 0x0, symName: __ZN5boost4asio11buffer_sizeINS_5beast14buffers_suffixINS2_18basic_multi_bufferINSt3__19allocatorIcEEE8subrangeILb0EEEEEEEmRKT_, symObjAddr: 0x66210, symBinAddr: 0x100069208, symSize: 0x54 }
  - { offsetInCU: 0xF113, offset: 0xF113, size: 0x8, addend: 0x0, symName: __ZN5boost4asio21buffer_sequence_beginINS_5beast14buffers_suffixINS2_18basic_multi_bufferINSt3__19allocatorIcEEE8subrangeILb0EEEEEEEDTcldtfp_5beginEERKT_NS0_10constraintIXaantsr14is_convertibleIPSE_PKNS0_14mutable_bufferEEE5valuentsr14is_convertibleISH_PKNS0_12const_bufferEEE5valueEiE4typeE, symObjAddr: 0x66320, symBinAddr: 0x100069318, symSize: 0x38 }
  - { offsetInCU: 0xF155, offset: 0xF155, size: 0x8, addend: 0x0, symName: __ZN5boost4asio19buffer_sequence_endINS_5beast14buffers_suffixINS2_18basic_multi_bufferINSt3__19allocatorIcEEE8subrangeILb0EEEEEEEDTcldtfp_3endEERKT_NS0_10constraintIXaantsr14is_convertibleIPSE_PKNS0_14mutable_bufferEEE5valuentsr14is_convertibleISH_PKNS0_12const_bufferEEE5valueEiE4typeE, symObjAddr: 0x66358, symBinAddr: 0x100069350, symSize: 0x38 }
  - { offsetInCU: 0xF197, offset: 0xF197, size: 0x8, addend: 0x0, symName: __ZN5boost4asio19buffer_sequence_endINS_5beast18basic_multi_bufferINSt3__19allocatorIcEEE8subrangeILb0EEEEEDTcldtfp_3endEERT_NS0_10constraintIXaantsr14is_convertibleIPKSB_PKNS0_14mutable_bufferEEE5valuentsr14is_convertibleISF_PKNS0_12const_bufferEEE5valueEiE4typeE, symObjAddr: 0x66670, symBinAddr: 0x100069668, symSize: 0x30 }
  - { offsetInCU: 0xF1D9, offset: 0xF1D9, size: 0x8, addend: 0x0, symName: __ZN5boost4asio11buffer_sizeINS_5beast14buffers_suffixINS2_16buffers_cat_viewIJNS2_6detail11buffers_refINS4_IJNS0_12const_bufferES7_S7_NS2_4http12basic_fieldsINSt3__19allocatorIcEEE6writer11field_rangeENS8_10chunk_crlfEEEEEENS8_6detail10chunk_sizeES7_SG_NS2_18basic_multi_bufferISC_E8subrangeILb0EEESG_EEEEEEEmRKT_, symObjAddr: 0x666D4, symBinAddr: 0x1000696CC, symSize: 0xA4 }
  - { offsetInCU: 0xF210, offset: 0xF210, size: 0x8, addend: 0x0, symName: __ZN5boost4asio21buffer_sequence_beginINS_5beast14buffers_suffixINS2_16buffers_cat_viewIJNS2_6detail11buffers_refINS4_IJNS0_12const_bufferES7_S7_NS2_4http12basic_fieldsINSt3__19allocatorIcEEE6writer11field_rangeENS8_10chunk_crlfEEEEEENS8_6detail10chunk_sizeES7_SG_NS2_18basic_multi_bufferISC_E8subrangeILb0EEESG_EEEEEEEDTcldtfp_5beginEERKT_NS0_10constraintIXaantsr14is_convertibleIPST_PKNS0_14mutable_bufferEEE5valuentsr14is_convertibleISW_PKS7_EE5valueEiE4typeE, symObjAddr: 0x66878, symBinAddr: 0x100069870, symSize: 0x38 }
  - { offsetInCU: 0xF252, offset: 0xF252, size: 0x8, addend: 0x0, symName: __ZN5boost4asio19buffer_sequence_endINS_5beast14buffers_suffixINS2_16buffers_cat_viewIJNS2_6detail11buffers_refINS4_IJNS0_12const_bufferES7_S7_NS2_4http12basic_fieldsINSt3__19allocatorIcEEE6writer11field_rangeENS8_10chunk_crlfEEEEEENS8_6detail10chunk_sizeES7_SG_NS2_18basic_multi_bufferISC_E8subrangeILb0EEESG_EEEEEEEDTcldtfp_3endEERKT_NS0_10constraintIXaantsr14is_convertibleIPST_PKNS0_14mutable_bufferEEE5valuentsr14is_convertibleISW_PKS7_EE5valueEiE4typeE, symObjAddr: 0x668B0, symBinAddr: 0x1000698A8, symSize: 0x38 }
  - { offsetInCU: 0xF294, offset: 0xF294, size: 0x8, addend: 0x0, symName: __ZN5boost4asio19buffer_sequence_endINS_5beast16buffers_cat_viewIJNS2_6detail11buffers_refINS3_IJNS0_12const_bufferES6_S6_NS2_4http12basic_fieldsINSt3__19allocatorIcEEE6writer11field_rangeENS7_10chunk_crlfEEEEEENS7_6detail10chunk_sizeES6_SF_NS2_18basic_multi_bufferISB_E8subrangeILb0EEESF_EEEEEDTcldtfp_3endEERKT_NS0_10constraintIXaantsr14is_convertibleIPSR_PKNS0_14mutable_bufferEEE5valuentsr14is_convertibleISU_PKS6_EE5valueEiE4typeE, symObjAddr: 0x68A68, symBinAddr: 0x10006BA60, symSize: 0x38 }
  - { offsetInCU: 0xF2D6, offset: 0xF2D6, size: 0x8, addend: 0x0, symName: __ZN5boost4asio19buffer_sequence_endINS_5beast16buffers_cat_viewIJNS2_6detail11buffers_refINS3_IJNS0_12const_bufferES6_S6_NS2_4http12basic_fieldsINSt3__19allocatorIcEEE6writer11field_rangeENS7_10chunk_crlfEEEEEENS7_6detail10chunk_sizeES6_SF_NS2_18basic_multi_bufferISB_E8subrangeILb0EEESF_EEEEEDTcldtfp_3endEERT_NS0_10constraintIXaantsr14is_convertibleIPKSQ_PKNS0_14mutable_bufferEEE5valuentsr14is_convertibleISU_PKS6_EE5valueEiE4typeE, symObjAddr: 0x68BA4, symBinAddr: 0x10006BB9C, symSize: 0x38 }
  - { offsetInCU: 0xF318, offset: 0xF318, size: 0x8, addend: 0x0, symName: __ZN5boost4asio11buffer_sizeINS_5beast14buffers_suffixINS2_16buffers_cat_viewIJNS2_4http6detail10chunk_sizeENS0_12const_bufferENS5_10chunk_crlfENS2_18basic_multi_bufferINSt3__19allocatorIcEEE8subrangeILb0EEES9_EEEEEEEmRKT_, symObjAddr: 0x68C10, symBinAddr: 0x10006BC08, symSize: 0xA4 }
  - { offsetInCU: 0xF34F, offset: 0xF34F, size: 0x8, addend: 0x0, symName: __ZN5boost4asio21buffer_sequence_beginINS_5beast14buffers_suffixINS2_16buffers_cat_viewIJNS2_4http6detail10chunk_sizeENS0_12const_bufferENS5_10chunk_crlfENS2_18basic_multi_bufferINSt3__19allocatorIcEEE8subrangeILb0EEES9_EEEEEEEDTcldtfp_5beginEERKT_NS0_10constraintIXaantsr14is_convertibleIPSL_PKNS0_14mutable_bufferEEE5valuentsr14is_convertibleISO_PKS8_EE5valueEiE4typeE, symObjAddr: 0x68DB4, symBinAddr: 0x10006BDAC, symSize: 0x38 }
  - { offsetInCU: 0xF391, offset: 0xF391, size: 0x8, addend: 0x0, symName: __ZN5boost4asio19buffer_sequence_endINS_5beast14buffers_suffixINS2_16buffers_cat_viewIJNS2_4http6detail10chunk_sizeENS0_12const_bufferENS5_10chunk_crlfENS2_18basic_multi_bufferINSt3__19allocatorIcEEE8subrangeILb0EEES9_EEEEEEEDTcldtfp_3endEERKT_NS0_10constraintIXaantsr14is_convertibleIPSL_PKNS0_14mutable_bufferEEE5valuentsr14is_convertibleISO_PKS8_EE5valueEiE4typeE, symObjAddr: 0x68DEC, symBinAddr: 0x10006BDE4, symSize: 0x38 }
  - { offsetInCU: 0xF3D3, offset: 0xF3D3, size: 0x8, addend: 0x0, symName: __ZN5boost4asio19buffer_sequence_endINS_5beast16buffers_cat_viewIJNS2_4http6detail10chunk_sizeENS0_12const_bufferENS4_10chunk_crlfENS2_18basic_multi_bufferINSt3__19allocatorIcEEE8subrangeILb0EEES8_EEEEEDTcldtfp_3endEERKT_NS0_10constraintIXaantsr14is_convertibleIPSJ_PKNS0_14mutable_bufferEEE5valuentsr14is_convertibleISM_PKS7_EE5valueEiE4typeE, symObjAddr: 0x6AC28, symBinAddr: 0x10006DC20, symSize: 0x38 }
  - { offsetInCU: 0xF415, offset: 0xF415, size: 0x8, addend: 0x0, symName: __ZN5boost4asio19buffer_sequence_endINS_5beast16buffers_cat_viewIJNS2_4http6detail10chunk_sizeENS0_12const_bufferENS4_10chunk_crlfENS2_18basic_multi_bufferINSt3__19allocatorIcEEE8subrangeILb0EEES8_EEEEEDTcldtfp_3endEERT_NS0_10constraintIXaantsr14is_convertibleIPKSI_PKNS0_14mutable_bufferEEE5valuentsr14is_convertibleISM_PKS7_EE5valueEiE4typeE, symObjAddr: 0x6AD64, symBinAddr: 0x10006DD5C, symSize: 0x38 }
  - { offsetInCU: 0xF457, offset: 0xF457, size: 0x8, addend: 0x0, symName: __ZN5boost4asio11buffer_sizeINS_5beast14buffers_suffixINS2_16buffers_cat_viewIJNS2_4http6detail10chunk_sizeENS0_12const_bufferENS5_10chunk_crlfENS2_18basic_multi_bufferINSt3__19allocatorIcEEE8subrangeILb0EEES9_S8_S8_S9_EEEEEEEmRKT_, symObjAddr: 0x6ADD0, symBinAddr: 0x10006DDC8, symSize: 0xA4 }
  - { offsetInCU: 0xF48E, offset: 0xF48E, size: 0x8, addend: 0x0, symName: __ZN5boost4asio21buffer_sequence_beginINS_5beast14buffers_suffixINS2_16buffers_cat_viewIJNS2_4http6detail10chunk_sizeENS0_12const_bufferENS5_10chunk_crlfENS2_18basic_multi_bufferINSt3__19allocatorIcEEE8subrangeILb0EEES9_S8_S8_S9_EEEEEEEDTcldtfp_5beginEERKT_NS0_10constraintIXaantsr14is_convertibleIPSL_PKNS0_14mutable_bufferEEE5valuentsr14is_convertibleISO_PKS8_EE5valueEiE4typeE, symObjAddr: 0x6AF74, symBinAddr: 0x10006DF6C, symSize: 0x38 }
  - { offsetInCU: 0xF4D0, offset: 0xF4D0, size: 0x8, addend: 0x0, symName: __ZN5boost4asio19buffer_sequence_endINS_5beast14buffers_suffixINS2_16buffers_cat_viewIJNS2_4http6detail10chunk_sizeENS0_12const_bufferENS5_10chunk_crlfENS2_18basic_multi_bufferINSt3__19allocatorIcEEE8subrangeILb0EEES9_S8_S8_S9_EEEEEEEDTcldtfp_3endEERKT_NS0_10constraintIXaantsr14is_convertibleIPSL_PKNS0_14mutable_bufferEEE5valuentsr14is_convertibleISO_PKS8_EE5valueEiE4typeE, symObjAddr: 0x6AFAC, symBinAddr: 0x10006DFA4, symSize: 0x38 }
  - { offsetInCU: 0xF512, offset: 0xF512, size: 0x8, addend: 0x0, symName: __ZN5boost4asio19buffer_sequence_endINS_5beast16buffers_cat_viewIJNS2_4http6detail10chunk_sizeENS0_12const_bufferENS4_10chunk_crlfENS2_18basic_multi_bufferINSt3__19allocatorIcEEE8subrangeILb0EEES8_S7_S7_S8_EEEEEDTcldtfp_3endEERKT_NS0_10constraintIXaantsr14is_convertibleIPSJ_PKNS0_14mutable_bufferEEE5valuentsr14is_convertibleISM_PKS7_EE5valueEiE4typeE, symObjAddr: 0x6D824, symBinAddr: 0x10007081C, symSize: 0x38 }
  - { offsetInCU: 0xF554, offset: 0xF554, size: 0x8, addend: 0x0, symName: __ZN5boost4asio19buffer_sequence_endINS_5beast16buffers_cat_viewIJNS2_4http6detail10chunk_sizeENS0_12const_bufferENS4_10chunk_crlfENS2_18basic_multi_bufferINSt3__19allocatorIcEEE8subrangeILb0EEES8_S7_S7_S8_EEEEEDTcldtfp_3endEERT_NS0_10constraintIXaantsr14is_convertibleIPKSI_PKNS0_14mutable_bufferEEE5valuentsr14is_convertibleISM_PKS7_EE5valueEiE4typeE, symObjAddr: 0x6D960, symBinAddr: 0x100070958, symSize: 0x38 }
  - { offsetInCU: 0xF596, offset: 0xF596, size: 0x8, addend: 0x0, symName: __ZN5boost4asio11buffer_sizeINS_5beast14buffers_suffixINS2_16buffers_cat_viewIJNS2_6detail11buffers_refINS4_IJNS0_12const_bufferES7_S7_NS2_4http12basic_fieldsINSt3__19allocatorIcEEE6writer11field_rangeENS8_10chunk_crlfEEEEEENS8_6detail10chunk_sizeES7_SG_NS2_18basic_multi_bufferISC_E8subrangeILb0EEESG_S7_S7_SG_EEEEEEEmRKT_, symObjAddr: 0x6D9CC, symBinAddr: 0x1000709C4, symSize: 0xA4 }
  - { offsetInCU: 0xF5CD, offset: 0xF5CD, size: 0x8, addend: 0x0, symName: __ZN5boost4asio21buffer_sequence_beginINS_5beast14buffers_suffixINS2_16buffers_cat_viewIJNS2_6detail11buffers_refINS4_IJNS0_12const_bufferES7_S7_NS2_4http12basic_fieldsINSt3__19allocatorIcEEE6writer11field_rangeENS8_10chunk_crlfEEEEEENS8_6detail10chunk_sizeES7_SG_NS2_18basic_multi_bufferISC_E8subrangeILb0EEESG_S7_S7_SG_EEEEEEEDTcldtfp_5beginEERKT_NS0_10constraintIXaantsr14is_convertibleIPST_PKNS0_14mutable_bufferEEE5valuentsr14is_convertibleISW_PKS7_EE5valueEiE4typeE, symObjAddr: 0x6DB70, symBinAddr: 0x100070B68, symSize: 0x38 }
  - { offsetInCU: 0xF60F, offset: 0xF60F, size: 0x8, addend: 0x0, symName: __ZN5boost4asio19buffer_sequence_endINS_5beast14buffers_suffixINS2_16buffers_cat_viewIJNS2_6detail11buffers_refINS4_IJNS0_12const_bufferES7_S7_NS2_4http12basic_fieldsINSt3__19allocatorIcEEE6writer11field_rangeENS8_10chunk_crlfEEEEEENS8_6detail10chunk_sizeES7_SG_NS2_18basic_multi_bufferISC_E8subrangeILb0EEESG_S7_S7_SG_EEEEEEEDTcldtfp_3endEERKT_NS0_10constraintIXaantsr14is_convertibleIPST_PKNS0_14mutable_bufferEEE5valuentsr14is_convertibleISW_PKS7_EE5valueEiE4typeE, symObjAddr: 0x6DBA8, symBinAddr: 0x100070BA0, symSize: 0x38 }
  - { offsetInCU: 0xF651, offset: 0xF651, size: 0x8, addend: 0x0, symName: __ZN5boost4asio19buffer_sequence_endINS_5beast16buffers_cat_viewIJNS2_6detail11buffers_refINS3_IJNS0_12const_bufferES6_S6_NS2_4http12basic_fieldsINSt3__19allocatorIcEEE6writer11field_rangeENS7_10chunk_crlfEEEEEENS7_6detail10chunk_sizeES6_SF_NS2_18basic_multi_bufferISB_E8subrangeILb0EEESF_S6_S6_SF_EEEEEDTcldtfp_3endEERKT_NS0_10constraintIXaantsr14is_convertibleIPSR_PKNS0_14mutable_bufferEEE5valuentsr14is_convertibleISU_PKS6_EE5valueEiE4typeE, symObjAddr: 0x70808, symBinAddr: 0x100073800, symSize: 0x38 }
  - { offsetInCU: 0xF693, offset: 0xF693, size: 0x8, addend: 0x0, symName: __ZN5boost4asio19buffer_sequence_endINS_5beast16buffers_cat_viewIJNS2_6detail11buffers_refINS3_IJNS0_12const_bufferES6_S6_NS2_4http12basic_fieldsINSt3__19allocatorIcEEE6writer11field_rangeENS7_10chunk_crlfEEEEEENS7_6detail10chunk_sizeES6_SF_NS2_18basic_multi_bufferISB_E8subrangeILb0EEESF_S6_S6_SF_EEEEEDTcldtfp_3endEERT_NS0_10constraintIXaantsr14is_convertibleIPKSQ_PKNS0_14mutable_bufferEEE5valuentsr14is_convertibleISU_PKS6_EE5valueEiE4typeE, symObjAddr: 0x70944, symBinAddr: 0x10007393C, symSize: 0x38 }
  - { offsetInCU: 0xF6D5, offset: 0xF6D5, size: 0x8, addend: 0x0, symName: __ZN5boost4asio21buffer_sequence_beginINS_5beast18basic_multi_bufferINSt3__19allocatorIcEEE8subrangeILb0EEEEEDTcldtfp_5beginEERT_NS0_10constraintIXaantsr14is_convertibleIPKSB_PKNS0_14mutable_bufferEEE5valuentsr14is_convertibleISF_PKNS0_12const_bufferEEE5valueEiE4typeE, symObjAddr: 0x71084, symBinAddr: 0x10007407C, symSize: 0x30 }
  - { offsetInCU: 0xF717, offset: 0xF717, size: 0x8, addend: 0x0, symName: __ZN5boost4asio21buffer_sequence_beginINS_5beast6detail11buffers_refINS2_19buffers_prefix_viewIRKNS2_14buffers_suffixINS2_18basic_multi_bufferINSt3__19allocatorIcEEE8subrangeILb0EEEEEEEEEEEDTcldtfp_5beginEERKT_NS0_10constraintIXaantsr14is_convertibleIPSL_PKNS0_14mutable_bufferEEE5valuentsr14is_convertibleISO_PKNS0_12const_bufferEEE5valueEiE4typeE, symObjAddr: 0x71814, symBinAddr: 0x10007480C, symSize: 0x38 }
  - { offsetInCU: 0xF759, offset: 0xF759, size: 0x8, addend: 0x0, symName: __ZN5boost4asio21buffer_sequence_beginINS_5beast19buffers_prefix_viewIRKNS2_14buffers_suffixINS2_18basic_multi_bufferINSt3__19allocatorIcEEE8subrangeILb0EEEEEEEEEDTcldtfp_5beginEERKT_NS0_10constraintIXaantsr14is_convertibleIPSI_PKNS0_14mutable_bufferEEE5valuentsr14is_convertibleISL_PKNS0_12const_bufferEEE5valueEiE4typeE, symObjAddr: 0x718B4, symBinAddr: 0x1000748AC, symSize: 0x38 }
  - { offsetInCU: 0xF79B, offset: 0xF79B, size: 0x8, addend: 0x0, symName: __ZN5boost4asio19buffer_sequence_endINS_5beast6detail11buffers_refINS2_19buffers_prefix_viewIRKNS2_14buffers_suffixINS2_18basic_multi_bufferINSt3__19allocatorIcEEE8subrangeILb0EEEEEEEEEEEDTcldtfp_3endEERKT_NS0_10constraintIXaantsr14is_convertibleIPSL_PKNS0_14mutable_bufferEEE5valuentsr14is_convertibleISO_PKNS0_12const_bufferEEE5valueEiE4typeE, symObjAddr: 0x71A5C, symBinAddr: 0x100074A54, symSize: 0x38 }
  - { offsetInCU: 0xF7DD, offset: 0xF7DD, size: 0x8, addend: 0x0, symName: __ZN5boost4asio19buffer_sequence_endINS_5beast19buffers_prefix_viewIRKNS2_14buffers_suffixINS2_18basic_multi_bufferINSt3__19allocatorIcEEE8subrangeILb0EEEEEEEEEDTcldtfp_3endEERKT_NS0_10constraintIXaantsr14is_convertibleIPSI_PKNS0_14mutable_bufferEEE5valuentsr14is_convertibleISL_PKNS0_12const_bufferEEE5valueEiE4typeE, symObjAddr: 0x71AC8, symBinAddr: 0x100074AC0, symSize: 0x38 }
  - { offsetInCU: 0xF81F, offset: 0xF81F, size: 0x8, addend: 0x0, symName: __ZN5boost4asio21buffer_sequence_beginINS_5beast16buffers_cat_viewIJNS2_6detail11buffers_refINS3_IJNS0_12const_bufferES6_S6_NS2_4http12basic_fieldsINSt3__19allocatorIcEEE6writer11field_rangeENS7_10chunk_crlfEEEEEENS7_6detail10chunk_sizeES6_SF_NS2_18basic_multi_bufferISB_E8subrangeILb0EEESF_S6_S6_SF_EEEEEDTcldtfp_5beginEERT_NS0_10constraintIXaantsr14is_convertibleIPKSQ_PKNS0_14mutable_bufferEEE5valuentsr14is_convertibleISU_PKS6_EE5valueEiE4typeE, symObjAddr: 0x71FA4, symBinAddr: 0x100074F9C, symSize: 0x38 }
  - { offsetInCU: 0xF861, offset: 0xF861, size: 0x8, addend: 0x0, symName: __ZN5boost4asio11buffer_sizeINS_5beast18basic_multi_bufferINSt3__19allocatorIcEEE8subrangeILb0EEEEEmRKT_, symObjAddr: 0x72454, symBinAddr: 0x10007544C, symSize: 0x54 }
  - { offsetInCU: 0xF898, offset: 0xF898, size: 0x8, addend: 0x0, symName: __ZN5boost4asio21buffer_sequence_beginINS_5beast16buffers_cat_viewIJNS2_6detail11buffers_refINS3_IJNS0_12const_bufferES6_S6_NS2_4http12basic_fieldsINSt3__19allocatorIcEEE6writer11field_rangeENS7_10chunk_crlfEEEEEENS7_6detail10chunk_sizeES6_SF_NS2_18basic_multi_bufferISB_E8subrangeILb0EEESF_EEEEEDTcldtfp_5beginEERT_NS0_10constraintIXaantsr14is_convertibleIPKSQ_PKNS0_14mutable_bufferEEE5valuentsr14is_convertibleISU_PKS6_EE5valueEiE4typeE, symObjAddr: 0x726B8, symBinAddr: 0x1000756B0, symSize: 0x38 }
  - { offsetInCU: 0xF8DA, offset: 0xF8DA, size: 0x8, addend: 0x0, symName: __ZN5boost4asio21buffer_sequence_beginINS_5beast6detail11buffers_refINS2_19buffers_prefix_viewIRKNS2_14buffers_suffixINS2_16buffers_cat_viewIJNS4_INS7_IJNS0_12const_bufferES8_S8_NS2_4http12basic_fieldsINSt3__19allocatorIcEEE6writer11field_rangeENS9_10chunk_crlfEEEEEENS9_6detail10chunk_sizeES8_SH_NS2_18basic_multi_bufferISD_E8subrangeILb0EEESH_EEEEEEEEEEEDTcldtfp_5beginEERKT_NS0_10constraintIXaantsr14is_convertibleIPSY_PKNS0_14mutable_bufferEEE5valuentsr14is_convertibleIS11_PKS8_EE5valueEiE4typeE, symObjAddr: 0x73500, symBinAddr: 0x1000764F8, symSize: 0x38 }
  - { offsetInCU: 0xF91C, offset: 0xF91C, size: 0x8, addend: 0x0, symName: __ZN5boost4asio21buffer_sequence_beginINS_5beast19buffers_prefix_viewIRKNS2_14buffers_suffixINS2_16buffers_cat_viewIJNS2_6detail11buffers_refINS5_IJNS0_12const_bufferES8_S8_NS2_4http12basic_fieldsINSt3__19allocatorIcEEE6writer11field_rangeENS9_10chunk_crlfEEEEEENS9_6detail10chunk_sizeES8_SH_NS2_18basic_multi_bufferISD_E8subrangeILb0EEESH_EEEEEEEEEDTcldtfp_5beginEERKT_NS0_10constraintIXaantsr14is_convertibleIPSX_PKNS0_14mutable_bufferEEE5valuentsr14is_convertibleIS10_PKS8_EE5valueEiE4typeE, symObjAddr: 0x735CC, symBinAddr: 0x1000765C4, symSize: 0x38 }
  - { offsetInCU: 0xF95E, offset: 0xF95E, size: 0x8, addend: 0x0, symName: __ZN5boost4asio19buffer_sequence_endINS_5beast6detail11buffers_refINS2_19buffers_prefix_viewIRKNS2_14buffers_suffixINS2_16buffers_cat_viewIJNS4_INS7_IJNS0_12const_bufferES8_S8_NS2_4http12basic_fieldsINSt3__19allocatorIcEEE6writer11field_rangeENS9_10chunk_crlfEEEEEENS9_6detail10chunk_sizeES8_SH_NS2_18basic_multi_bufferISD_E8subrangeILb0EEESH_EEEEEEEEEEEDTcldtfp_3endEERKT_NS0_10constraintIXaantsr14is_convertibleIPSY_PKNS0_14mutable_bufferEEE5valuentsr14is_convertibleIS11_PKS8_EE5valueEiE4typeE, symObjAddr: 0x737A4, symBinAddr: 0x10007679C, symSize: 0x38 }
  - { offsetInCU: 0xF9A0, offset: 0xF9A0, size: 0x8, addend: 0x0, symName: __ZN5boost4asio19buffer_sequence_endINS_5beast19buffers_prefix_viewIRKNS2_14buffers_suffixINS2_16buffers_cat_viewIJNS2_6detail11buffers_refINS5_IJNS0_12const_bufferES8_S8_NS2_4http12basic_fieldsINSt3__19allocatorIcEEE6writer11field_rangeENS9_10chunk_crlfEEEEEENS9_6detail10chunk_sizeES8_SH_NS2_18basic_multi_bufferISD_E8subrangeILb0EEESH_EEEEEEEEEDTcldtfp_3endEERKT_NS0_10constraintIXaantsr14is_convertibleIPSX_PKNS0_14mutable_bufferEEE5valuentsr14is_convertibleIS10_PKS8_EE5valueEiE4typeE, symObjAddr: 0x73810, symBinAddr: 0x100076808, symSize: 0x38 }
  - { offsetInCU: 0xF9E2, offset: 0xF9E2, size: 0x8, addend: 0x0, symName: __ZN5boost4asio21buffer_sequence_beginINS_5beast16buffers_cat_viewIJNS2_4http6detail10chunk_sizeENS0_12const_bufferENS4_10chunk_crlfENS2_18basic_multi_bufferINSt3__19allocatorIcEEE8subrangeILb0EEES8_S7_S7_S8_EEEEEDTcldtfp_5beginEERT_NS0_10constraintIXaantsr14is_convertibleIPKSI_PKNS0_14mutable_bufferEEE5valuentsr14is_convertibleISM_PKS7_EE5valueEiE4typeE, symObjAddr: 0x73D54, symBinAddr: 0x100076D4C, symSize: 0x38 }
  - { offsetInCU: 0xFA24, offset: 0xFA24, size: 0x8, addend: 0x0, symName: __ZN5boost4asio21buffer_sequence_beginINS_5beast16buffers_cat_viewIJNS2_4http6detail10chunk_sizeENS0_12const_bufferENS4_10chunk_crlfENS2_18basic_multi_bufferINSt3__19allocatorIcEEE8subrangeILb0EEES8_EEEEEDTcldtfp_5beginEERT_NS0_10constraintIXaantsr14is_convertibleIPKSI_PKNS0_14mutable_bufferEEE5valuentsr14is_convertibleISM_PKS7_EE5valueEiE4typeE, symObjAddr: 0x742CC, symBinAddr: 0x1000772C4, symSize: 0x38 }
  - { offsetInCU: 0xFA66, offset: 0xFA66, size: 0x8, addend: 0x0, symName: __ZN5boost4asio21buffer_sequence_beginINS_5beast6detail11buffers_refINS2_19buffers_prefix_viewIRKNS2_14buffers_suffixINS2_16buffers_cat_viewIJNS2_4http6detail10chunk_sizeENS0_12const_bufferENS8_10chunk_crlfENS2_18basic_multi_bufferINSt3__19allocatorIcEEE8subrangeILb0EEESC_EEEEEEEEEEEDTcldtfp_5beginEERKT_NS0_10constraintIXaantsr14is_convertibleIPSS_PKNS0_14mutable_bufferEEE5valuentsr14is_convertibleISV_PKSB_EE5valueEiE4typeE, symObjAddr: 0x750A0, symBinAddr: 0x100078098, symSize: 0x38 }
  - { offsetInCU: 0xFAA8, offset: 0xFAA8, size: 0x8, addend: 0x0, symName: __ZN5boost4asio21buffer_sequence_beginINS_5beast19buffers_prefix_viewIRKNS2_14buffers_suffixINS2_16buffers_cat_viewIJNS2_4http6detail10chunk_sizeENS0_12const_bufferENS6_10chunk_crlfENS2_18basic_multi_bufferINSt3__19allocatorIcEEE8subrangeILb0EEESA_EEEEEEEEEDTcldtfp_5beginEERKT_NS0_10constraintIXaantsr14is_convertibleIPSP_PKNS0_14mutable_bufferEEE5valuentsr14is_convertibleISS_PKS9_EE5valueEiE4typeE, symObjAddr: 0x7516C, symBinAddr: 0x100078164, symSize: 0x38 }
  - { offsetInCU: 0xFAEA, offset: 0xFAEA, size: 0x8, addend: 0x0, symName: __ZN5boost4asio19buffer_sequence_endINS_5beast6detail11buffers_refINS2_19buffers_prefix_viewIRKNS2_14buffers_suffixINS2_16buffers_cat_viewIJNS2_4http6detail10chunk_sizeENS0_12const_bufferENS8_10chunk_crlfENS2_18basic_multi_bufferINSt3__19allocatorIcEEE8subrangeILb0EEESC_EEEEEEEEEEEDTcldtfp_3endEERKT_NS0_10constraintIXaantsr14is_convertibleIPSS_PKNS0_14mutable_bufferEEE5valuentsr14is_convertibleISV_PKSB_EE5valueEiE4typeE, symObjAddr: 0x75344, symBinAddr: 0x10007833C, symSize: 0x38 }
  - { offsetInCU: 0xFB2C, offset: 0xFB2C, size: 0x8, addend: 0x0, symName: __ZN5boost4asio19buffer_sequence_endINS_5beast19buffers_prefix_viewIRKNS2_14buffers_suffixINS2_16buffers_cat_viewIJNS2_4http6detail10chunk_sizeENS0_12const_bufferENS6_10chunk_crlfENS2_18basic_multi_bufferINSt3__19allocatorIcEEE8subrangeILb0EEESA_EEEEEEEEEDTcldtfp_3endEERKT_NS0_10constraintIXaantsr14is_convertibleIPSP_PKNS0_14mutable_bufferEEE5valuentsr14is_convertibleISS_PKS9_EE5valueEiE4typeE, symObjAddr: 0x753B0, symBinAddr: 0x1000783A8, symSize: 0x38 }
  - { offsetInCU: 0xFB6E, offset: 0xFB6E, size: 0x8, addend: 0x0, symName: __ZN5boost4asio21buffer_sequence_beginINS_5beast6detail11buffers_refINS2_19buffers_prefix_viewIRKNS2_14buffers_suffixINS2_16buffers_cat_viewIJNS2_4http6detail10chunk_sizeENS0_12const_bufferENS8_10chunk_crlfENS2_18basic_multi_bufferINSt3__19allocatorIcEEE8subrangeILb0EEESC_SB_SB_SC_EEEEEEEEEEEDTcldtfp_5beginEERKT_NS0_10constraintIXaantsr14is_convertibleIPSS_PKNS0_14mutable_bufferEEE5valuentsr14is_convertibleISV_PKSB_EE5valueEiE4typeE, symObjAddr: 0x761C4, symBinAddr: 0x1000791BC, symSize: 0x38 }
  - { offsetInCU: 0xFBB0, offset: 0xFBB0, size: 0x8, addend: 0x0, symName: __ZN5boost4asio21buffer_sequence_beginINS_5beast19buffers_prefix_viewIRKNS2_14buffers_suffixINS2_16buffers_cat_viewIJNS2_4http6detail10chunk_sizeENS0_12const_bufferENS6_10chunk_crlfENS2_18basic_multi_bufferINSt3__19allocatorIcEEE8subrangeILb0EEESA_S9_S9_SA_EEEEEEEEEDTcldtfp_5beginEERKT_NS0_10constraintIXaantsr14is_convertibleIPSP_PKNS0_14mutable_bufferEEE5valuentsr14is_convertibleISS_PKS9_EE5valueEiE4typeE, symObjAddr: 0x76290, symBinAddr: 0x100079288, symSize: 0x38 }
  - { offsetInCU: 0xFBF2, offset: 0xFBF2, size: 0x8, addend: 0x0, symName: __ZN5boost4asio19buffer_sequence_endINS_5beast6detail11buffers_refINS2_19buffers_prefix_viewIRKNS2_14buffers_suffixINS2_16buffers_cat_viewIJNS2_4http6detail10chunk_sizeENS0_12const_bufferENS8_10chunk_crlfENS2_18basic_multi_bufferINSt3__19allocatorIcEEE8subrangeILb0EEESC_SB_SB_SC_EEEEEEEEEEEDTcldtfp_3endEERKT_NS0_10constraintIXaantsr14is_convertibleIPSS_PKNS0_14mutable_bufferEEE5valuentsr14is_convertibleISV_PKSB_EE5valueEiE4typeE, symObjAddr: 0x76468, symBinAddr: 0x100079460, symSize: 0x38 }
  - { offsetInCU: 0xFC34, offset: 0xFC34, size: 0x8, addend: 0x0, symName: __ZN5boost4asio19buffer_sequence_endINS_5beast19buffers_prefix_viewIRKNS2_14buffers_suffixINS2_16buffers_cat_viewIJNS2_4http6detail10chunk_sizeENS0_12const_bufferENS6_10chunk_crlfENS2_18basic_multi_bufferINSt3__19allocatorIcEEE8subrangeILb0EEESA_S9_S9_SA_EEEEEEEEEDTcldtfp_3endEERKT_NS0_10constraintIXaantsr14is_convertibleIPSP_PKNS0_14mutable_bufferEEE5valuentsr14is_convertibleISS_PKS9_EE5valueEiE4typeE, symObjAddr: 0x764D4, symBinAddr: 0x1000794CC, symSize: 0x38 }
  - { offsetInCU: 0xFC76, offset: 0xFC76, size: 0x8, addend: 0x0, symName: __ZN5boost4asio21buffer_sequence_beginINS_5beast6detail11buffers_refINS2_19buffers_prefix_viewIRKNS2_14buffers_suffixINS2_16buffers_cat_viewIJNS4_INS7_IJNS0_12const_bufferES8_S8_NS2_4http12basic_fieldsINSt3__19allocatorIcEEE6writer11field_rangeENS9_10chunk_crlfEEEEEENS9_6detail10chunk_sizeES8_SH_NS2_18basic_multi_bufferISD_E8subrangeILb0EEESH_S8_S8_SH_EEEEEEEEEEEDTcldtfp_5beginEERKT_NS0_10constraintIXaantsr14is_convertibleIPSY_PKNS0_14mutable_bufferEEE5valuentsr14is_convertibleIS11_PKS8_EE5valueEiE4typeE, symObjAddr: 0x772EC, symBinAddr: 0x10007A2E4, symSize: 0x38 }
  - { offsetInCU: 0xFCB8, offset: 0xFCB8, size: 0x8, addend: 0x0, symName: __ZN5boost4asio21buffer_sequence_beginINS_5beast19buffers_prefix_viewIRKNS2_14buffers_suffixINS2_16buffers_cat_viewIJNS2_6detail11buffers_refINS5_IJNS0_12const_bufferES8_S8_NS2_4http12basic_fieldsINSt3__19allocatorIcEEE6writer11field_rangeENS9_10chunk_crlfEEEEEENS9_6detail10chunk_sizeES8_SH_NS2_18basic_multi_bufferISD_E8subrangeILb0EEESH_S8_S8_SH_EEEEEEEEEDTcldtfp_5beginEERKT_NS0_10constraintIXaantsr14is_convertibleIPSX_PKNS0_14mutable_bufferEEE5valuentsr14is_convertibleIS10_PKS8_EE5valueEiE4typeE, symObjAddr: 0x773B8, symBinAddr: 0x10007A3B0, symSize: 0x38 }
  - { offsetInCU: 0xFCFA, offset: 0xFCFA, size: 0x8, addend: 0x0, symName: __ZN5boost4asio19buffer_sequence_endINS_5beast6detail11buffers_refINS2_19buffers_prefix_viewIRKNS2_14buffers_suffixINS2_16buffers_cat_viewIJNS4_INS7_IJNS0_12const_bufferES8_S8_NS2_4http12basic_fieldsINSt3__19allocatorIcEEE6writer11field_rangeENS9_10chunk_crlfEEEEEENS9_6detail10chunk_sizeES8_SH_NS2_18basic_multi_bufferISD_E8subrangeILb0EEESH_S8_S8_SH_EEEEEEEEEEEDTcldtfp_3endEERKT_NS0_10constraintIXaantsr14is_convertibleIPSY_PKNS0_14mutable_bufferEEE5valuentsr14is_convertibleIS11_PKS8_EE5valueEiE4typeE, symObjAddr: 0x77590, symBinAddr: 0x10007A588, symSize: 0x38 }
  - { offsetInCU: 0xFD3C, offset: 0xFD3C, size: 0x8, addend: 0x0, symName: __ZN5boost4asio19buffer_sequence_endINS_5beast19buffers_prefix_viewIRKNS2_14buffers_suffixINS2_16buffers_cat_viewIJNS2_6detail11buffers_refINS5_IJNS0_12const_bufferES8_S8_NS2_4http12basic_fieldsINSt3__19allocatorIcEEE6writer11field_rangeENS9_10chunk_crlfEEEEEENS9_6detail10chunk_sizeES8_SH_NS2_18basic_multi_bufferISD_E8subrangeILb0EEESH_S8_S8_SH_EEEEEEEEEDTcldtfp_3endEERKT_NS0_10constraintIXaantsr14is_convertibleIPSX_PKNS0_14mutable_bufferEEE5valuentsr14is_convertibleIS10_PKS8_EE5valueEiE4typeE, symObjAddr: 0x775FC, symBinAddr: 0x10007A5F4, symSize: 0x38 }
  - { offsetInCU: 0x1061F, offset: 0x1061F, size: 0x8, addend: 0x0, symName: __ZN5boost6system6detail29system_error_category_messageEi, symObjAddr: 0x1718, symBinAddr: 0x100004710, symSize: 0x2C }
  - { offsetInCU: 0x1064D, offset: 0x1064D, size: 0x8, addend: 0x0, symName: __ZN5boost6system6detail30generic_error_category_messageEi, symObjAddr: 0x1744, symBinAddr: 0x10000473C, symSize: 0x6C }
  - { offsetInCU: 0x10688, offset: 0x10688, size: 0x8, addend: 0x0, symName: __ZN5boost6system6detail29system_error_category_messageEiPcm, symObjAddr: 0x19A4, symBinAddr: 0x10000499C, symSize: 0x34 }
  - { offsetInCU: 0x106D4, offset: 0x106D4, size: 0x8, addend: 0x0, symName: __ZN5boost6system6detail30generic_error_category_messageEiPcm, symObjAddr: 0x19D8, symBinAddr: 0x1000049D0, symSize: 0xE8 }
  - { offsetInCU: 0x1072A, offset: 0x1072A, size: 0x8, addend: 0x0, symName: __ZN5boost6system6detail8snprintfEPcmPKcz, symObjAddr: 0x1DD0, symBinAddr: 0x100004DC8, symSize: 0x44 }
  - { offsetInCU: 0x10782, offset: 0x10782, size: 0x8, addend: 0x0, symName: __ZN5boost6system6detail11failed_implEiRKNS0_14error_categoryE, symObjAddr: 0x2750, symBinAddr: 0x100005748, symSize: 0xB8 }
  - { offsetInCU: 0x107BD, offset: 0x107BD, size: 0x8, addend: 0x0, symName: __ZN5boost6system6detail16interop_categoryEv, symObjAddr: 0x3524, symBinAddr: 0x10000651C, symSize: 0xC }
  - { offsetInCU: 0x107DA, offset: 0x107DA, size: 0x8, addend: 0x0, symName: __ZN5boost6system6detail10append_intERNSt3__112basic_stringIcNS2_11char_traitsIcEENS2_9allocatorIcEEEEi, symObjAddr: 0x3624, symBinAddr: 0x10000661C, symSize: 0x88 }
  - { offsetInCU: 0x10D12, offset: 0x10D12, size: 0x8, addend: 0x0, symName: __ZN5boost6system16generic_categoryEv, symObjAddr: 0x2A254, symBinAddr: 0x10002D24C, symSize: 0xC }
  - { offsetInCU: 0x10D30, offset: 0x10D30, size: 0x8, addend: 0x0, symName: __ZN5boost6system15system_categoryEv, symObjAddr: 0x10C8, symBinAddr: 0x1000040C0, symSize: 0xC }
  - { offsetInCU: 0x10D53, offset: 0x10D53, size: 0x8, addend: 0x0, symName: __ZN5boost6systemeqERKNS0_15error_conditionES3_, symObjAddr: 0x1308, symBinAddr: 0x100004300, symSize: 0x10C }
  - { offsetInCU: 0x10D8D, offset: 0x10D8D, size: 0x8, addend: 0x0, symName: __ZN5boost6systemeqERKNS0_14error_categoryES3_, symObjAddr: 0x1470, symBinAddr: 0x100004468, symSize: 0x6C }
  - { offsetInCU: 0x10DC7, offset: 0x10DC7, size: 0x8, addend: 0x0, symName: __ZN5boost6systemeqERKNS0_10error_codeES3_, symObjAddr: 0x1897C, symBinAddr: 0x10001B974, symSize: 0x144 }
  - { offsetInCU: 0x10E4E, offset: 0x10E4E, size: 0x8, addend: 0x0, symName: __ZN5boost6systemneERKNS0_10error_codeES3_, symObjAddr: 0x1E87C, symBinAddr: 0x100021874, symSize: 0x34 }
  - { offsetInCU: 0x10F7F, offset: 0x10F7F, size: 0x8, addend: 0x0, symName: __ZN5boost11optional_nsL13in_place_initE, symObjAddr: 0x3EA2B8, symBinAddr: 0x10009D728, symSize: 0x0 }
  - { offsetInCU: 0x10FBF, offset: 0x10FBF, size: 0x8, addend: 0x0, symName: __ZN5boost11optional_nsL16in_place_init_ifE, symObjAddr: 0x3EA2B9, symBinAddr: 0x10009D729, symSize: 0x0 }
  - { offsetInCU: 0x11002, offset: 0x11002, size: 0x8, addend: 0x0, symName: __ZN5boost5beast4http6detail15get_field_tableEv, symObjAddr: 0x23BFC, symBinAddr: 0x100026BF4, symSize: 0x9C }
  - { offsetInCU: 0x1102E, offset: 0x1102E, size: 0x8, addend: 0x0, symName: __ZZN5boost5beast4http6detail15get_field_tableEvE3tab, symObjAddr: 0x7F928, symBinAddr: 0x100098168, symSize: 0x0 }
  - { offsetInCU: 0x11132, offset: 0x11132, size: 0x8, addend: 0x0, symName: __ZN5boost5beast4http6detail13is_token_charEc, symObjAddr: 0x29978, symBinAddr: 0x10002C970, symSize: 0x24 }
  - { offsetInCU: 0x1115B, offset: 0x1115B, size: 0x8, addend: 0x0, symName: __ZZN5boost5beast4http6detail13is_token_charEcE3tab, symObjAddr: 0x875FD, symBinAddr: 0x10008BA1D, symSize: 0x0 }
  - { offsetInCU: 0x1124A, offset: 0x1124A, size: 0x8, addend: 0x0, symName: __ZN5boost5beast4http6detail10chunk_lastEv, symObjAddr: 0x26364, symBinAddr: 0x10002935C, symSize: 0x80 }
  - { offsetInCU: 0x11273, offset: 0x11273, size: 0x8, addend: 0x0, symName: __ZZN5boost5beast4http6detail10chunk_lastEvE2cb, symObjAddr: 0x84EA8, symBinAddr: 0x10009D6E8, symSize: 0x0 }
  - { offsetInCU: 0x11545, offset: 0x11545, size: 0x8, addend: 0x0, symName: __ZN5boost5beast4http6detail9read_someINS_4asio19basic_stream_socketINS4_2ip3tcpENS4_15any_io_executorEEENS0_17basic_flat_bufferINSt3__19allocatorIcEEEELb0EEEmRT_RT0_RNS1_12basic_parserIXT1_EEERNS_6system10error_codeE, symObjAddr: 0x52FAC, symBinAddr: 0x100055FA4, symSize: 0x3FC }
  - { offsetInCU: 0x11571, offset: 0x11571, size: 0x8, addend: 0x0, symName: __ZZN5boost5beast4http6detail9read_someINS_4asio19basic_stream_socketINS4_2ip3tcpENS4_15any_io_executorEEENS0_17basic_flat_bufferINSt3__19allocatorIcEEEELb0EEEmRT_RT0_RNS1_12basic_parserIXT1_EEERNS_6system10error_codeEE7loc_341, symObjAddr: 0x86458, symBinAddr: 0x100097458, symSize: 0x0 }
  - { offsetInCU: 0x11588, offset: 0x11588, size: 0x8, addend: 0x0, symName: __ZZN5boost5beast4http6detail9read_someINS_4asio19basic_stream_socketINS4_2ip3tcpENS4_15any_io_executorEEENS0_17basic_flat_bufferINSt3__19allocatorIcEEEELb0EEEmRT_RT0_RNS1_12basic_parserIXT1_EEERNS_6system10error_codeEE7loc_366, symObjAddr: 0x86470, symBinAddr: 0x100097470, symSize: 0x0 }
  - { offsetInCU: 0x11945, offset: 0x11945, size: 0x8, addend: 0x0, symName: __ZN5boost5beast4http6detail4trimENS_4core17basic_string_viewIcEE, symObjAddr: 0x22F54, symBinAddr: 0x100025F4C, symSize: 0x110 }
  - { offsetInCU: 0x119AA, offset: 0x119AA, size: 0x8, addend: 0x0, symName: __ZN5boost5beast4http6detail8skip_owsIPKcEEvRT_S6_, symObjAddr: 0x23784, symBinAddr: 0x10002677C, symSize: 0x84 }
  - { offsetInCU: 0x119E9, offset: 0x119E9, size: 0x8, addend: 0x0, symName: __ZN5boost5beast4http6detail9to_stringENS1_5fieldE, symObjAddr: 0x23B74, symBinAddr: 0x100026B6C, symSize: 0x88 }
  - { offsetInCU: 0x11A26, offset: 0x11A26, size: 0x8, addend: 0x0, symName: __ZN5boost5beast4http6detail15write_some_implINS_4asio19basic_stream_socketINS4_2ip3tcpENS4_15any_io_executorEEELb1ENS1_17basic_string_bodyIcNSt3__111char_traitsIcEENSB_9allocatorIcEEEENS1_12basic_fieldsISF_EEEEmRT_RNS1_10serializerIXT0_ET1_T2_EERNS_6system10error_codeE, symObjAddr: 0x245B4, symBinAddr: 0x1000275AC, symSize: 0xC0 }
  - { offsetInCU: 0x11C52, offset: 0x11C52, size: 0x8, addend: 0x0, symName: __ZN5boost5beast4http6detail12sync_read_opINS2_14parser_is_doneENS_4asio19basic_stream_socketINS5_2ip3tcpENS5_15any_io_executorEEENS0_17basic_flat_bufferINSt3__19allocatorIcEEEELb0EEEmRT0_RT1_RNS1_12basic_parserIXT2_EEERNS_6system10error_codeE, symObjAddr: 0x52E8C, symBinAddr: 0x100055E84, symSize: 0xB4 }
  - { offsetInCU: 0x127F0, offset: 0x127F0, size: 0x8, addend: 0x0, symName: __ZN5boost5beast4http15make_error_codeENS1_5errorE, symObjAddr: 0x29C5C, symBinAddr: 0x10002CC54, symSize: 0xB0 }
  - { offsetInCU: 0x12819, offset: 0x12819, size: 0x8, addend: 0x0, symName: __ZZN5boost5beast4http15make_error_codeENS1_5errorEE3cat, symObjAddr: 0x84E18, symBinAddr: 0x10009D658, symSize: 0x0 }
  - { offsetInCU: 0x15676, offset: 0x15676, size: 0x8, addend: 0x0, symName: __ZN5boost5beast4http5writeINS_4asio19basic_stream_socketINS3_2ip3tcpENS3_15any_io_executorEEELb1ENS1_17basic_string_bodyIcNSt3__111char_traitsIcEENSA_9allocatorIcEEEENS1_12basic_fieldsISE_EEEENSA_9enable_ifIXntsr22is_mutable_body_writerIT1_EE5valueEmE4typeERT_RKNS1_7messageIXT0_ESJ_T2_EE, symObjAddr: 0x934, symBinAddr: 0x10000392C, symSize: 0xC0 }
  - { offsetInCU: 0x156FB, offset: 0x156FB, size: 0x8, addend: 0x0, symName: __ZN5boost5beast4http4readINS_4asio19basic_stream_socketINS3_2ip3tcpENS3_15any_io_executorEEENS0_17basic_flat_bufferINSt3__19allocatorIcEEEELb0ENS1_18basic_dynamic_bodyINS0_18basic_multi_bufferISC_EEEESC_EEmRT_RT0_RNS1_7messageIXT1_ET2_NS1_12basic_fieldsIT3_EEEE, symObjAddr: 0xA4C, symBinAddr: 0x100003A44, symSize: 0xC8 }
  - { offsetInCU: 0x15793, offset: 0x15793, size: 0x8, addend: 0x0, symName: __ZN5boost5beast4httplsILb0ENS1_18basic_dynamic_bodyINS0_18basic_multi_bufferINSt3__19allocatorIcEEEEEENS1_12basic_fieldsIS7_EEEERNS5_13basic_ostreamIcNS5_11char_traitsIcEEEESG_RKNS1_7messageIXT_ET0_T1_EE, symObjAddr: 0xB14, symBinAddr: 0x100003B0C, symSize: 0x150 }
  - { offsetInCU: 0x15823, offset: 0x15823, size: 0x8, addend: 0x0, symName: __ZN5boost5beast4http9to_stringENS1_5fieldE, symObjAddr: 0x1FD00, symBinAddr: 0x100022CF8, symSize: 0x34 }
  - { offsetInCU: 0x15851, offset: 0x15851, size: 0x8, addend: 0x0, symName: __ZN5boost5beast4http5writeINS_4asio19basic_stream_socketINS3_2ip3tcpENS3_15any_io_executorEEELb1ENS1_17basic_string_bodyIcNSt3__111char_traitsIcEENSA_9allocatorIcEEEENS1_12basic_fieldsISE_EEEENSA_9enable_ifIXntsr22is_mutable_body_writerIT1_EE5valueEmE4typeERT_RKNS1_7messageIXT0_ESJ_T2_EERNS_6system10error_codeE, symObjAddr: 0x24130, symBinAddr: 0x100027128, symSize: 0xB4 }
  - { offsetInCU: 0x158D7, offset: 0x158D7, size: 0x8, addend: 0x0, symName: __ZN5boost5beast4http5writeINS_4asio19basic_stream_socketINS3_2ip3tcpENS3_15any_io_executorEEELb1ENS1_17basic_string_bodyIcNSt3__111char_traitsIcEENSA_9allocatorIcEEEENS1_12basic_fieldsISE_EEEEmRT_RNS1_10serializerIXT0_ET1_T2_EERNS_6system10error_codeE, symObjAddr: 0x24218, symBinAddr: 0x100027210, symSize: 0x9C }
  - { offsetInCU: 0x1595C, offset: 0x1595C, size: 0x8, addend: 0x0, symName: __ZN5boost5beast4http10write_someINS_4asio19basic_stream_socketINS3_2ip3tcpENS3_15any_io_executorEEELb1ENS1_17basic_string_bodyIcNSt3__111char_traitsIcEENSA_9allocatorIcEEEENS1_12basic_fieldsISE_EEEEmRT_RNS1_10serializerIXT0_ET1_T2_EERNS_6system10error_codeE, symObjAddr: 0x2455C, symBinAddr: 0x100027554, symSize: 0x34 }
  - { offsetInCU: 0x159D1, offset: 0x159D1, size: 0x8, addend: 0x0, symName: __ZN5boost5beast4http9to_stringENS1_4verbE, symObjAddr: 0x27134, symBinAddr: 0x10002A12C, symSize: 0x47C }
  - { offsetInCU: 0x15A05, offset: 0x15A05, size: 0x8, addend: 0x0, symName: __ZN5boost5beast4http4readINS_4asio19basic_stream_socketINS3_2ip3tcpENS3_15any_io_executorEEENS0_17basic_flat_bufferINSt3__19allocatorIcEEEELb0ENS1_18basic_dynamic_bodyINS0_18basic_multi_bufferISC_EEEESC_EEmRT_RT0_RNS1_7messageIXT1_ET2_NS1_12basic_fieldsIT3_EEEERNS_6system10error_codeE, symObjAddr: 0x49BE4, symBinAddr: 0x10004CBDC, symSize: 0x15C }
  - { offsetInCU: 0x15AB6, offset: 0x15AB6, size: 0x8, addend: 0x0, symName: __ZN5boost5beast4http4readINS_4asio19basic_stream_socketINS3_2ip3tcpENS3_15any_io_executorEEENS0_17basic_flat_bufferINSt3__19allocatorIcEEEELb0EEEmRT_RT0_RNS1_12basic_parserIXT1_EEERNS_6system10error_codeE, symObjAddr: 0x49DCC, symBinAddr: 0x10004CDC4, symSize: 0x4C }
  - { offsetInCU: 0x15B2D, offset: 0x15B2D, size: 0x8, addend: 0x0, symName: __ZN5boost5beast4http15string_to_fieldENS_4core17basic_string_viewIcEE, symObjAddr: 0x56CD4, symBinAddr: 0x100059CCC, symSize: 0x3C }
  - { offsetInCU: 0x15B5B, offset: 0x15B5B, size: 0x8, addend: 0x0, symName: __ZN5boost5beast4http13validate_listINS1_6detail21opt_token_list_policyEEEbRKNS3_17basic_parsed_listIT_EE, symObjAddr: 0x57D30, symBinAddr: 0x10005AD28, symSize: 0xDC }
  - { offsetInCU: 0x15BB4, offset: 0x15BB4, size: 0x8, addend: 0x0, symName: __ZN5boost5beast4http15obsolete_reasonENS1_6statusE, symObjAddr: 0x5D14C, symBinAddr: 0x100060144, symSize: 0x548 }
  - { offsetInCU: 0x15FB5, offset: 0x15FB5, size: 0x8, addend: 0x0, symName: __ZN5boost5beast6detail22dynamic_buffer_prepareINS0_18basic_multi_bufferINSt3__19allocatorIcEEEENS0_4http5errorEEENS_8optionalINT_20mutable_buffers_typeEEERSB_mRNS_6system10error_codeET0_, symObjAddr: 0x4E008, symBinAddr: 0x100051000, symSize: 0x158 }
  - { offsetInCU: 0x15FDE, offset: 0x15FDE, size: 0x8, addend: 0x0, symName: __ZZN5boost5beast6detail22dynamic_buffer_prepareINS0_18basic_multi_bufferINSt3__19allocatorIcEEEENS0_4http5errorEEENS_8optionalINT_20mutable_buffers_typeEEERSB_mRNS_6system10error_codeET0_E6loc_70, symObjAddr: 0x86400, symBinAddr: 0x100097400, symSize: 0x0 }
  - { offsetInCU: 0x16054, offset: 0x16054, size: 0x8, addend: 0x0, symName: __ZN5boost5beast6detail22dynamic_buffer_prepareINS0_17basic_flat_bufferINSt3__19allocatorIcEEEENS0_4http5errorEEENS_8optionalINT_20mutable_buffers_typeEEERSB_mRNS_6system10error_codeET0_, symObjAddr: 0x536D4, symBinAddr: 0x1000566CC, symSize: 0x158 }
  - { offsetInCU: 0x1607D, offset: 0x1607D, size: 0x8, addend: 0x0, symName: __ZZN5boost5beast6detail22dynamic_buffer_prepareINS0_17basic_flat_bufferINSt3__19allocatorIcEEEENS0_4http5errorEEENS_8optionalINT_20mutable_buffers_typeEEERSB_mRNS_6system10error_codeET0_E6loc_70, symObjAddr: 0x86A70, symBinAddr: 0x100097A70, symSize: 0x0 }
  - { offsetInCU: 0x2001F, offset: 0x2001F, size: 0x8, addend: 0x0, symName: __ZN5boost5beast6detail13ascii_tolowerEc, symObjAddr: 0x20D00, symBinAddr: 0x100023CF8, symSize: 0x50 }
  - { offsetInCU: 0x20053, offset: 0x20053, size: 0x8, addend: 0x0, symName: __ZN5boost5beast6detail15string_literalsli3_svEPKcm, symObjAddr: 0x27734, symBinAddr: 0x10002A72C, symSize: 0x38 }
  - { offsetInCU: 0x20091, offset: 0x20091, size: 0x8, addend: 0x0, symName: __ZN5boost5beast6detail12launder_castIPNS0_14buffers_suffixINS1_11buffers_refINS0_16buffers_cat_viewIJNS_4asio12const_bufferES7_S7_NS0_4http12basic_fieldsINSt3__19allocatorIcEEE6writer11field_rangeENS8_10chunk_crlfEEEEEEEENSA_15aligned_storageILm160ELm8EE4typeEEET_PT0_, symObjAddr: 0x2A6EC, symBinAddr: 0x10002D6E4, symSize: 0x24 }
  - { offsetInCU: 0x200CF, offset: 0x200CF, size: 0x8, addend: 0x0, symName: __ZN5boost5beast6detail12launder_castIPPKNS_4asio12const_bufferENSt3__115aligned_storageILm8ELm8EE4typeEEET_PT0_, symObjAddr: 0x2AAD4, symBinAddr: 0x10002DACC, symSize: 0x24 }
  - { offsetInCU: 0x2010D, offset: 0x2010D, size: 0x8, addend: 0x0, symName: __ZN5boost5beast6detail12launder_castIPNS0_4http12basic_fieldsINSt3__19allocatorIcEEE6writer14field_iteratorENS5_15aligned_storageILm8ELm8EE4typeEEET_PT0_, symObjAddr: 0x2AB30, symBinAddr: 0x10002DB28, symSize: 0x24 }
  - { offsetInCU: 0x2014B, offset: 0x2014B, size: 0x8, addend: 0x0, symName: __ZN5boost5beast6detail12launder_castIPNS1_30buffers_cat_view_iterator_base8past_endENSt3__115aligned_storageILm8ELm8EE4typeEEET_PT0_, symObjAddr: 0x2AB8C, symBinAddr: 0x10002DB84, symSize: 0x24 }
  - { offsetInCU: 0x20189, offset: 0x20189, size: 0x8, addend: 0x0, symName: __ZN5boost5beast6detail12launder_castIPNS0_14buffers_suffixINS0_16buffers_cat_viewIJNS1_11buffers_refINS4_IJNS_4asio12const_bufferES7_S7_NS0_4http12basic_fieldsINSt3__19allocatorIcEEE6writer11field_rangeENS8_10chunk_crlfEEEEEES7_EEEEENSA_15aligned_storageILm160ELm8EE4typeEEET_PT0_, symObjAddr: 0x2ABE8, symBinAddr: 0x10002DBE0, symSize: 0x24 }
  - { offsetInCU: 0x201C7, offset: 0x201C7, size: 0x8, addend: 0x0, symName: __ZN5boost5beast6detail12launder_castIPNS0_16buffers_cat_viewIJNS_4asio12const_bufferES5_S5_NS0_4http12basic_fieldsINSt3__19allocatorIcEEE6writer11field_rangeENS6_10chunk_crlfEEE14const_iteratorENS8_15aligned_storageILm24ELm8EE4typeEEET_PT0_, symObjAddr: 0x2AF34, symBinAddr: 0x10002DF2C, symSize: 0x24 }
  - { offsetInCU: 0x20205, offset: 0x20205, size: 0x8, addend: 0x0, symName: __ZN5boost5beast6detail12launder_castIPPKNS_4asio12const_bufferENSt3__115aligned_storageILm24ELm8EE4typeEEET_PT0_, symObjAddr: 0x2AF90, symBinAddr: 0x10002DF88, symSize: 0x24 }
  - { offsetInCU: 0x20243, offset: 0x20243, size: 0x8, addend: 0x0, symName: __ZN5boost5beast6detail12launder_castIPNS1_30buffers_cat_view_iterator_base8past_endENSt3__115aligned_storageILm24ELm8EE4typeEEET_PT0_, symObjAddr: 0x2AFB4, symBinAddr: 0x10002DFAC, symSize: 0x24 }
  - { offsetInCU: 0x20281, offset: 0x20281, size: 0x8, addend: 0x0, symName: __ZN5boost5beast6detail12launder_castIPNS0_14buffers_suffixINS_4asio12const_bufferEEENSt3__115aligned_storageILm160ELm8EE4typeEEET_PT0_, symObjAddr: 0x2AFD8, symBinAddr: 0x10002DFD0, symSize: 0x24 }
  - { offsetInCU: 0x202BF, offset: 0x202BF, size: 0x8, addend: 0x0, symName: __ZN5boost5beast6detail12launder_castIPNS0_14buffers_suffixINS0_16buffers_cat_viewIJNS1_11buffers_refINS4_IJNS_4asio12const_bufferES7_S7_NS0_4http12basic_fieldsINSt3__19allocatorIcEEE6writer11field_rangeENS8_10chunk_crlfEEEEEENS8_6detail10chunk_sizeES7_SG_S7_SG_EEEEENSA_15aligned_storageILm160ELm8EE4typeEEET_PT0_, symObjAddr: 0x2B034, symBinAddr: 0x10002E02C, symSize: 0x24 }
  - { offsetInCU: 0x202FD, offset: 0x202FD, size: 0x8, addend: 0x0, symName: __ZN5boost5beast6detail12launder_castIPNS0_14buffers_suffixINS0_16buffers_cat_viewIJNS0_4http6detail10chunk_sizeENS_4asio12const_bufferENS5_10chunk_crlfES9_SA_EEEEENSt3__115aligned_storageILm160ELm8EE4typeEEET_PT0_, symObjAddr: 0x2B62C, symBinAddr: 0x10002E624, symSize: 0x24 }
  - { offsetInCU: 0x2033B, offset: 0x2033B, size: 0x8, addend: 0x0, symName: __ZN5boost5beast6detail12launder_castIPNS0_14buffers_suffixINS0_16buffers_cat_viewIJNS0_4http6detail10chunk_sizeENS_4asio12const_bufferENS5_10chunk_crlfES9_SA_S9_S9_SA_EEEEENSt3__115aligned_storageILm160ELm8EE4typeEEET_PT0_, symObjAddr: 0x2BB0C, symBinAddr: 0x10002EB04, symSize: 0x24 }
  - { offsetInCU: 0x20379, offset: 0x20379, size: 0x8, addend: 0x0, symName: __ZN5boost5beast6detail12launder_castIPNS0_14buffers_suffixINS0_16buffers_cat_viewIJNS1_11buffers_refINS4_IJNS_4asio12const_bufferES7_S7_NS0_4http12basic_fieldsINSt3__19allocatorIcEEE6writer11field_rangeENS8_10chunk_crlfEEEEEENS8_6detail10chunk_sizeES7_SG_S7_SG_S7_S7_SG_EEEEENSA_15aligned_storageILm160ELm8EE4typeEEET_PT0_, symObjAddr: 0x2C068, symBinAddr: 0x10002F060, symSize: 0x24 }
  - { offsetInCU: 0x203B7, offset: 0x203B7, size: 0x8, addend: 0x0, symName: __ZN5boost5beast6detail12launder_castIPNS0_14buffers_suffixINS0_16buffers_cat_viewIJNS_4asio12const_bufferES6_NS0_4http10chunk_crlfEEEEEENSt3__115aligned_storageILm160ELm8EE4typeEEET_PT0_, symObjAddr: 0x2C604, symBinAddr: 0x10002F5FC, symSize: 0x24 }
  - { offsetInCU: 0x203F5, offset: 0x203F5, size: 0x8, addend: 0x0, symName: __ZN5boost5beast6detail3getILm0ENS1_11buffers_refINS0_16buffers_cat_viewIJNS_4asio12const_bufferES6_S6_NS0_4http12basic_fieldsINSt3__19allocatorIcEEE6writer11field_rangeENS7_10chunk_crlfEEEEEEEERKT0_RKNS1_18tuple_element_implIXT_ESI_EE, symObjAddr: 0x2CD60, symBinAddr: 0x10002FD58, symSize: 0x14 }
  - { offsetInCU: 0x20434, offset: 0x20434, size: 0x8, addend: 0x0, symName: __ZN5boost5beast6detail12launder_castIPKPKNS_4asio12const_bufferEKNSt3__115aligned_storageILm8ELm8EE4typeEEET_PT0_, symObjAddr: 0x2D328, symBinAddr: 0x100030320, symSize: 0x24 }
  - { offsetInCU: 0x20472, offset: 0x20472, size: 0x8, addend: 0x0, symName: __ZN5boost5beast6detail12launder_castIPKNS0_4http12basic_fieldsINSt3__19allocatorIcEEE6writer14field_iteratorEKNS5_15aligned_storageILm8ELm8EE4typeEEET_PT0_, symObjAddr: 0x2D384, symBinAddr: 0x10003037C, symSize: 0x24 }
  - { offsetInCU: 0x204B0, offset: 0x204B0, size: 0x8, addend: 0x0, symName: __ZN5boost5beast6detail12launder_castIPKNS1_30buffers_cat_view_iterator_base8past_endEKNSt3__115aligned_storageILm8ELm8EE4typeEEET_PT0_, symObjAddr: 0x2D3E0, symBinAddr: 0x1000303D8, symSize: 0x24 }
  - { offsetInCU: 0x204EE, offset: 0x204EE, size: 0x8, addend: 0x0, symName: __ZN5boost5beast6detail3getILm0ENS_4asio12const_bufferEEERKT0_RKNS1_18tuple_element_implIXT_ES5_EE, symObjAddr: 0x2D658, symBinAddr: 0x100030650, symSize: 0x14 }
  - { offsetInCU: 0x2052D, offset: 0x2052D, size: 0x8, addend: 0x0, symName: __ZN5boost5beast6detail3getILm1ENS_4asio12const_bufferEEERKT0_RKNS1_18tuple_element_implIXT_ES5_EE, symObjAddr: 0x2D864, symBinAddr: 0x10003085C, symSize: 0x14 }
  - { offsetInCU: 0x2056C, offset: 0x2056C, size: 0x8, addend: 0x0, symName: __ZN5boost5beast6detail3getILm2ENS_4asio12const_bufferEEERKT0_RKNS1_18tuple_element_implIXT_ES5_EE, symObjAddr: 0x2DA28, symBinAddr: 0x100030A20, symSize: 0x14 }
  - { offsetInCU: 0x205AB, offset: 0x205AB, size: 0x8, addend: 0x0, symName: __ZN5boost5beast6detail3getILm3ENS0_4http12basic_fieldsINSt3__19allocatorIcEEE6writer11field_rangeEEERKT0_RKNS1_18tuple_element_implIXT_ESB_EE, symObjAddr: 0x2DC28, symBinAddr: 0x100030C20, symSize: 0x14 }
  - { offsetInCU: 0x205EA, offset: 0x205EA, size: 0x8, addend: 0x0, symName: __ZN5boost5beast6detail3getILm4ENS0_4http10chunk_crlfEEERKT0_RKNS1_18tuple_element_implIXT_ES5_EE, symObjAddr: 0x2E08C, symBinAddr: 0x100031084, symSize: 0x14 }
  - { offsetInCU: 0x20629, offset: 0x20629, size: 0x8, addend: 0x0, symName: __ZN5boost5beast6detail16make_buffers_refINS0_19buffers_prefix_viewIRKNS0_14buffers_suffixINS0_16buffers_cat_viewIJNS1_11buffers_refINS5_IJNS_4asio12const_bufferES8_S8_NS0_4http12basic_fieldsINSt3__19allocatorIcEEE6writer11field_rangeENS9_10chunk_crlfEEEEEES8_EEEEEEEEENS6_IT_EERKSP_, symObjAddr: 0x2F988, symBinAddr: 0x100032980, symSize: 0x2C }
  - { offsetInCU: 0x2065E, offset: 0x2065E, size: 0x8, addend: 0x0, symName: __ZN5boost5beast6detail12launder_castIPNS0_19buffers_prefix_viewIRKNS0_14buffers_suffixINS1_11buffers_refINS0_16buffers_cat_viewIJNS_4asio12const_bufferES8_S8_NS0_4http12basic_fieldsINSt3__19allocatorIcEEE6writer11field_rangeENS9_10chunk_crlfEEEEEEEEEENSB_15aligned_storageILm72ELm8EE4typeEEET_PT0_, symObjAddr: 0x2FDB4, symBinAddr: 0x100032DAC, symSize: 0x24 }
  - { offsetInCU: 0x2069C, offset: 0x2069C, size: 0x8, addend: 0x0, symName: __ZN5boost5beast6detail12launder_castIPNS0_19buffers_prefix_viewIRKNS0_14buffers_suffixINS0_16buffers_cat_viewIJNS1_11buffers_refINS5_IJNS_4asio12const_bufferES8_S8_NS0_4http12basic_fieldsINSt3__19allocatorIcEEE6writer11field_rangeENS9_10chunk_crlfEEEEEES8_EEEEEEENSB_15aligned_storageILm72ELm8EE4typeEEET_PT0_, symObjAddr: 0x2FEC4, symBinAddr: 0x100032EBC, symSize: 0x24 }
  - { offsetInCU: 0x206DA, offset: 0x206DA, size: 0x8, addend: 0x0, symName: __ZN5boost5beast6detail12launder_castIPNS0_19buffers_prefix_viewIRKNS0_14buffers_suffixINS_4asio12const_bufferEEEEENSt3__115aligned_storageILm72ELm8EE4typeEEET_PT0_, symObjAddr: 0x2FFD4, symBinAddr: 0x100032FCC, symSize: 0x24 }
  - { offsetInCU: 0x20718, offset: 0x20718, size: 0x8, addend: 0x0, symName: __ZN5boost5beast6detail12launder_castIPNS0_19buffers_prefix_viewIRKNS0_14buffers_suffixINS0_16buffers_cat_viewIJNS1_11buffers_refINS5_IJNS_4asio12const_bufferES8_S8_NS0_4http12basic_fieldsINSt3__19allocatorIcEEE6writer11field_rangeENS9_10chunk_crlfEEEEEENS9_6detail10chunk_sizeES8_SH_S8_SH_EEEEEEENSB_15aligned_storageILm72ELm8EE4typeEEET_PT0_, symObjAddr: 0x30030, symBinAddr: 0x100033028, symSize: 0x24 }
  - { offsetInCU: 0x20756, offset: 0x20756, size: 0x8, addend: 0x0, symName: __ZN5boost5beast6detail12launder_castIPNS0_19buffers_prefix_viewIRKNS0_14buffers_suffixINS0_16buffers_cat_viewIJNS0_4http6detail10chunk_sizeENS_4asio12const_bufferENS6_10chunk_crlfESA_SB_EEEEEEENSt3__115aligned_storageILm72ELm8EE4typeEEET_PT0_, symObjAddr: 0x30140, symBinAddr: 0x100033138, symSize: 0x24 }
  - { offsetInCU: 0x20794, offset: 0x20794, size: 0x8, addend: 0x0, symName: __ZN5boost5beast6detail12launder_castIPNS0_19buffers_prefix_viewIRKNS0_14buffers_suffixINS0_16buffers_cat_viewIJNS0_4http6detail10chunk_sizeENS_4asio12const_bufferENS6_10chunk_crlfESA_SB_SA_SA_SB_EEEEEEENSt3__115aligned_storageILm72ELm8EE4typeEEET_PT0_, symObjAddr: 0x30250, symBinAddr: 0x100033248, symSize: 0x24 }
  - { offsetInCU: 0x207D2, offset: 0x207D2, size: 0x8, addend: 0x0, symName: __ZN5boost5beast6detail12launder_castIPNS0_19buffers_prefix_viewIRKNS0_14buffers_suffixINS0_16buffers_cat_viewIJNS1_11buffers_refINS5_IJNS_4asio12const_bufferES8_S8_NS0_4http12basic_fieldsINSt3__19allocatorIcEEE6writer11field_rangeENS9_10chunk_crlfEEEEEENS9_6detail10chunk_sizeES8_SH_S8_SH_S8_S8_SH_EEEEEEENSB_15aligned_storageILm72ELm8EE4typeEEET_PT0_, symObjAddr: 0x30360, symBinAddr: 0x100033358, symSize: 0x24 }
  - { offsetInCU: 0x20810, offset: 0x20810, size: 0x8, addend: 0x0, symName: __ZN5boost5beast6detail12launder_castIPNS0_19buffers_prefix_viewIRKNS0_14buffers_suffixINS0_16buffers_cat_viewIJNS_4asio12const_bufferES7_NS0_4http10chunk_crlfEEEEEEEENSt3__115aligned_storageILm72ELm8EE4typeEEET_PT0_, symObjAddr: 0x30470, symBinAddr: 0x100033468, symSize: 0x24 }
  - { offsetInCU: 0x2084E, offset: 0x2084E, size: 0x8, addend: 0x0, symName: __ZN5boost5beast6detail12launder_castIPKNS0_16buffers_cat_viewIJNS_4asio12const_bufferES5_S5_NS0_4http12basic_fieldsINSt3__19allocatorIcEEE6writer11field_rangeENS6_10chunk_crlfEEE14const_iteratorEKNS8_15aligned_storageILm24ELm8EE4typeEEET_PT0_, symObjAddr: 0x30F6C, symBinAddr: 0x100033F64, symSize: 0x24 }
  - { offsetInCU: 0x2088C, offset: 0x2088C, size: 0x8, addend: 0x0, symName: __ZN5boost5beast6detail12launder_castIPKPKNS_4asio12const_bufferEKNSt3__115aligned_storageILm24ELm8EE4typeEEET_PT0_, symObjAddr: 0x30FC8, symBinAddr: 0x100033FC0, symSize: 0x24 }
  - { offsetInCU: 0x208CA, offset: 0x208CA, size: 0x8, addend: 0x0, symName: __ZN5boost5beast6detail12launder_castIPKNS1_30buffers_cat_view_iterator_base8past_endEKNSt3__115aligned_storageILm24ELm8EE4typeEEET_PT0_, symObjAddr: 0x30FEC, symBinAddr: 0x100033FE4, symSize: 0x24 }
  - { offsetInCU: 0x20908, offset: 0x20908, size: 0x8, addend: 0x0, symName: __ZN5boost5beast6detail16make_buffers_refINS0_19buffers_prefix_viewIRKNS0_14buffers_suffixINS1_11buffers_refINS0_16buffers_cat_viewIJNS_4asio12const_bufferES8_S8_NS0_4http12basic_fieldsINSt3__19allocatorIcEEE6writer11field_rangeENS9_10chunk_crlfEEEEEEEEEEEENS5_IT_EERKSO_, symObjAddr: 0x32BD0, symBinAddr: 0x100035BC8, symSize: 0x2C }
  - { offsetInCU: 0x2093D, offset: 0x2093D, size: 0x8, addend: 0x0, symName: __ZN5boost5beast6detail16make_buffers_refINS0_19buffers_prefix_viewIRKNS0_14buffers_suffixINS_4asio12const_bufferEEEEEEENS1_11buffers_refIT_EERKSC_, symObjAddr: 0x340AC, symBinAddr: 0x1000370A4, symSize: 0x2C }
  - { offsetInCU: 0x20972, offset: 0x20972, size: 0x8, addend: 0x0, symName: __ZN5boost5beast6detail3getILm1ENS0_4http6detail10chunk_sizeEEERKT0_RKNS1_18tuple_element_implIXT_ES6_EE, symObjAddr: 0x36354, symBinAddr: 0x10003934C, symSize: 0x14 }
  - { offsetInCU: 0x209B1, offset: 0x209B1, size: 0x8, addend: 0x0, symName: __ZN5boost5beast6detail3getILm3ENS0_4http10chunk_crlfEEERKT0_RKNS1_18tuple_element_implIXT_ES5_EE, symObjAddr: 0x36764, symBinAddr: 0x10003975C, symSize: 0x14 }
  - { offsetInCU: 0x209F0, offset: 0x209F0, size: 0x8, addend: 0x0, symName: __ZN5boost5beast6detail3getILm4ENS_4asio12const_bufferEEERKT0_RKNS1_18tuple_element_implIXT_ES5_EE, symObjAddr: 0x36928, symBinAddr: 0x100039920, symSize: 0x14 }
  - { offsetInCU: 0x20A2F, offset: 0x20A2F, size: 0x8, addend: 0x0, symName: __ZN5boost5beast6detail3getILm5ENS0_4http10chunk_crlfEEERKT0_RKNS1_18tuple_element_implIXT_ES5_EE, symObjAddr: 0x36AEC, symBinAddr: 0x100039AE4, symSize: 0x14 }
  - { offsetInCU: 0x20A6E, offset: 0x20A6E, size: 0x8, addend: 0x0, symName: __ZN5boost5beast6detail3getILm6ENS_4asio12const_bufferEEERKT0_RKNS1_18tuple_element_implIXT_ES5_EE, symObjAddr: 0x36CB0, symBinAddr: 0x100039CA8, symSize: 0x14 }
  - { offsetInCU: 0x20AAD, offset: 0x20AAD, size: 0x8, addend: 0x0, symName: __ZN5boost5beast6detail3getILm7ENS_4asio12const_bufferEEERKT0_RKNS1_18tuple_element_implIXT_ES5_EE, symObjAddr: 0x36E74, symBinAddr: 0x100039E6C, symSize: 0x14 }
  - { offsetInCU: 0x20AEC, offset: 0x20AEC, size: 0x8, addend: 0x0, symName: __ZN5boost5beast6detail3getILm8ENS0_4http10chunk_crlfEEERKT0_RKNS1_18tuple_element_implIXT_ES5_EE, symObjAddr: 0x37038, symBinAddr: 0x10003A030, symSize: 0x14 }
  - { offsetInCU: 0x20B2B, offset: 0x20B2B, size: 0x8, addend: 0x0, symName: __ZN5boost5beast6detail16make_buffers_refINS0_19buffers_prefix_viewIRKNS0_14buffers_suffixINS0_16buffers_cat_viewIJNS1_11buffers_refINS5_IJNS_4asio12const_bufferES8_S8_NS0_4http12basic_fieldsINSt3__19allocatorIcEEE6writer11field_rangeENS9_10chunk_crlfEEEEEENS9_6detail10chunk_sizeES8_SH_S8_SH_EEEEEEEEENS6_IT_EERKSR_, symObjAddr: 0x3829C, symBinAddr: 0x10003B294, symSize: 0x2C }
  - { offsetInCU: 0x20B60, offset: 0x20B60, size: 0x8, addend: 0x0, symName: __ZN5boost5beast6detail3getILm0ENS0_4http6detail10chunk_sizeEEERKT0_RKNS1_18tuple_element_implIXT_ES6_EE, symObjAddr: 0x3B11C, symBinAddr: 0x10003E114, symSize: 0x14 }
  - { offsetInCU: 0x20B9F, offset: 0x20B9F, size: 0x8, addend: 0x0, symName: __ZN5boost5beast6detail3getILm2ENS0_4http10chunk_crlfEEERKT0_RKNS1_18tuple_element_implIXT_ES5_EE, symObjAddr: 0x3B4A4, symBinAddr: 0x10003E49C, symSize: 0x14 }
  - { offsetInCU: 0x20BDE, offset: 0x20BDE, size: 0x8, addend: 0x0, symName: __ZN5boost5beast6detail3getILm3ENS_4asio12const_bufferEEERKT0_RKNS1_18tuple_element_implIXT_ES5_EE, symObjAddr: 0x3B668, symBinAddr: 0x10003E660, symSize: 0x14 }
  - { offsetInCU: 0x20C1D, offset: 0x20C1D, size: 0x8, addend: 0x0, symName: __ZN5boost5beast6detail3getILm5ENS_4asio12const_bufferEEERKT0_RKNS1_18tuple_element_implIXT_ES5_EE, symObjAddr: 0x3B9DC, symBinAddr: 0x10003E9D4, symSize: 0x14 }
  - { offsetInCU: 0x20C5C, offset: 0x20C5C, size: 0x8, addend: 0x0, symName: __ZN5boost5beast6detail3getILm7ENS0_4http10chunk_crlfEEERKT0_RKNS1_18tuple_element_implIXT_ES5_EE, symObjAddr: 0x3BD50, symBinAddr: 0x10003ED48, symSize: 0x14 }
  - { offsetInCU: 0x20C9B, offset: 0x20C9B, size: 0x8, addend: 0x0, symName: __ZN5boost5beast6detail16make_buffers_refINS0_19buffers_prefix_viewIRKNS0_14buffers_suffixINS0_16buffers_cat_viewIJNS0_4http6detail10chunk_sizeENS_4asio12const_bufferENS6_10chunk_crlfESA_SB_EEEEEEEEENS1_11buffers_refIT_EERKSI_, symObjAddr: 0x3CCDC, symBinAddr: 0x10003FCD4, symSize: 0x2C }
  - { offsetInCU: 0x20CD0, offset: 0x20CD0, size: 0x8, addend: 0x0, symName: __ZN5boost5beast6detail16make_buffers_refINS0_19buffers_prefix_viewIRKNS0_14buffers_suffixINS0_16buffers_cat_viewIJNS0_4http6detail10chunk_sizeENS_4asio12const_bufferENS6_10chunk_crlfESA_SB_SA_SA_SB_EEEEEEEEENS1_11buffers_refIT_EERKSI_, symObjAddr: 0x3F3E4, symBinAddr: 0x1000423DC, symSize: 0x2C }
  - { offsetInCU: 0x20D05, offset: 0x20D05, size: 0x8, addend: 0x0, symName: __ZN5boost5beast6detail16make_buffers_refINS0_19buffers_prefix_viewIRKNS0_14buffers_suffixINS0_16buffers_cat_viewIJNS1_11buffers_refINS5_IJNS_4asio12const_bufferES8_S8_NS0_4http12basic_fieldsINSt3__19allocatorIcEEE6writer11field_rangeENS9_10chunk_crlfEEEEEENS9_6detail10chunk_sizeES8_SH_S8_SH_S8_S8_SH_EEEEEEEEENS6_IT_EERKSR_, symObjAddr: 0x42098, symBinAddr: 0x100045090, symSize: 0x2C }
  - { offsetInCU: 0x20D3A, offset: 0x20D3A, size: 0x8, addend: 0x0, symName: __ZN5boost5beast6detail16make_buffers_refINS0_19buffers_prefix_viewIRKNS0_14buffers_suffixINS0_16buffers_cat_viewIJNS_4asio12const_bufferES7_NS0_4http10chunk_crlfEEEEEEEEEENS1_11buffers_refIT_EERKSG_, symObjAddr: 0x457F4, symBinAddr: 0x1000487EC, symSize: 0x2C }
  - { offsetInCU: 0x20D70, offset: 0x20D70, size: 0x8, addend: 0x0, symName: __ZN5boost5beast6detail11sum_exceedsImmmEEbT_T0_T1_, symObjAddr: 0x4DF78, symBinAddr: 0x100050F70, symSize: 0x60 }
  - { offsetInCU: 0x20DD8, offset: 0x20DD8, size: 0x8, addend: 0x0, symName: __ZN5boost5beast6detailL5clampIyEEmT_m, symObjAddr: 0x58BE0, symBinAddr: 0x10005BBD8, symSize: 0x48 }
  - { offsetInCU: 0x20E1E, offset: 0x20E1E, size: 0x8, addend: 0x0, symName: __ZN5boost5beast6detail9read_sizeINS0_17basic_flat_bufferINSt3__19allocatorIcEEEEEEmRT_mNS4_17integral_constantIbLb0EEE, symObjAddr: 0x59A10, symBinAddr: 0x10005CA08, symSize: 0xDC }
  - { offsetInCU: 0x20E87, offset: 0x20E87, size: 0x8, addend: 0x0, symName: __ZN5boost5beast6detail12launder_castIPNS0_14buffers_suffixINS1_11buffers_refINS0_16buffers_cat_viewIJNS_4asio12const_bufferES7_S7_NS0_4http12basic_fieldsINSt3__19allocatorIcEEE6writer11field_rangeENS8_10chunk_crlfEEEEEEEENSA_15aligned_storageILm184ELm8EE4typeEEET_PT0_, symObjAddr: 0x5F698, symBinAddr: 0x100062690, symSize: 0x24 }
  - { offsetInCU: 0x20EC5, offset: 0x20EC5, size: 0x8, addend: 0x0, symName: __ZN5boost5beast6detail12launder_castIPNS0_14buffers_suffixINS0_16buffers_cat_viewIJNS1_11buffers_refINS4_IJNS_4asio12const_bufferES7_S7_NS0_4http12basic_fieldsINSt3__19allocatorIcEEE6writer11field_rangeENS8_10chunk_crlfEEEEEENS0_18basic_multi_bufferISC_E8subrangeILb0EEEEEEEENSA_15aligned_storageILm184ELm8EE4typeEEET_PT0_, symObjAddr: 0x5F6BC, symBinAddr: 0x1000626B4, symSize: 0x24 }
  - { offsetInCU: 0x20F03, offset: 0x20F03, size: 0x8, addend: 0x0, symName: __ZN5boost5beast6detail12launder_castIPNS0_18basic_multi_bufferINSt3__19allocatorIcEEE8subrangeILb0EE14const_iteratorENS4_15aligned_storageILm24ELm8EE4typeEEET_PT0_, symObjAddr: 0x5F9F0, symBinAddr: 0x1000629E8, symSize: 0x24 }
  - { offsetInCU: 0x20F41, offset: 0x20F41, size: 0x8, addend: 0x0, symName: __ZN5boost5beast6detail12launder_castIPNS0_14buffers_suffixINS0_18basic_multi_bufferINSt3__19allocatorIcEEE8subrangeILb0EEEEENS5_15aligned_storageILm184ELm8EE4typeEEET_PT0_, symObjAddr: 0x5FA4C, symBinAddr: 0x100062A44, symSize: 0x24 }
  - { offsetInCU: 0x20F7F, offset: 0x20F7F, size: 0x8, addend: 0x0, symName: __ZN5boost5beast6detail12launder_castIPNS0_14buffers_suffixINS0_16buffers_cat_viewIJNS1_11buffers_refINS4_IJNS_4asio12const_bufferES7_S7_NS0_4http12basic_fieldsINSt3__19allocatorIcEEE6writer11field_rangeENS8_10chunk_crlfEEEEEENS8_6detail10chunk_sizeES7_SG_NS0_18basic_multi_bufferISC_E8subrangeILb0EEESG_EEEEENSA_15aligned_storageILm184ELm8EE4typeEEET_PT0_, symObjAddr: 0x5FAA8, symBinAddr: 0x100062AA0, symSize: 0x24 }
  - { offsetInCU: 0x20FBD, offset: 0x20FBD, size: 0x8, addend: 0x0, symName: __ZN5boost5beast6detail12launder_castIPNS0_14buffers_suffixINS0_16buffers_cat_viewIJNS0_4http6detail10chunk_sizeENS_4asio12const_bufferENS5_10chunk_crlfENS0_18basic_multi_bufferINSt3__19allocatorIcEEE8subrangeILb0EEESA_EEEEENSC_15aligned_storageILm184ELm8EE4typeEEET_PT0_, symObjAddr: 0x5FF9C, symBinAddr: 0x100062F94, symSize: 0x24 }
  - { offsetInCU: 0x20FFB, offset: 0x20FFB, size: 0x8, addend: 0x0, symName: __ZN5boost5beast6detail12launder_castIPPKNS_4asio12const_bufferENSt3__115aligned_storageILm16ELm8EE4typeEEET_PT0_, symObjAddr: 0x603B8, symBinAddr: 0x1000633B0, symSize: 0x24 }
  - { offsetInCU: 0x21039, offset: 0x21039, size: 0x8, addend: 0x0, symName: __ZN5boost5beast6detail12launder_castIPNS0_18basic_multi_bufferINSt3__19allocatorIcEEE8subrangeILb0EE14const_iteratorENS4_15aligned_storageILm16ELm8EE4typeEEET_PT0_, symObjAddr: 0x603DC, symBinAddr: 0x1000633D4, symSize: 0x24 }
  - { offsetInCU: 0x21077, offset: 0x21077, size: 0x8, addend: 0x0, symName: __ZN5boost5beast6detail12launder_castIPNS1_30buffers_cat_view_iterator_base8past_endENSt3__115aligned_storageILm16ELm8EE4typeEEET_PT0_, symObjAddr: 0x60400, symBinAddr: 0x1000633F8, symSize: 0x24 }
  - { offsetInCU: 0x210B5, offset: 0x210B5, size: 0x8, addend: 0x0, symName: __ZN5boost5beast6detail12launder_castIPNS0_14buffers_suffixINS0_16buffers_cat_viewIJNS0_4http6detail10chunk_sizeENS_4asio12const_bufferENS5_10chunk_crlfENS0_18basic_multi_bufferINSt3__19allocatorIcEEE8subrangeILb0EEESA_S9_S9_SA_EEEEENSC_15aligned_storageILm184ELm8EE4typeEEET_PT0_, symObjAddr: 0x604D4, symBinAddr: 0x1000634CC, symSize: 0x24 }
  - { offsetInCU: 0x210F3, offset: 0x210F3, size: 0x8, addend: 0x0, symName: __ZN5boost5beast6detail12launder_castIPNS0_14buffers_suffixINS0_16buffers_cat_viewIJNS1_11buffers_refINS4_IJNS_4asio12const_bufferES7_S7_NS0_4http12basic_fieldsINSt3__19allocatorIcEEE6writer11field_rangeENS8_10chunk_crlfEEEEEENS8_6detail10chunk_sizeES7_SG_NS0_18basic_multi_bufferISC_E8subrangeILb0EEESG_S7_S7_SG_EEEEENSA_15aligned_storageILm184ELm8EE4typeEEET_PT0_, symObjAddr: 0x60A30, symBinAddr: 0x100063A28, symSize: 0x24 }
  - { offsetInCU: 0x21131, offset: 0x21131, size: 0x8, addend: 0x0, symName: __ZN5boost5beast6detail12launder_castIPNS0_14buffers_suffixINS0_16buffers_cat_viewIJNS_4asio12const_bufferES6_NS0_4http10chunk_crlfEEEEEENSt3__115aligned_storageILm184ELm8EE4typeEEET_PT0_, symObjAddr: 0x60FCC, symBinAddr: 0x100063FC4, symSize: 0x24 }
  - { offsetInCU: 0x2116F, offset: 0x2116F, size: 0x8, addend: 0x0, symName: __ZN5boost5beast6detail3getILm1ENS0_18basic_multi_bufferINSt3__19allocatorIcEEE8subrangeILb0EEEEERKT0_RKNS1_18tuple_element_implIXT_ESA_EE, symObjAddr: 0x61618, symBinAddr: 0x100064610, symSize: 0x14 }
  - { offsetInCU: 0x211AE, offset: 0x211AE, size: 0x8, addend: 0x0, symName: __ZN5boost5beast6detail16make_buffers_refINS0_19buffers_prefix_viewIRKNS0_14buffers_suffixINS0_16buffers_cat_viewIJNS1_11buffers_refINS5_IJNS_4asio12const_bufferES8_S8_NS0_4http12basic_fieldsINSt3__19allocatorIcEEE6writer11field_rangeENS9_10chunk_crlfEEEEEENS0_18basic_multi_bufferISD_E8subrangeILb0EEEEEEEEEEEENS6_IT_EERKST_, symObjAddr: 0x622A8, symBinAddr: 0x1000652A0, symSize: 0x2C }
  - { offsetInCU: 0x211E3, offset: 0x211E3, size: 0x8, addend: 0x0, symName: __ZN5boost5beast6detail12launder_castIPNS0_19buffers_prefix_viewIRKNS0_14buffers_suffixINS0_16buffers_cat_viewIJNS1_11buffers_refINS5_IJNS_4asio12const_bufferES8_S8_NS0_4http12basic_fieldsINSt3__19allocatorIcEEE6writer11field_rangeENS9_10chunk_crlfEEEEEENS0_18basic_multi_bufferISD_E8subrangeILb0EEEEEEEEEENSB_15aligned_storageILm72ELm8EE4typeEEET_PT0_, symObjAddr: 0x626B4, symBinAddr: 0x1000656AC, symSize: 0x24 }
  - { offsetInCU: 0x21221, offset: 0x21221, size: 0x8, addend: 0x0, symName: __ZN5boost5beast6detail12launder_castIPNS0_19buffers_prefix_viewIRKNS0_14buffers_suffixINS0_18basic_multi_bufferINSt3__19allocatorIcEEE8subrangeILb0EEEEEEENS6_15aligned_storageILm72ELm8EE4typeEEET_PT0_, symObjAddr: 0x627C4, symBinAddr: 0x1000657BC, symSize: 0x24 }
  - { offsetInCU: 0x2125F, offset: 0x2125F, size: 0x8, addend: 0x0, symName: __ZN5boost5beast6detail12launder_castIPNS0_19buffers_prefix_viewIRKNS0_14buffers_suffixINS0_16buffers_cat_viewIJNS1_11buffers_refINS5_IJNS_4asio12const_bufferES8_S8_NS0_4http12basic_fieldsINSt3__19allocatorIcEEE6writer11field_rangeENS9_10chunk_crlfEEEEEENS9_6detail10chunk_sizeES8_SH_NS0_18basic_multi_bufferISD_E8subrangeILb0EEESH_EEEEEEENSB_15aligned_storageILm72ELm8EE4typeEEET_PT0_, symObjAddr: 0x62820, symBinAddr: 0x100065818, symSize: 0x24 }
  - { offsetInCU: 0x2129D, offset: 0x2129D, size: 0x8, addend: 0x0, symName: __ZN5boost5beast6detail12launder_castIPNS0_19buffers_prefix_viewIRKNS0_14buffers_suffixINS0_16buffers_cat_viewIJNS0_4http6detail10chunk_sizeENS_4asio12const_bufferENS6_10chunk_crlfENS0_18basic_multi_bufferINSt3__19allocatorIcEEE8subrangeILb0EEESB_EEEEEEENSD_15aligned_storageILm72ELm8EE4typeEEET_PT0_, symObjAddr: 0x62930, symBinAddr: 0x100065928, symSize: 0x24 }
  - { offsetInCU: 0x212DB, offset: 0x212DB, size: 0x8, addend: 0x0, symName: __ZN5boost5beast6detail12launder_castIPNS0_19buffers_prefix_viewIRKNS0_14buffers_suffixINS0_16buffers_cat_viewIJNS0_4http6detail10chunk_sizeENS_4asio12const_bufferENS6_10chunk_crlfENS0_18basic_multi_bufferINSt3__19allocatorIcEEE8subrangeILb0EEESB_SA_SA_SB_EEEEEEENSD_15aligned_storageILm72ELm8EE4typeEEET_PT0_, symObjAddr: 0x62A40, symBinAddr: 0x100065A38, symSize: 0x24 }
  - { offsetInCU: 0x21319, offset: 0x21319, size: 0x8, addend: 0x0, symName: __ZN5boost5beast6detail12launder_castIPNS0_19buffers_prefix_viewIRKNS0_14buffers_suffixINS0_16buffers_cat_viewIJNS1_11buffers_refINS5_IJNS_4asio12const_bufferES8_S8_NS0_4http12basic_fieldsINSt3__19allocatorIcEEE6writer11field_rangeENS9_10chunk_crlfEEEEEENS9_6detail10chunk_sizeES8_SH_NS0_18basic_multi_bufferISD_E8subrangeILb0EEESH_S8_S8_SH_EEEEEEENSB_15aligned_storageILm72ELm8EE4typeEEET_PT0_, symObjAddr: 0x62B50, symBinAddr: 0x100065B48, symSize: 0x24 }
  - { offsetInCU: 0x21357, offset: 0x21357, size: 0x8, addend: 0x0, symName: __ZN5boost5beast6detail12launder_castIPKNS0_18basic_multi_bufferINSt3__19allocatorIcEEE8subrangeILb0EE14const_iteratorEKNS4_15aligned_storageILm24ELm8EE4typeEEET_PT0_, symObjAddr: 0x6364C, symBinAddr: 0x100066644, symSize: 0x24 }
  - { offsetInCU: 0x21395, offset: 0x21395, size: 0x8, addend: 0x0, symName: __ZN5boost5beast6detail3getILm4ENS0_18basic_multi_bufferINSt3__19allocatorIcEEE8subrangeILb0EEEEERKT0_RKNS1_18tuple_element_implIXT_ESA_EE, symObjAddr: 0x68548, symBinAddr: 0x10006B540, symSize: 0x14 }
  - { offsetInCU: 0x213D4, offset: 0x213D4, size: 0x8, addend: 0x0, symName: __ZN5boost5beast6detail12launder_castIPKPKNS_4asio12const_bufferEKNSt3__115aligned_storageILm16ELm8EE4typeEEET_PT0_, symObjAddr: 0x693B8, symBinAddr: 0x10006C3B0, symSize: 0x24 }
  - { offsetInCU: 0x21412, offset: 0x21412, size: 0x8, addend: 0x0, symName: __ZN5boost5beast6detail12launder_castIPKNS0_18basic_multi_bufferINSt3__19allocatorIcEEE8subrangeILb0EE14const_iteratorEKNS4_15aligned_storageILm16ELm8EE4typeEEET_PT0_, symObjAddr: 0x693DC, symBinAddr: 0x10006C3D4, symSize: 0x24 }
  - { offsetInCU: 0x21450, offset: 0x21450, size: 0x8, addend: 0x0, symName: __ZN5boost5beast6detail12launder_castIPKNS1_30buffers_cat_view_iterator_base8past_endEKNSt3__115aligned_storageILm16ELm8EE4typeEEET_PT0_, symObjAddr: 0x69400, symBinAddr: 0x10006C3F8, symSize: 0x24 }
  - { offsetInCU: 0x2148E, offset: 0x2148E, size: 0x8, addend: 0x0, symName: __ZN5boost5beast6detail3getILm3ENS0_18basic_multi_bufferINSt3__19allocatorIcEEE8subrangeILb0EEEEERKT0_RKNS1_18tuple_element_implIXT_ESA_EE, symObjAddr: 0x6A708, symBinAddr: 0x10006D700, symSize: 0x14 }
  - { offsetInCU: 0x214CD, offset: 0x214CD, size: 0x8, addend: 0x0, symName: __ZN5boost5beast6detail16make_buffers_refINS0_19buffers_prefix_viewIRKNS0_14buffers_suffixINS0_18basic_multi_bufferINSt3__19allocatorIcEEE8subrangeILb0EEEEEEEEENS1_11buffers_refIT_EERKSH_, symObjAddr: 0x7126C, symBinAddr: 0x100074264, symSize: 0x2C }
  - { offsetInCU: 0x21502, offset: 0x21502, size: 0x8, addend: 0x0, symName: __ZN5boost5beast6detail16make_buffers_refINS0_19buffers_prefix_viewIRKNS0_14buffers_suffixINS0_16buffers_cat_viewIJNS1_11buffers_refINS5_IJNS_4asio12const_bufferES8_S8_NS0_4http12basic_fieldsINSt3__19allocatorIcEEE6writer11field_rangeENS9_10chunk_crlfEEEEEENS9_6detail10chunk_sizeES8_SH_NS0_18basic_multi_bufferISD_E8subrangeILb0EEESH_EEEEEEEEENS6_IT_EERKSV_, symObjAddr: 0x72CF0, symBinAddr: 0x100075CE8, symSize: 0x2C }
  - { offsetInCU: 0x21537, offset: 0x21537, size: 0x8, addend: 0x0, symName: __ZN5boost5beast6detail16make_buffers_refINS0_19buffers_prefix_viewIRKNS0_14buffers_suffixINS0_16buffers_cat_viewIJNS0_4http6detail10chunk_sizeENS_4asio12const_bufferENS6_10chunk_crlfENS0_18basic_multi_bufferINSt3__19allocatorIcEEE8subrangeILb0EEESB_EEEEEEEEENS1_11buffers_refIT_EERKSP_, symObjAddr: 0x74894, symBinAddr: 0x10007788C, symSize: 0x2C }
  - { offsetInCU: 0x2156C, offset: 0x2156C, size: 0x8, addend: 0x0, symName: __ZN5boost5beast6detail16make_buffers_refINS0_19buffers_prefix_viewIRKNS0_14buffers_suffixINS0_16buffers_cat_viewIJNS0_4http6detail10chunk_sizeENS_4asio12const_bufferENS6_10chunk_crlfENS0_18basic_multi_bufferINSt3__19allocatorIcEEE8subrangeILb0EEESB_SA_SA_SB_EEEEEEEEENS1_11buffers_refIT_EERKSP_, symObjAddr: 0x759B8, symBinAddr: 0x1000789B0, symSize: 0x2C }
  - { offsetInCU: 0x215A1, offset: 0x215A1, size: 0x8, addend: 0x0, symName: __ZN5boost5beast6detail16make_buffers_refINS0_19buffers_prefix_viewIRKNS0_14buffers_suffixINS0_16buffers_cat_viewIJNS1_11buffers_refINS5_IJNS_4asio12const_bufferES8_S8_NS0_4http12basic_fieldsINSt3__19allocatorIcEEE6writer11field_rangeENS9_10chunk_crlfEEEEEENS9_6detail10chunk_sizeES8_SH_NS0_18basic_multi_bufferISD_E8subrangeILb0EEESH_S8_S8_SH_EEEEEEEEENS6_IT_EERKSV_, symObjAddr: 0x76ADC, symBinAddr: 0x100079AD4, symSize: 0x2C }
  - { offsetInCU: 0x2AD5C, offset: 0x2AD5C, size: 0x8, addend: 0x0, symName: __ZN5boost5beast7iequalsENS_4core17basic_string_viewIcEES3_, symObjAddr: 0x1FF40, symBinAddr: 0x100022F38, symSize: 0x1B0 }
  - { offsetInCU: 0x2ADF5, offset: 0x2ADF5, size: 0x8, addend: 0x0, symName: __ZN5boost5beast9read_sizeINS0_17basic_flat_bufferINSt3__19allocatorIcEEEEEEmRT_m, symObjAddr: 0x536A8, symBinAddr: 0x1000566A0, symSize: 0x2C }
  - { offsetInCU: 0x2AE39, offset: 0x2AE39, size: 0x8, addend: 0x0, symName: __ZN5boost5beast17buffers_range_refINS0_6detail11buffers_refINS0_19buffers_prefix_viewIRKNS0_14buffers_suffixINS0_16buffers_cat_viewIJNS3_INS6_IJNS_4asio12const_bufferES8_S8_NS0_4http12basic_fieldsINSt3__19allocatorIcEEE6writer11field_rangeENS9_10chunk_crlfEEEEEENS0_18basic_multi_bufferISD_E8subrangeILb0EEEEEEEEEEEEEENS2_21buffers_range_adaptorIRKT_EESX_, symObjAddr: 0x6425C, symBinAddr: 0x100067254, symSize: 0x2C }
  - { offsetInCU: 0x2AE71, offset: 0x2AE71, size: 0x8, addend: 0x0, symName: __ZN5boost5beast17buffers_range_refINS0_6detail11buffers_refINS0_19buffers_prefix_viewIRKNS0_14buffers_suffixINS3_INS0_16buffers_cat_viewIJNS_4asio12const_bufferES8_S8_NS0_4http12basic_fieldsINSt3__19allocatorIcEEE6writer11field_rangeENS9_10chunk_crlfEEEEEEEEEEEEEENS2_21buffers_range_adaptorIRKT_EESS_, symObjAddr: 0x70CEC, symBinAddr: 0x100073CE4, symSize: 0x2C }
  - { offsetInCU: 0x2AEA9, offset: 0x2AEA9, size: 0x8, addend: 0x0, symName: __ZN5boost5beast17buffers_range_refINS0_6detail11buffers_refINS0_19buffers_prefix_viewIRKNS0_14buffers_suffixINS0_18basic_multi_bufferINSt3__19allocatorIcEEE8subrangeILb0EEEEEEEEEEENS2_21buffers_range_adaptorIRKT_EESL_, symObjAddr: 0x71660, symBinAddr: 0x100074658, symSize: 0x2C }
  - { offsetInCU: 0x2AEE1, offset: 0x2AEE1, size: 0x8, addend: 0x0, symName: __ZN5boost5beast17buffers_range_refINS0_6detail11buffers_refINS0_19buffers_prefix_viewIRKNS0_14buffers_suffixINS0_16buffers_cat_viewIJNS3_INS6_IJNS_4asio12const_bufferES8_S8_NS0_4http12basic_fieldsINSt3__19allocatorIcEEE6writer11field_rangeENS9_10chunk_crlfEEEEEENS9_6detail10chunk_sizeES8_SH_NS0_18basic_multi_bufferISD_E8subrangeILb0EEESH_EEEEEEEEEEENS2_21buffers_range_adaptorIRKT_EESZ_, symObjAddr: 0x732A8, symBinAddr: 0x1000762A0, symSize: 0x2C }
  - { offsetInCU: 0x2AF19, offset: 0x2AF19, size: 0x8, addend: 0x0, symName: __ZN5boost5beast17buffers_range_refINS0_6detail11buffers_refINS0_19buffers_prefix_viewIRKNS0_14buffers_suffixINS0_16buffers_cat_viewIJNS0_4http6detail10chunk_sizeENS_4asio12const_bufferENS7_10chunk_crlfENS0_18basic_multi_bufferINSt3__19allocatorIcEEE8subrangeILb0EEESC_EEEEEEEEEEENS2_21buffers_range_adaptorIRKT_EEST_, symObjAddr: 0x74E48, symBinAddr: 0x100077E40, symSize: 0x2C }
  - { offsetInCU: 0x2AF51, offset: 0x2AF51, size: 0x8, addend: 0x0, symName: __ZN5boost5beast17buffers_range_refINS0_6detail11buffers_refINS0_19buffers_prefix_viewIRKNS0_14buffers_suffixINS0_16buffers_cat_viewIJNS0_4http6detail10chunk_sizeENS_4asio12const_bufferENS7_10chunk_crlfENS0_18basic_multi_bufferINSt3__19allocatorIcEEE8subrangeILb0EEESC_SB_SB_SC_EEEEEEEEEEENS2_21buffers_range_adaptorIRKT_EEST_, symObjAddr: 0x75F6C, symBinAddr: 0x100078F64, symSize: 0x2C }
  - { offsetInCU: 0x2AF89, offset: 0x2AF89, size: 0x8, addend: 0x0, symName: __ZN5boost5beast17buffers_range_refINS0_6detail11buffers_refINS0_19buffers_prefix_viewIRKNS0_14buffers_suffixINS0_16buffers_cat_viewIJNS3_INS6_IJNS_4asio12const_bufferES8_S8_NS0_4http12basic_fieldsINSt3__19allocatorIcEEE6writer11field_rangeENS9_10chunk_crlfEEEEEENS9_6detail10chunk_sizeES8_SH_NS0_18basic_multi_bufferISD_E8subrangeILb0EEESH_S8_S8_SH_EEEEEEEEEEENS2_21buffers_range_adaptorIRKT_EESZ_, symObjAddr: 0x77094, symBinAddr: 0x10007A08C, symSize: 0x2C }
  - { offsetInCU: 0x2AFC1, offset: 0x2AFC1, size: 0x8, addend: 0x0, symName: __ZN5boost5beast17buffers_range_refINS0_6detail11buffers_refINS0_19buffers_prefix_viewIRKNS0_14buffers_suffixINS0_16buffers_cat_viewIJNS_4asio12const_bufferES8_NS0_4http10chunk_crlfEEEEEEEEEEEENS2_21buffers_range_adaptorIRKT_EESK_, symObjAddr: 0x77C68, symBinAddr: 0x10007AC60, symSize: 0x2C }
  - { offsetInCU: 0x2B836, offset: 0x2B836, size: 0x8, addend: 0x0, symName: __ZN5boost4noneE, symObjAddr: 0x877BF, symBinAddr: 0x10008BBDF, symSize: 0x0 }
  - { offsetInCU: 0x2D051, offset: 0x2D051, size: 0x8, addend: 0x0, symName: __ZN5boost9intrusive6detailL6uncastIPKNS0_11rbtree_nodeIPvEEEENS1_12uncast_typesIT_E17non_const_pointerERKS9_, symObjAddr: 0x208E0, symBinAddr: 0x1000238D8, symSize: 0x20 }
  - { offsetInCU: 0x2D0F6, offset: 0x2D0F6, size: 0x8, addend: 0x0, symName: __ZN5boost9intrusive6detailL6uncastIPKNS0_9list_nodeIPvEEEENS1_12uncast_typesIT_E17non_const_pointerERKS9_, symObjAddr: 0x283DC, symBinAddr: 0x10002B3D4, symSize: 0x20 }
  - { offsetInCU: 0x2D14E, offset: 0x2D14E, size: 0x8, addend: 0x0, symName: __ZN5boost9intrusive6detailL6uncastIPKNS_5beast4http12basic_fieldsINSt3__19allocatorIcEEE7elementEEENS1_12uncast_typesIT_E17non_const_pointerERKSE_, symObjAddr: 0x296D8, symBinAddr: 0x10002C6D0, symSize: 0x20 }
  - { offsetInCU: 0x345E8, offset: 0x345E8, size: 0x8, addend: 0x0, symName: __ZN5boost4mp1113mp_with_indexILm9ENS_5beast6detail7variantIJNS2_14buffers_suffixINS3_11buffers_refINS2_16buffers_cat_viewIJNS_4asio12const_bufferES9_S9_NS2_4http12basic_fieldsINSt3__19allocatorIcEEE6writer11field_rangeENSA_10chunk_crlfEEEEEEEENS5_INS7_IJSK_S9_EEEEENS5_IS9_EENS5_INS7_IJSK_NSA_6detail10chunk_sizeES9_SI_S9_SI_EEEEENS5_INS7_IJSQ_S9_SI_S9_SI_EEEEENS5_INS7_IJSQ_S9_SI_S9_SI_S9_S9_SI_EEEEENS5_INS7_IJSK_SQ_S9_SI_S9_SI_S9_S9_SI_EEEEENS5_INS7_IJS9_S9_SI_EEEEEEE7destroyEEEDTclclsr3stdE7declvalIT0_EEclL_ZNSC_7declvalINSC_17integral_constantImLm0EEEEEDTclsr3stdE9__declvalIT_ELi0EEEvEEEEmOS13_, symObjAddr: 0x2A3CC, symBinAddr: 0x10002D3C4, symSize: 0x64 }
  - { offsetInCU: 0x36523, offset: 0x36523, size: 0x8, addend: 0x0, symName: __ZN5boost4mp1113mp_with_indexILm7ENS_5beast6detail7variantIJPKNS_4asio12const_bufferES8_S8_NS2_4http12basic_fieldsINSt3__19allocatorIcEEE6writer14field_iteratorES8_NS3_30buffers_cat_view_iterator_base8past_endEEE7destroyEEEDTclclsr3stdE7declvalIT0_EEclL_ZNSB_7declvalINSB_17integral_constantImLm0EEEEEDTclsr3stdE9__declvalIT_ELi0EEEvEEEEmOSL_, symObjAddr: 0x2A8A0, symBinAddr: 0x10002D898, symSize: 0x64 }
  - { offsetInCU: 0x36570, offset: 0x36570, size: 0x8, addend: 0x0, symName: __ZN5boost4mp1113mp_with_indexILm4ENS_5beast6detail7variantIJNS2_16buffers_cat_viewIJNS_4asio12const_bufferES7_S7_NS2_4http12basic_fieldsINSt3__19allocatorIcEEE6writer11field_rangeENS8_10chunk_crlfEEE14const_iteratorEPKS7_NS3_30buffers_cat_view_iterator_base8past_endEEE7destroyEEEDTclclsr3stdE7declvalIT0_EEclL_ZNSA_7declvalINSA_17integral_constantImLm0EEEEEDTclsr3stdE9__declvalIT_ELi0EEEvEEEEmOSP_, symObjAddr: 0x2AD9C, symBinAddr: 0x10002DD94, symSize: 0x64 }
  - { offsetInCU: 0x365BD, offset: 0x365BD, size: 0x8, addend: 0x0, symName: __ZN5boost4mp1113mp_with_indexILm8ENS_5beast6detail7variantIJNS2_16buffers_cat_viewIJNS_4asio12const_bufferES7_S7_NS2_4http12basic_fieldsINSt3__19allocatorIcEEE6writer11field_rangeENS8_10chunk_crlfEEE14const_iteratorEPKS7_SK_SK_SK_SK_NS3_30buffers_cat_view_iterator_base8past_endEEE7destroyEEEDTclclsr3stdE7declvalIT0_EEclL_ZNSA_7declvalINSA_17integral_constantImLm0EEEEEDTclsr3stdE9__declvalIT_ELi0EEEvEEEEmOSP_, symObjAddr: 0x2B21C, symBinAddr: 0x10002E214, symSize: 0x64 }
  - { offsetInCU: 0x3660A, offset: 0x3660A, size: 0x8, addend: 0x0, symName: __ZN5boost4mp1113mp_with_indexILm7ENS_5beast6detail7variantIJPKNS_4asio12const_bufferES8_S8_S8_S8_NS3_30buffers_cat_view_iterator_base8past_endEEE7destroyEEEDTclclsr3stdE7declvalIT0_EEclL_ZNSt3__17declvalINSE_17integral_constantImLm0EEEEEDTclsr3stdE9__declvalIT_ELi0EEEvEEEEmOSD_, symObjAddr: 0x2B814, symBinAddr: 0x10002E80C, symSize: 0x64 }
  - { offsetInCU: 0x36657, offset: 0x36657, size: 0x8, addend: 0x0, symName: __ZN5boost4mp1113mp_with_indexILm10ENS_5beast6detail7variantIJPKNS_4asio12const_bufferES8_S8_S8_S8_S8_S8_S8_NS3_30buffers_cat_view_iterator_base8past_endEEE7destroyEEEDTclclsr3stdE7declvalIT0_EEclL_ZNSt3__17declvalINSE_17integral_constantImLm0EEEEEDTclsr3stdE9__declvalIT_ELi0EEEvEEEEmOSD_, symObjAddr: 0x2BCF4, symBinAddr: 0x10002ECEC, symSize: 0x64 }
  - { offsetInCU: 0x366A4, offset: 0x366A4, size: 0x8, addend: 0x0, symName: __ZN5boost4mp1113mp_with_indexILm11ENS_5beast6detail7variantIJNS2_16buffers_cat_viewIJNS_4asio12const_bufferES7_S7_NS2_4http12basic_fieldsINSt3__19allocatorIcEEE6writer11field_rangeENS8_10chunk_crlfEEE14const_iteratorEPKS7_SK_SK_SK_SK_SK_SK_SK_NS3_30buffers_cat_view_iterator_base8past_endEEE7destroyEEEDTclclsr3stdE7declvalIT0_EEclL_ZNSA_7declvalINSA_17integral_constantImLm0EEEEEDTclsr3stdE9__declvalIT_ELi0EEEvEEEEmOSP_, symObjAddr: 0x2C250, symBinAddr: 0x10002F248, symSize: 0x64 }
  - { offsetInCU: 0x366F1, offset: 0x366F1, size: 0x8, addend: 0x0, symName: __ZN5boost4mp1113mp_with_indexILm5ENS_5beast6detail7variantIJPKNS_4asio12const_bufferES8_S8_NS3_30buffers_cat_view_iterator_base8past_endEEE7destroyEEEDTclclsr3stdE7declvalIT0_EEclL_ZNSt3__17declvalINSE_17integral_constantImLm0EEEEEDTclsr3stdE9__declvalIT_ELi0EEEvEEEEmOSD_, symObjAddr: 0x2C7B8, symBinAddr: 0x10002F7B0, symSize: 0x64 }
  - { offsetInCU: 0x36756, offset: 0x36756, size: 0x8, addend: 0x0, symName: __ZN5boost4mp1113mp_with_indexILm7ENS_5beast6detail7variantIJPKNS_4asio12const_bufferES8_S8_NS2_4http12basic_fieldsINSt3__19allocatorIcEEE6writer14field_iteratorES8_NS3_30buffers_cat_view_iterator_base8past_endEEE4copyEEEDTclclsr3stdE7declvalIT0_EEclL_ZNSB_7declvalINSB_17integral_constantImLm0EEEEEDTclsr3stdE9__declvalIT_ELi0EEEvEEEEmOSL_, symObjAddr: 0x2D01C, symBinAddr: 0x100030014, symSize: 0x64 }
  - { offsetInCU: 0x36808, offset: 0x36808, size: 0x8, addend: 0x0, symName: __ZN5boost4mp1113mp_with_indexILm7ENS_5beast6detail7variantIJPKNS_4asio12const_bufferES8_S8_NS2_4http12basic_fieldsINSt3__19allocatorIcEEE6writer14field_iteratorES8_NS3_30buffers_cat_view_iterator_base8past_endEEE6equalsEEEDTclclsr3stdE7declvalIT0_EEclL_ZNSB_7declvalINSB_17integral_constantImLm0EEEEEDTclsr3stdE9__declvalIT_ELi0EEEvEEEEmOSL_, symObjAddr: 0x2E72C, symBinAddr: 0x100031724, symSize: 0x68 }
  - { offsetInCU: 0x36858, offset: 0x36858, size: 0x8, addend: 0x0, symName: __ZN5boost4mp1113mp_with_indexILm7ENS_5beast16buffers_cat_viewIJNS_4asio12const_bufferES5_S5_NS2_4http12basic_fieldsINSt3__19allocatorIcEEE6writer11field_rangeENS6_10chunk_crlfEEE14const_iterator11dereferenceEEEDTclclsr3stdE7declvalIT0_EEclL_ZNS8_7declvalINS8_17integral_constantImLm0EEEEEDTclsr3stdE9__declvalIT_ELi0EEEvEEEEmOSI_, symObjAddr: 0x2EBF8, symBinAddr: 0x100031BF0, symSize: 0x74 }
  - { offsetInCU: 0x368B6, offset: 0x368B6, size: 0x8, addend: 0x0, symName: __ZN5boost4mp1113mp_with_indexILm7ENS_5beast16buffers_cat_viewIJNS_4asio12const_bufferES5_S5_NS2_4http12basic_fieldsINSt3__19allocatorIcEEE6writer11field_rangeENS6_10chunk_crlfEEE14const_iterator9incrementEEEDTclclsr3stdE7declvalIT0_EEclL_ZNS8_7declvalINS8_17integral_constantImLm0EEEEEDTclsr3stdE9__declvalIT_ELi0EEEvEEEEmOSI_, symObjAddr: 0x2F23C, symBinAddr: 0x100032234, symSize: 0x64 }
  - { offsetInCU: 0x3692A, offset: 0x3692A, size: 0x8, addend: 0x0, symName: __ZN5boost4mp1113mp_with_indexILm9ENS_5beast6detail7variantIJNS2_19buffers_prefix_viewIRKNS2_14buffers_suffixINS3_11buffers_refINS2_16buffers_cat_viewIJNS_4asio12const_bufferESA_SA_NS2_4http12basic_fieldsINSt3__19allocatorIcEEE6writer11field_rangeENSB_10chunk_crlfEEEEEEEEEENS5_IRKNS6_INS8_IJSL_SA_EEEEEEENS5_IRKNS6_ISA_EEEENS5_IRKNS6_INS8_IJSL_NSB_6detail10chunk_sizeESA_SJ_SA_SJ_EEEEEEENS5_IRKNS6_INS8_IJS10_SA_SJ_SA_SJ_EEEEEEENS5_IRKNS6_INS8_IJS10_SA_SJ_SA_SJ_SA_SA_SJ_EEEEEEENS5_IRKNS6_INS8_IJSL_S10_SA_SJ_SA_SJ_SA_SA_SJ_EEEEEEENS5_IRKNS6_INS8_IJSA_SA_SJ_EEEEEEEEE7destroyEEEDTclclsr3stdE7declvalIT0_EEclL_ZNSD_7declvalINSD_17integral_constantImLm0EEEEEDTclsr3stdE9__declvalIT_ELi0EEEvEEEEmOS1S_, symObjAddr: 0x2FA94, symBinAddr: 0x100032A8C, symSize: 0x64 }
  - { offsetInCU: 0x36977, offset: 0x36977, size: 0x8, addend: 0x0, symName: __ZN5boost4mp1113mp_with_indexILm4ENS_5beast6detail7variantIJNS2_16buffers_cat_viewIJNS_4asio12const_bufferES7_S7_NS2_4http12basic_fieldsINSt3__19allocatorIcEEE6writer11field_rangeENS8_10chunk_crlfEEE14const_iteratorEPKS7_NS3_30buffers_cat_view_iterator_base8past_endEEE4copyEEEDTclclsr3stdE7declvalIT0_EEclL_ZNSA_7declvalINSA_17integral_constantImLm0EEEEEDTclsr3stdE9__declvalIT_ELi0EEEvEEEEmOSP_, symObjAddr: 0x30D80, symBinAddr: 0x100033D78, symSize: 0x64 }
  - { offsetInCU: 0x369C3, offset: 0x369C3, size: 0x8, addend: 0x0, symName: __ZN5boost4mp1113mp_with_indexILm4ENS_5beast6detail7variantIJNS2_16buffers_cat_viewIJNS_4asio12const_bufferES7_S7_NS2_4http12basic_fieldsINSt3__19allocatorIcEEE6writer11field_rangeENS8_10chunk_crlfEEE14const_iteratorEPKS7_NS3_30buffers_cat_view_iterator_base8past_endEEE6equalsEEEDTclclsr3stdE7declvalIT0_EEclL_ZNSA_7declvalINSA_17integral_constantImLm0EEEEEDTclsr3stdE9__declvalIT_ELi0EEEvEEEEmOSP_, symObjAddr: 0x31358, symBinAddr: 0x100034350, symSize: 0x68 }
  - { offsetInCU: 0x36A14, offset: 0x36A14, size: 0x8, addend: 0x0, symName: __ZN5boost4mp1113mp_with_indexILm4ENS_5beast16buffers_cat_viewIJNS2_6detail11buffers_refINS3_IJNS_4asio12const_bufferES7_S7_NS2_4http12basic_fieldsINSt3__19allocatorIcEEE6writer11field_rangeENS8_10chunk_crlfEEEEEES7_EE14const_iterator9incrementEEEDTclclsr3stdE7declvalIT0_EEclL_ZNSA_7declvalINSA_17integral_constantImLm0EEEEEDTclsr3stdE9__declvalIT_ELi0EEEvEEEEmOSM_, symObjAddr: 0x3167C, symBinAddr: 0x100034674, symSize: 0x64 }
  - { offsetInCU: 0x36A60, offset: 0x36A60, size: 0x8, addend: 0x0, symName: __ZN5boost4mp1113mp_with_indexILm4ENS_5beast16buffers_cat_viewIJNS2_6detail11buffers_refINS3_IJNS_4asio12const_bufferES7_S7_NS2_4http12basic_fieldsINSt3__19allocatorIcEEE6writer11field_rangeENS8_10chunk_crlfEEEEEES7_EE14const_iterator11dereferenceEEEDTclclsr3stdE7declvalIT0_EEclL_ZNSA_7declvalINSA_17integral_constantImLm0EEEEEDTclsr3stdE9__declvalIT_ELi0EEEvEEEEmOSM_, symObjAddr: 0x31980, symBinAddr: 0x100034978, symSize: 0x74 }
  - { offsetInCU: 0x36BFF, offset: 0x36BFF, size: 0x8, addend: 0x0, symName: __ZN5boost4mp1113mp_with_indexILm8ENS_5beast6detail7variantIJNS2_16buffers_cat_viewIJNS_4asio12const_bufferES7_S7_NS2_4http12basic_fieldsINSt3__19allocatorIcEEE6writer11field_rangeENS8_10chunk_crlfEEE14const_iteratorEPKS7_SK_SK_SK_SK_NS3_30buffers_cat_view_iterator_base8past_endEEE4copyEEEDTclclsr3stdE7declvalIT0_EEclL_ZNSA_7declvalINSA_17integral_constantImLm0EEEEEDTclsr3stdE9__declvalIT_ELi0EEEvEEEEmOSP_, symObjAddr: 0x38B68, symBinAddr: 0x10003BB60, symSize: 0x64 }
  - { offsetInCU: 0x36C4B, offset: 0x36C4B, size: 0x8, addend: 0x0, symName: __ZN5boost4mp1113mp_with_indexILm8ENS_5beast6detail7variantIJNS2_16buffers_cat_viewIJNS_4asio12const_bufferES7_S7_NS2_4http12basic_fieldsINSt3__19allocatorIcEEE6writer11field_rangeENS8_10chunk_crlfEEE14const_iteratorEPKS7_SK_SK_SK_SK_NS3_30buffers_cat_view_iterator_base8past_endEEE6equalsEEEDTclclsr3stdE7declvalIT0_EEclL_ZNSA_7declvalINSA_17integral_constantImLm0EEEEEDTclsr3stdE9__declvalIT_ELi0EEEvEEEEmOSP_, symObjAddr: 0x3921C, symBinAddr: 0x10003C214, symSize: 0x68 }
  - { offsetInCU: 0x36C9C, offset: 0x36C9C, size: 0x8, addend: 0x0, symName: __ZN5boost4mp1113mp_with_indexILm8ENS_5beast16buffers_cat_viewIJNS2_6detail11buffers_refINS3_IJNS_4asio12const_bufferES7_S7_NS2_4http12basic_fieldsINSt3__19allocatorIcEEE6writer11field_rangeENS8_10chunk_crlfEEEEEENS8_6detail10chunk_sizeES7_SG_S7_SG_EE14const_iterator9incrementEEEDTclclsr3stdE7declvalIT0_EEclL_ZNSA_7declvalINSA_17integral_constantImLm0EEEEEDTclsr3stdE9__declvalIT_ELi0EEEvEEEEmOSO_, symObjAddr: 0x39700, symBinAddr: 0x10003C6F8, symSize: 0x64 }
  - { offsetInCU: 0x36CE8, offset: 0x36CE8, size: 0x8, addend: 0x0, symName: __ZN5boost4mp1113mp_with_indexILm8ENS_5beast16buffers_cat_viewIJNS2_6detail11buffers_refINS3_IJNS_4asio12const_bufferES7_S7_NS2_4http12basic_fieldsINSt3__19allocatorIcEEE6writer11field_rangeENS8_10chunk_crlfEEEEEENS8_6detail10chunk_sizeES7_SG_S7_SG_EE14const_iterator11dereferenceEEEDTclclsr3stdE7declvalIT0_EEclL_ZNSA_7declvalINSA_17integral_constantImLm0EEEEEDTclsr3stdE9__declvalIT_ELi0EEEvEEEEmOSO_, symObjAddr: 0x39AA4, symBinAddr: 0x10003CA9C, symSize: 0x74 }
  - { offsetInCU: 0x36E21, offset: 0x36E21, size: 0x8, addend: 0x0, symName: __ZN5boost4mp1113mp_with_indexILm7ENS_5beast6detail7variantIJPKNS_4asio12const_bufferES8_S8_S8_S8_NS3_30buffers_cat_view_iterator_base8past_endEEE4copyEEEDTclclsr3stdE7declvalIT0_EEclL_ZNSt3__17declvalINSE_17integral_constantImLm0EEEEEDTclsr3stdE9__declvalIT_ELi0EEEvEEEEmOSD_, symObjAddr: 0x3D594, symBinAddr: 0x10004058C, symSize: 0x64 }
  - { offsetInCU: 0x36E6D, offset: 0x36E6D, size: 0x8, addend: 0x0, symName: __ZN5boost4mp1113mp_with_indexILm7ENS_5beast6detail7variantIJPKNS_4asio12const_bufferES8_S8_S8_S8_NS3_30buffers_cat_view_iterator_base8past_endEEE6equalsEEEDTclclsr3stdE7declvalIT0_EEclL_ZNSt3__17declvalINSE_17integral_constantImLm0EEEEEDTclsr3stdE9__declvalIT_ELi0EEEvEEEEmOSD_, symObjAddr: 0x3DBE4, symBinAddr: 0x100040BDC, symSize: 0x68 }
  - { offsetInCU: 0x36EBE, offset: 0x36EBE, size: 0x8, addend: 0x0, symName: __ZN5boost4mp1113mp_with_indexILm7ENS_5beast16buffers_cat_viewIJNS2_4http6detail10chunk_sizeENS_4asio12const_bufferENS4_10chunk_crlfES8_S9_EE14const_iterator9incrementEEEDTclclsr3stdE7declvalIT0_EEclL_ZNSt3__17declvalINSE_17integral_constantImLm0EEEEEDTclsr3stdE9__declvalIT_ELi0EEEvEEEEmOSD_, symObjAddr: 0x3E060, symBinAddr: 0x100041058, symSize: 0x64 }
  - { offsetInCU: 0x36F0A, offset: 0x36F0A, size: 0x8, addend: 0x0, symName: __ZN5boost4mp1113mp_with_indexILm7ENS_5beast16buffers_cat_viewIJNS2_4http6detail10chunk_sizeENS_4asio12const_bufferENS4_10chunk_crlfES8_S9_EE14const_iterator11dereferenceEEEDTclclsr3stdE7declvalIT0_EEclL_ZNSt3__17declvalINSE_17integral_constantImLm0EEEEEDTclsr3stdE9__declvalIT_ELi0EEEvEEEEmOSD_, symObjAddr: 0x3E3B8, symBinAddr: 0x1000413B0, symSize: 0x74 }
  - { offsetInCU: 0x36F82, offset: 0x36F82, size: 0x8, addend: 0x0, symName: __ZN5boost4mp1113mp_with_indexILm10ENS_5beast6detail7variantIJPKNS_4asio12const_bufferES8_S8_S8_S8_S8_S8_S8_NS3_30buffers_cat_view_iterator_base8past_endEEE4copyEEEDTclclsr3stdE7declvalIT0_EEclL_ZNSt3__17declvalINSE_17integral_constantImLm0EEEEEDTclsr3stdE9__declvalIT_ELi0EEEvEEEEmOSD_, symObjAddr: 0x3FC9C, symBinAddr: 0x100042C94, symSize: 0x64 }
  - { offsetInCU: 0x36FCE, offset: 0x36FCE, size: 0x8, addend: 0x0, symName: __ZN5boost4mp1113mp_with_indexILm10ENS_5beast6detail7variantIJPKNS_4asio12const_bufferES8_S8_S8_S8_S8_S8_S8_NS3_30buffers_cat_view_iterator_base8past_endEEE6equalsEEEDTclclsr3stdE7declvalIT0_EEclL_ZNSt3__17declvalINSE_17integral_constantImLm0EEEEEDTclsr3stdE9__declvalIT_ELi0EEEvEEEEmOSD_, symObjAddr: 0x4040C, symBinAddr: 0x100043404, symSize: 0x68 }
  - { offsetInCU: 0x3701F, offset: 0x3701F, size: 0x8, addend: 0x0, symName: __ZN5boost4mp1113mp_with_indexILm10ENS_5beast16buffers_cat_viewIJNS2_4http6detail10chunk_sizeENS_4asio12const_bufferENS4_10chunk_crlfES8_S9_S8_S8_S9_EE14const_iterator9incrementEEEDTclclsr3stdE7declvalIT0_EEclL_ZNSt3__17declvalINSE_17integral_constantImLm0EEEEEDTclsr3stdE9__declvalIT_ELi0EEEvEEEEmOSD_, symObjAddr: 0x409D8, symBinAddr: 0x1000439D0, symSize: 0x64 }
  - { offsetInCU: 0x3706B, offset: 0x3706B, size: 0x8, addend: 0x0, symName: __ZN5boost4mp1113mp_with_indexILm10ENS_5beast16buffers_cat_viewIJNS2_4http6detail10chunk_sizeENS_4asio12const_bufferENS4_10chunk_crlfES8_S9_S8_S8_S9_EE14const_iterator11dereferenceEEEDTclclsr3stdE7declvalIT0_EEclL_ZNSt3__17declvalINSE_17integral_constantImLm0EEEEEDTclsr3stdE9__declvalIT_ELi0EEEvEEEEmOSD_, symObjAddr: 0x40E38, symBinAddr: 0x100043E30, symSize: 0x74 }
  - { offsetInCU: 0x370E3, offset: 0x370E3, size: 0x8, addend: 0x0, symName: __ZN5boost4mp1113mp_with_indexILm11ENS_5beast6detail7variantIJNS2_16buffers_cat_viewIJNS_4asio12const_bufferES7_S7_NS2_4http12basic_fieldsINSt3__19allocatorIcEEE6writer11field_rangeENS8_10chunk_crlfEEE14const_iteratorEPKS7_SK_SK_SK_SK_SK_SK_SK_NS3_30buffers_cat_view_iterator_base8past_endEEE4copyEEEDTclclsr3stdE7declvalIT0_EEclL_ZNSA_7declvalINSA_17integral_constantImLm0EEEEEDTclsr3stdE9__declvalIT_ELi0EEEvEEEEmOSP_, symObjAddr: 0x42964, symBinAddr: 0x10004595C, symSize: 0x64 }
  - { offsetInCU: 0x3712F, offset: 0x3712F, size: 0x8, addend: 0x0, symName: __ZN5boost4mp1113mp_with_indexILm11ENS_5beast6detail7variantIJNS2_16buffers_cat_viewIJNS_4asio12const_bufferES7_S7_NS2_4http12basic_fieldsINSt3__19allocatorIcEEE6writer11field_rangeENS8_10chunk_crlfEEE14const_iteratorEPKS7_SK_SK_SK_SK_SK_SK_SK_NS3_30buffers_cat_view_iterator_base8past_endEEE6equalsEEEDTclclsr3stdE7declvalIT0_EEclL_ZNSA_7declvalINSA_17integral_constantImLm0EEEEEDTclsr3stdE9__declvalIT_ELi0EEEvEEEEmOSP_, symObjAddr: 0x43138, symBinAddr: 0x100046130, symSize: 0x68 }
  - { offsetInCU: 0x37180, offset: 0x37180, size: 0x8, addend: 0x0, symName: __ZN5boost4mp1113mp_with_indexILm11ENS_5beast16buffers_cat_viewIJNS2_6detail11buffers_refINS3_IJNS_4asio12const_bufferES7_S7_NS2_4http12basic_fieldsINSt3__19allocatorIcEEE6writer11field_rangeENS8_10chunk_crlfEEEEEENS8_6detail10chunk_sizeES7_SG_S7_SG_S7_S7_SG_EE14const_iterator9incrementEEEDTclclsr3stdE7declvalIT0_EEclL_ZNSA_7declvalINSA_17integral_constantImLm0EEEEEDTclsr3stdE9__declvalIT_ELi0EEEvEEEEmOSO_, symObjAddr: 0x4376C, symBinAddr: 0x100046764, symSize: 0x64 }
  - { offsetInCU: 0x371CC, offset: 0x371CC, size: 0x8, addend: 0x0, symName: __ZN5boost4mp1113mp_with_indexILm11ENS_5beast16buffers_cat_viewIJNS2_6detail11buffers_refINS3_IJNS_4asio12const_bufferES7_S7_NS2_4http12basic_fieldsINSt3__19allocatorIcEEE6writer11field_rangeENS8_10chunk_crlfEEEEEENS8_6detail10chunk_sizeES7_SG_S7_SG_S7_S7_SG_EE14const_iterator11dereferenceEEEDTclclsr3stdE7declvalIT0_EEclL_ZNSA_7declvalINSA_17integral_constantImLm0EEEEEDTclsr3stdE9__declvalIT_ELi0EEEvEEEEmOSO_, symObjAddr: 0x43C18, symBinAddr: 0x100046C10, symSize: 0x74 }
  - { offsetInCU: 0x37283, offset: 0x37283, size: 0x8, addend: 0x0, symName: __ZN5boost4mp1113mp_with_indexILm5ENS_5beast6detail7variantIJPKNS_4asio12const_bufferES8_S8_NS3_30buffers_cat_view_iterator_base8past_endEEE4copyEEEDTclclsr3stdE7declvalIT0_EEclL_ZNSt3__17declvalINSE_17integral_constantImLm0EEEEEDTclsr3stdE9__declvalIT_ELi0EEEvEEEEmOSD_, symObjAddr: 0x460AC, symBinAddr: 0x1000490A4, symSize: 0x64 }
  - { offsetInCU: 0x372CF, offset: 0x372CF, size: 0x8, addend: 0x0, symName: __ZN5boost4mp1113mp_with_indexILm5ENS_5beast6detail7variantIJPKNS_4asio12const_bufferES8_S8_NS3_30buffers_cat_view_iterator_base8past_endEEE6equalsEEEDTclclsr3stdE7declvalIT0_EEclL_ZNSt3__17declvalINSE_17integral_constantImLm0EEEEEDTclsr3stdE9__declvalIT_ELi0EEEvEEEEmOSD_, symObjAddr: 0x4663C, symBinAddr: 0x100049634, symSize: 0x68 }
  - { offsetInCU: 0x37320, offset: 0x37320, size: 0x8, addend: 0x0, symName: __ZN5boost4mp1113mp_with_indexILm5ENS_5beast16buffers_cat_viewIJNS_4asio12const_bufferES5_NS2_4http10chunk_crlfEEE14const_iterator9incrementEEEDTclclsr3stdE7declvalIT0_EEclL_ZNSt3__17declvalINSC_17integral_constantImLm0EEEEEDTclsr3stdE9__declvalIT_ELi0EEEvEEEEmOSB_, symObjAddr: 0x469D8, symBinAddr: 0x1000499D0, symSize: 0x64 }
  - { offsetInCU: 0x3736C, offset: 0x3736C, size: 0x8, addend: 0x0, symName: __ZN5boost4mp1113mp_with_indexILm5ENS_5beast16buffers_cat_viewIJNS_4asio12const_bufferES5_NS2_4http10chunk_crlfEEE14const_iterator11dereferenceEEEDTclclsr3stdE7declvalIT0_EEclL_ZNSt3__17declvalINSC_17integral_constantImLm0EEEEEDTclsr3stdE9__declvalIT_ELi0EEEvEEEEmOSB_, symObjAddr: 0x46C80, symBinAddr: 0x100049C78, symSize: 0x74 }
  - { offsetInCU: 0x373CA, offset: 0x373CA, size: 0x8, addend: 0x0, symName: __ZN5boost4mp1113mp_with_indexILm9ENS_5beast6detail7variantIJNS2_14buffers_suffixINS3_11buffers_refINS2_16buffers_cat_viewIJNS_4asio12const_bufferES9_S9_NS2_4http12basic_fieldsINSt3__19allocatorIcEEE6writer11field_rangeENSA_10chunk_crlfEEEEEEEENS5_INS7_IJSK_NS2_18basic_multi_bufferISE_E8subrangeILb0EEEEEEEENS5_ISP_EENS5_INS7_IJSK_NSA_6detail10chunk_sizeES9_SI_SP_SI_EEEEENS5_INS7_IJSU_S9_SI_SP_SI_EEEEENS5_INS7_IJSU_S9_SI_SP_SI_S9_S9_SI_EEEEENS5_INS7_IJSK_SU_S9_SI_SP_SI_S9_S9_SI_EEEEENS5_INS7_IJS9_S9_SI_EEEEEEE7destroyEEEDTclclsr3stdE7declvalIT0_EEclL_ZNSC_7declvalINSC_17integral_constantImLm0EEEEEDTclsr3stdE9__declvalIT_ELi0EEEvEEEEmOS17_, symObjAddr: 0x5F378, symBinAddr: 0x100062370, symSize: 0x64 }
  - { offsetInCU: 0x37417, offset: 0x37417, size: 0x8, addend: 0x0, symName: __ZN5boost4mp1113mp_with_indexILm4ENS_5beast6detail7variantIJNS2_16buffers_cat_viewIJNS_4asio12const_bufferES7_S7_NS2_4http12basic_fieldsINSt3__19allocatorIcEEE6writer11field_rangeENS8_10chunk_crlfEEE14const_iteratorENS2_18basic_multi_bufferISC_E8subrangeILb0EE14const_iteratorENS3_30buffers_cat_view_iterator_base8past_endEEE7destroyEEEDTclclsr3stdE7declvalIT0_EEclL_ZNSA_7declvalINSA_17integral_constantImLm0EEEEEDTclsr3stdE9__declvalIT_ELi0EEEvEEEEmOSS_, symObjAddr: 0x5F870, symBinAddr: 0x100062868, symSize: 0x64 }
  - { offsetInCU: 0x37464, offset: 0x37464, size: 0x8, addend: 0x0, symName: __ZN5boost4mp1113mp_with_indexILm8ENS_5beast6detail7variantIJNS2_16buffers_cat_viewIJNS_4asio12const_bufferES7_S7_NS2_4http12basic_fieldsINSt3__19allocatorIcEEE6writer11field_rangeENS8_10chunk_crlfEEE14const_iteratorEPKS7_SK_SK_NS2_18basic_multi_bufferISC_E8subrangeILb0EE14const_iteratorESK_NS3_30buffers_cat_view_iterator_base8past_endEEE7destroyEEEDTclclsr3stdE7declvalIT0_EEclL_ZNSA_7declvalINSA_17integral_constantImLm0EEEEEDTclsr3stdE9__declvalIT_ELi0EEEvEEEEmOSU_, symObjAddr: 0x5FC90, symBinAddr: 0x100062C88, symSize: 0x64 }
  - { offsetInCU: 0x374B1, offset: 0x374B1, size: 0x8, addend: 0x0, symName: __ZN5boost4mp1113mp_with_indexILm7ENS_5beast6detail7variantIJPKNS_4asio12const_bufferES8_S8_NS2_18basic_multi_bufferINSt3__19allocatorIcEEE8subrangeILb0EE14const_iteratorES8_NS3_30buffers_cat_view_iterator_base8past_endEEE7destroyEEEDTclclsr3stdE7declvalIT0_EEclL_ZNSA_7declvalINSA_17integral_constantImLm0EEEEEDTclsr3stdE9__declvalIT_ELi0EEEvEEEEmOSL_, symObjAddr: 0x60184, symBinAddr: 0x10006317C, symSize: 0x64 }
  - { offsetInCU: 0x374FE, offset: 0x374FE, size: 0x8, addend: 0x0, symName: __ZN5boost4mp1113mp_with_indexILm10ENS_5beast6detail7variantIJPKNS_4asio12const_bufferES8_S8_NS2_18basic_multi_bufferINSt3__19allocatorIcEEE8subrangeILb0EE14const_iteratorES8_S8_S8_S8_NS3_30buffers_cat_view_iterator_base8past_endEEE7destroyEEEDTclclsr3stdE7declvalIT0_EEclL_ZNSA_7declvalINSA_17integral_constantImLm0EEEEEDTclsr3stdE9__declvalIT_ELi0EEEvEEEEmOSL_, symObjAddr: 0x606BC, symBinAddr: 0x1000636B4, symSize: 0x64 }
  - { offsetInCU: 0x3754B, offset: 0x3754B, size: 0x8, addend: 0x0, symName: __ZN5boost4mp1113mp_with_indexILm11ENS_5beast6detail7variantIJNS2_16buffers_cat_viewIJNS_4asio12const_bufferES7_S7_NS2_4http12basic_fieldsINSt3__19allocatorIcEEE6writer11field_rangeENS8_10chunk_crlfEEE14const_iteratorEPKS7_SK_SK_NS2_18basic_multi_bufferISC_E8subrangeILb0EE14const_iteratorESK_SK_SK_SK_NS3_30buffers_cat_view_iterator_base8past_endEEE7destroyEEEDTclclsr3stdE7declvalIT0_EEclL_ZNSA_7declvalINSA_17integral_constantImLm0EEEEEDTclsr3stdE9__declvalIT_ELi0EEEvEEEEmOSU_, symObjAddr: 0x60C18, symBinAddr: 0x100063C10, symSize: 0x64 }
  - { offsetInCU: 0x375CC, offset: 0x375CC, size: 0x8, addend: 0x0, symName: __ZN5boost4mp1113mp_with_indexILm9ENS_5beast6detail7variantIJNS2_19buffers_prefix_viewIRKNS2_14buffers_suffixINS3_11buffers_refINS2_16buffers_cat_viewIJNS_4asio12const_bufferESA_SA_NS2_4http12basic_fieldsINSt3__19allocatorIcEEE6writer11field_rangeENSB_10chunk_crlfEEEEEEEEEENS5_IRKNS6_INS8_IJSL_NS2_18basic_multi_bufferISF_E8subrangeILb0EEEEEEEEEENS5_IRKNS6_IST_EEEENS5_IRKNS6_INS8_IJSL_NSB_6detail10chunk_sizeESA_SJ_ST_SJ_EEEEEEENS5_IRKNS6_INS8_IJS14_SA_SJ_ST_SJ_EEEEEEENS5_IRKNS6_INS8_IJS14_SA_SJ_ST_SJ_SA_SA_SJ_EEEEEEENS5_IRKNS6_INS8_IJSL_S14_SA_SJ_ST_SJ_SA_SA_SJ_EEEEEEENS5_IRKNS6_INS8_IJSA_SA_SJ_EEEEEEEEE7destroyEEEDTclclsr3stdE7declvalIT0_EEclL_ZNSD_7declvalINSD_17integral_constantImLm0EEEEEDTclsr3stdE9__declvalIT_ELi0EEEvEEEEmOS1W_, symObjAddr: 0x623B4, symBinAddr: 0x1000653AC, symSize: 0x64 }
  - { offsetInCU: 0x37619, offset: 0x37619, size: 0x8, addend: 0x0, symName: __ZN5boost4mp1113mp_with_indexILm4ENS_5beast6detail7variantIJNS2_16buffers_cat_viewIJNS_4asio12const_bufferES7_S7_NS2_4http12basic_fieldsINSt3__19allocatorIcEEE6writer11field_rangeENS8_10chunk_crlfEEE14const_iteratorENS2_18basic_multi_bufferISC_E8subrangeILb0EE14const_iteratorENS3_30buffers_cat_view_iterator_base8past_endEEE4copyEEEDTclclsr3stdE7declvalIT0_EEclL_ZNSA_7declvalINSA_17integral_constantImLm0EEEEEDTclsr3stdE9__declvalIT_ELi0EEEvEEEEmOSS_, symObjAddr: 0x63460, symBinAddr: 0x100066458, symSize: 0x64 }
  - { offsetInCU: 0x37665, offset: 0x37665, size: 0x8, addend: 0x0, symName: __ZN5boost4mp1113mp_with_indexILm4ENS_5beast6detail7variantIJNS2_16buffers_cat_viewIJNS_4asio12const_bufferES7_S7_NS2_4http12basic_fieldsINSt3__19allocatorIcEEE6writer11field_rangeENS8_10chunk_crlfEEE14const_iteratorENS2_18basic_multi_bufferISC_E8subrangeILb0EE14const_iteratorENS3_30buffers_cat_view_iterator_base8past_endEEE6equalsEEEDTclclsr3stdE7declvalIT0_EEclL_ZNSA_7declvalINSA_17integral_constantImLm0EEEEEDTclsr3stdE9__declvalIT_ELi0EEEvEEEEmOSS_, symObjAddr: 0x639F0, symBinAddr: 0x1000669E8, symSize: 0x68 }
  - { offsetInCU: 0x376B6, offset: 0x376B6, size: 0x8, addend: 0x0, symName: __ZN5boost4mp1113mp_with_indexILm4ENS_5beast16buffers_cat_viewIJNS2_6detail11buffers_refINS3_IJNS_4asio12const_bufferES7_S7_NS2_4http12basic_fieldsINSt3__19allocatorIcEEE6writer11field_rangeENS8_10chunk_crlfEEEEEENS2_18basic_multi_bufferISC_E8subrangeILb0EEEEE14const_iterator9incrementEEEDTclclsr3stdE7declvalIT0_EEclL_ZNSA_7declvalINSA_17integral_constantImLm0EEEEEDTclsr3stdE9__declvalIT_ELi0EEEvEEEEmOSQ_, symObjAddr: 0x63D0C, symBinAddr: 0x100066D04, symSize: 0x64 }
  - { offsetInCU: 0x37702, offset: 0x37702, size: 0x8, addend: 0x0, symName: __ZN5boost4mp1113mp_with_indexILm4ENS_5beast16buffers_cat_viewIJNS2_6detail11buffers_refINS3_IJNS_4asio12const_bufferES7_S7_NS2_4http12basic_fieldsINSt3__19allocatorIcEEE6writer11field_rangeENS8_10chunk_crlfEEEEEENS2_18basic_multi_bufferISC_E8subrangeILb0EEEEE14const_iterator11dereferenceEEEDTclclsr3stdE7declvalIT0_EEclL_ZNSA_7declvalINSA_17integral_constantImLm0EEEEEDTclsr3stdE9__declvalIT_ELi0EEEvEEEEmOSQ_, symObjAddr: 0x63F44, symBinAddr: 0x100066F3C, symSize: 0x74 }
  - { offsetInCU: 0x377BB, offset: 0x377BB, size: 0x8, addend: 0x0, symName: __ZN5boost4mp1113mp_with_indexILm8ENS_5beast6detail7variantIJNS2_16buffers_cat_viewIJNS_4asio12const_bufferES7_S7_NS2_4http12basic_fieldsINSt3__19allocatorIcEEE6writer11field_rangeENS8_10chunk_crlfEEE14const_iteratorEPKS7_SK_SK_NS2_18basic_multi_bufferISC_E8subrangeILb0EE14const_iteratorESK_NS3_30buffers_cat_view_iterator_base8past_endEEE4copyEEEDTclclsr3stdE7declvalIT0_EEclL_ZNSA_7declvalINSA_17integral_constantImLm0EEEEEDTclsr3stdE9__declvalIT_ELi0EEEvEEEEmOSU_, symObjAddr: 0x66B70, symBinAddr: 0x100069B68, symSize: 0x64 }
  - { offsetInCU: 0x37807, offset: 0x37807, size: 0x8, addend: 0x0, symName: __ZN5boost4mp1113mp_with_indexILm8ENS_5beast6detail7variantIJNS2_16buffers_cat_viewIJNS_4asio12const_bufferES7_S7_NS2_4http12basic_fieldsINSt3__19allocatorIcEEE6writer11field_rangeENS8_10chunk_crlfEEE14const_iteratorEPKS7_SK_SK_NS2_18basic_multi_bufferISC_E8subrangeILb0EE14const_iteratorESK_NS3_30buffers_cat_view_iterator_base8past_endEEE6equalsEEEDTclclsr3stdE7declvalIT0_EEclL_ZNSA_7declvalINSA_17integral_constantImLm0EEEEEDTclsr3stdE9__declvalIT_ELi0EEEvEEEEmOSU_, symObjAddr: 0x67044, symBinAddr: 0x10006A03C, symSize: 0x68 }
  - { offsetInCU: 0x37857, offset: 0x37857, size: 0x8, addend: 0x0, symName: __ZN5boost4mp1113mp_with_indexILm8ENS_5beast16buffers_cat_viewIJNS2_6detail11buffers_refINS3_IJNS_4asio12const_bufferES7_S7_NS2_4http12basic_fieldsINSt3__19allocatorIcEEE6writer11field_rangeENS8_10chunk_crlfEEEEEENS8_6detail10chunk_sizeES7_SG_NS2_18basic_multi_bufferISC_E8subrangeILb0EEESG_EE14const_iterator11dereferenceEEEDTclclsr3stdE7declvalIT0_EEclL_ZNSA_7declvalINSA_17integral_constantImLm0EEEEEDTclsr3stdE9__declvalIT_ELi0EEEvEEEEmOSS_, symObjAddr: 0x6748C, symBinAddr: 0x10006A484, symSize: 0x74 }
  - { offsetInCU: 0x37903, offset: 0x37903, size: 0x8, addend: 0x0, symName: __ZN5boost4mp1113mp_with_indexILm8ENS_5beast16buffers_cat_viewIJNS2_6detail11buffers_refINS3_IJNS_4asio12const_bufferES7_S7_NS2_4http12basic_fieldsINSt3__19allocatorIcEEE6writer11field_rangeENS8_10chunk_crlfEEEEEENS8_6detail10chunk_sizeES7_SG_NS2_18basic_multi_bufferISC_E8subrangeILb0EEESG_EE14const_iterator9incrementEEEDTclclsr3stdE7declvalIT0_EEclL_ZNSA_7declvalINSA_17integral_constantImLm0EEEEEDTclsr3stdE9__declvalIT_ELi0EEEvEEEEmOSS_, symObjAddr: 0x67AF4, symBinAddr: 0x10006AAEC, symSize: 0x64 }
  - { offsetInCU: 0x37950, offset: 0x37950, size: 0x8, addend: 0x0, symName: __ZN5boost4mp1113mp_with_indexILm7ENS_5beast6detail7variantIJPKNS_4asio12const_bufferES8_S8_NS2_18basic_multi_bufferINSt3__19allocatorIcEEE8subrangeILb0EE14const_iteratorES8_NS3_30buffers_cat_view_iterator_base8past_endEEE4copyEEEDTclclsr3stdE7declvalIT0_EEclL_ZNSA_7declvalINSA_17integral_constantImLm0EEEEEDTclsr3stdE9__declvalIT_ELi0EEEvEEEEmOSL_, symObjAddr: 0x690AC, symBinAddr: 0x10006C0A4, symSize: 0x64 }
  - { offsetInCU: 0x3799C, offset: 0x3799C, size: 0x8, addend: 0x0, symName: __ZN5boost4mp1113mp_with_indexILm7ENS_5beast6detail7variantIJPKNS_4asio12const_bufferES8_S8_NS2_18basic_multi_bufferINSt3__19allocatorIcEEE8subrangeILb0EE14const_iteratorES8_NS3_30buffers_cat_view_iterator_base8past_endEEE6equalsEEEDTclclsr3stdE7declvalIT0_EEclL_ZNSA_7declvalINSA_17integral_constantImLm0EEEEEDTclsr3stdE9__declvalIT_ELi0EEEvEEEEmOSL_, symObjAddr: 0x6958C, symBinAddr: 0x10006C584, symSize: 0x68 }
  - { offsetInCU: 0x379EC, offset: 0x379EC, size: 0x8, addend: 0x0, symName: __ZN5boost4mp1113mp_with_indexILm7ENS_5beast16buffers_cat_viewIJNS2_4http6detail10chunk_sizeENS_4asio12const_bufferENS4_10chunk_crlfENS2_18basic_multi_bufferINSt3__19allocatorIcEEE8subrangeILb0EEES9_EE14const_iterator11dereferenceEEEDTclclsr3stdE7declvalIT0_EEclL_ZNSB_7declvalINSB_17integral_constantImLm0EEEEEDTclsr3stdE9__declvalIT_ELi0EEEvEEEEmOSK_, symObjAddr: 0x6996C, symBinAddr: 0x10006C964, symSize: 0x74 }
  - { offsetInCU: 0x37A8B, offset: 0x37A8B, size: 0x8, addend: 0x0, symName: __ZN5boost4mp1113mp_with_indexILm7ENS_5beast16buffers_cat_viewIJNS2_4http6detail10chunk_sizeENS_4asio12const_bufferENS4_10chunk_crlfENS2_18basic_multi_bufferINSt3__19allocatorIcEEE8subrangeILb0EEES9_EE14const_iterator9incrementEEEDTclclsr3stdE7declvalIT0_EEclL_ZNSB_7declvalINSB_17integral_constantImLm0EEEEEDTclsr3stdE9__declvalIT_ELi0EEEvEEEEmOSK_, symObjAddr: 0x69F18, symBinAddr: 0x10006CF10, symSize: 0x64 }
  - { offsetInCU: 0x37AD8, offset: 0x37AD8, size: 0x8, addend: 0x0, symName: __ZN5boost4mp1113mp_with_indexILm10ENS_5beast6detail7variantIJPKNS_4asio12const_bufferES8_S8_NS2_18basic_multi_bufferINSt3__19allocatorIcEEE8subrangeILb0EE14const_iteratorES8_S8_S8_S8_NS3_30buffers_cat_view_iterator_base8past_endEEE4copyEEEDTclclsr3stdE7declvalIT0_EEclL_ZNSA_7declvalINSA_17integral_constantImLm0EEEEEDTclsr3stdE9__declvalIT_ELi0EEEvEEEEmOSL_, symObjAddr: 0x6B26C, symBinAddr: 0x10006E264, symSize: 0x64 }
  - { offsetInCU: 0x37B24, offset: 0x37B24, size: 0x8, addend: 0x0, symName: __ZN5boost4mp1113mp_with_indexILm10ENS_5beast6detail7variantIJPKNS_4asio12const_bufferES8_S8_NS2_18basic_multi_bufferINSt3__19allocatorIcEEE8subrangeILb0EE14const_iteratorES8_S8_S8_S8_NS3_30buffers_cat_view_iterator_base8past_endEEE6equalsEEEDTclclsr3stdE7declvalIT0_EEclL_ZNSA_7declvalINSA_17integral_constantImLm0EEEEEDTclsr3stdE9__declvalIT_ELi0EEEvEEEEmOSL_, symObjAddr: 0x6B800, symBinAddr: 0x10006E7F8, symSize: 0x68 }
  - { offsetInCU: 0x37B74, offset: 0x37B74, size: 0x8, addend: 0x0, symName: __ZN5boost4mp1113mp_with_indexILm10ENS_5beast16buffers_cat_viewIJNS2_4http6detail10chunk_sizeENS_4asio12const_bufferENS4_10chunk_crlfENS2_18basic_multi_bufferINSt3__19allocatorIcEEE8subrangeILb0EEES9_S8_S8_S9_EE14const_iterator11dereferenceEEEDTclclsr3stdE7declvalIT0_EEclL_ZNSB_7declvalINSB_17integral_constantImLm0EEEEEDTclsr3stdE9__declvalIT_ELi0EEEvEEEEmOSK_, symObjAddr: 0x6BD30, symBinAddr: 0x10006ED28, symSize: 0x74 }
  - { offsetInCU: 0x37C3A, offset: 0x37C3A, size: 0x8, addend: 0x0, symName: __ZN5boost4mp1113mp_with_indexILm10ENS_5beast16buffers_cat_viewIJNS2_4http6detail10chunk_sizeENS_4asio12const_bufferENS4_10chunk_crlfENS2_18basic_multi_bufferINSt3__19allocatorIcEEE8subrangeILb0EEES9_S8_S8_S9_EE14const_iterator9incrementEEEDTclclsr3stdE7declvalIT0_EEclL_ZNSB_7declvalINSB_17integral_constantImLm0EEEEEDTclsr3stdE9__declvalIT_ELi0EEEvEEEEmOSK_, symObjAddr: 0x6C510, symBinAddr: 0x10006F508, symSize: 0x64 }
  - { offsetInCU: 0x37C87, offset: 0x37C87, size: 0x8, addend: 0x0, symName: __ZN5boost4mp1113mp_with_indexILm11ENS_5beast6detail7variantIJNS2_16buffers_cat_viewIJNS_4asio12const_bufferES7_S7_NS2_4http12basic_fieldsINSt3__19allocatorIcEEE6writer11field_rangeENS8_10chunk_crlfEEE14const_iteratorEPKS7_SK_SK_NS2_18basic_multi_bufferISC_E8subrangeILb0EE14const_iteratorESK_SK_SK_SK_NS3_30buffers_cat_view_iterator_base8past_endEEE4copyEEEDTclclsr3stdE7declvalIT0_EEclL_ZNSA_7declvalINSA_17integral_constantImLm0EEEEEDTclsr3stdE9__declvalIT_ELi0EEEvEEEEmOSU_, symObjAddr: 0x6DE68, symBinAddr: 0x100070E60, symSize: 0x64 }
  - { offsetInCU: 0x37CD3, offset: 0x37CD3, size: 0x8, addend: 0x0, symName: __ZN5boost4mp1113mp_with_indexILm11ENS_5beast6detail7variantIJNS2_16buffers_cat_viewIJNS_4asio12const_bufferES7_S7_NS2_4http12basic_fieldsINSt3__19allocatorIcEEE6writer11field_rangeENS8_10chunk_crlfEEE14const_iteratorEPKS7_SK_SK_NS2_18basic_multi_bufferISC_E8subrangeILb0EE14const_iteratorESK_SK_SK_SK_NS3_30buffers_cat_view_iterator_base8past_endEEE6equalsEEEDTclclsr3stdE7declvalIT0_EEclL_ZNSA_7declvalINSA_17integral_constantImLm0EEEEEDTclsr3stdE9__declvalIT_ELi0EEEvEEEEmOSU_, symObjAddr: 0x6E45C, symBinAddr: 0x100071454, symSize: 0x68 }
  - { offsetInCU: 0x37D23, offset: 0x37D23, size: 0x8, addend: 0x0, symName: __ZN5boost4mp1113mp_with_indexILm11ENS_5beast16buffers_cat_viewIJNS2_6detail11buffers_refINS3_IJNS_4asio12const_bufferES7_S7_NS2_4http12basic_fieldsINSt3__19allocatorIcEEE6writer11field_rangeENS8_10chunk_crlfEEEEEENS8_6detail10chunk_sizeES7_SG_NS2_18basic_multi_bufferISC_E8subrangeILb0EEESG_S7_S7_SG_EE14const_iterator11dereferenceEEEDTclclsr3stdE7declvalIT0_EEclL_ZNSA_7declvalINSA_17integral_constantImLm0EEEEEDTclsr3stdE9__declvalIT_ELi0EEEvEEEEmOSS_, symObjAddr: 0x6E9F4, symBinAddr: 0x1000719EC, symSize: 0x74 }
  - { offsetInCU: 0x37DF6, offset: 0x37DF6, size: 0x8, addend: 0x0, symName: __ZN5boost4mp1113mp_with_indexILm11ENS_5beast16buffers_cat_viewIJNS2_6detail11buffers_refINS3_IJNS_4asio12const_bufferES7_S7_NS2_4http12basic_fieldsINSt3__19allocatorIcEEE6writer11field_rangeENS8_10chunk_crlfEEEEEENS8_6detail10chunk_sizeES7_SG_NS2_18basic_multi_bufferISC_E8subrangeILb0EEESG_S7_S7_SG_EE14const_iterator9incrementEEEDTclclsr3stdE7declvalIT0_EEclL_ZNSA_7declvalINSA_17integral_constantImLm0EEEEEDTclsr3stdE9__declvalIT_ELi0EEEvEEEEmOSS_, symObjAddr: 0x6F290, symBinAddr: 0x100072288, symSize: 0x64 }
  - { offsetInCU: 0x389E7, offset: 0x389E7, size: 0x8, addend: 0x0, symName: __ZN5boost16exception_detail8set_infoINS_10wrapexceptINS_6system12system_errorEEEEERKT_S8_RKNS_10error_infoINS_11throw_file_EPKcEE, symObjAddr: 0x3ABC, symBinAddr: 0x100006AB4, symSize: 0x28 }
  - { offsetInCU: 0x38A2D, offset: 0x38A2D, size: 0x8, addend: 0x0, symName: __ZN5boost16exception_detail8set_infoINS_10wrapexceptINS_6system12system_errorEEEEERKT_S8_RKNS_10error_infoINS_11throw_line_EiEE, symObjAddr: 0x3B18, symBinAddr: 0x100006B10, symSize: 0x28 }
  - { offsetInCU: 0x38A73, offset: 0x38A73, size: 0x8, addend: 0x0, symName: __ZN5boost16exception_detail8set_infoINS_10wrapexceptINS_6system12system_errorEEEEERKT_S8_RKNS_10error_infoINS_15throw_function_EPKcEE, symObjAddr: 0x3B74, symBinAddr: 0x100006B6C, symSize: 0x28 }
  - { offsetInCU: 0x38AB9, offset: 0x38AB9, size: 0x8, addend: 0x0, symName: __ZN5boost16exception_detail8set_infoINS_10wrapexceptINS_6system12system_errorEEEEERKT_S8_RKNS_10error_infoINS_13throw_column_EiEE, symObjAddr: 0x3BD0, symBinAddr: 0x100006BC8, symSize: 0x28 }
  - { offsetInCU: 0x38B00, offset: 0x38B00, size: 0x8, addend: 0x0, symName: __ZN5boost16exception_detail20copy_boost_exceptionEPNS_9exceptionEPKS1_, symObjAddr: 0x406C, symBinAddr: 0x100007064, symSize: 0x124 }
  - { offsetInCU: 0x38B5E, offset: 0x38B5E, size: 0x8, addend: 0x0, symName: __ZN5boost16exception_detail8set_infoINS_10wrapexceptISt12out_of_rangeEEEERKT_S7_RKNS_10error_infoINS_11throw_file_EPKcEE, symObjAddr: 0xD284, symBinAddr: 0x10001027C, symSize: 0x28 }
  - { offsetInCU: 0x38BA4, offset: 0x38BA4, size: 0x8, addend: 0x0, symName: __ZN5boost16exception_detail8set_infoINS_10wrapexceptISt12out_of_rangeEEEERKT_S7_RKNS_10error_infoINS_11throw_line_EiEE, symObjAddr: 0xD2AC, symBinAddr: 0x1000102A4, symSize: 0x28 }
  - { offsetInCU: 0x38BEA, offset: 0x38BEA, size: 0x8, addend: 0x0, symName: __ZN5boost16exception_detail8set_infoINS_10wrapexceptISt12out_of_rangeEEEERKT_S7_RKNS_10error_infoINS_15throw_function_EPKcEE, symObjAddr: 0xD2D4, symBinAddr: 0x1000102CC, symSize: 0x28 }
  - { offsetInCU: 0x38C30, offset: 0x38C30, size: 0x8, addend: 0x0, symName: __ZN5boost16exception_detail8set_infoINS_10wrapexceptISt12out_of_rangeEEEERKT_S7_RKNS_10error_infoINS_13throw_column_EiEE, symObjAddr: 0xD2FC, symBinAddr: 0x1000102F4, symSize: 0x28 }
  - { offsetInCU: 0x38C76, offset: 0x38C76, size: 0x8, addend: 0x0, symName: __ZN5boost16exception_detail8set_infoINS_10wrapexceptISt12length_errorEEEERKT_S7_RKNS_10error_infoINS_11throw_file_EPKcEE, symObjAddr: 0x2333C, symBinAddr: 0x100026334, symSize: 0x28 }
  - { offsetInCU: 0x38CBC, offset: 0x38CBC, size: 0x8, addend: 0x0, symName: __ZN5boost16exception_detail8set_infoINS_10wrapexceptISt12length_errorEEEERKT_S7_RKNS_10error_infoINS_11throw_line_EiEE, symObjAddr: 0x23364, symBinAddr: 0x10002635C, symSize: 0x28 }
  - { offsetInCU: 0x38D02, offset: 0x38D02, size: 0x8, addend: 0x0, symName: __ZN5boost16exception_detail8set_infoINS_10wrapexceptISt12length_errorEEEERKT_S7_RKNS_10error_infoINS_15throw_function_EPKcEE, symObjAddr: 0x2338C, symBinAddr: 0x100026384, symSize: 0x28 }
  - { offsetInCU: 0x38D48, offset: 0x38D48, size: 0x8, addend: 0x0, symName: __ZN5boost16exception_detail8set_infoINS_10wrapexceptISt12length_errorEEEERKT_S7_RKNS_10error_infoINS_13throw_column_EiEE, symObjAddr: 0x233B4, symBinAddr: 0x1000263AC, symSize: 0x28 }
  - { offsetInCU: 0x38D8E, offset: 0x38D8E, size: 0x8, addend: 0x0, symName: __ZN5boost16exception_detail8set_infoINS_10wrapexceptISt16invalid_argumentEEEERKT_S7_RKNS_10error_infoINS_11throw_file_EPKcEE, symObjAddr: 0x27A64, symBinAddr: 0x10002AA5C, symSize: 0x28 }
  - { offsetInCU: 0x38DD4, offset: 0x38DD4, size: 0x8, addend: 0x0, symName: __ZN5boost16exception_detail8set_infoINS_10wrapexceptISt16invalid_argumentEEEERKT_S7_RKNS_10error_infoINS_11throw_line_EiEE, symObjAddr: 0x27A8C, symBinAddr: 0x10002AA84, symSize: 0x28 }
  - { offsetInCU: 0x38E1A, offset: 0x38E1A, size: 0x8, addend: 0x0, symName: __ZN5boost16exception_detail8set_infoINS_10wrapexceptISt16invalid_argumentEEEERKT_S7_RKNS_10error_infoINS_15throw_function_EPKcEE, symObjAddr: 0x27AB4, symBinAddr: 0x10002AAAC, symSize: 0x28 }
  - { offsetInCU: 0x38E60, offset: 0x38E60, size: 0x8, addend: 0x0, symName: __ZN5boost16exception_detail8set_infoINS_10wrapexceptISt16invalid_argumentEEEERKT_S7_RKNS_10error_infoINS_13throw_column_EiEE, symObjAddr: 0x27ADC, symBinAddr: 0x10002AAD4, symSize: 0x28 }
  - { offsetInCU: 0x39438, offset: 0x39438, size: 0x8, addend: 0x0, symName: __ZN5boost15throw_exceptionINS_6system12system_errorEEEvRKT_RKNS_15source_locationE, symObjAddr: 0x2974, symBinAddr: 0x10000596C, symSize: 0x74 }
  - { offsetInCU: 0x39478, offset: 0x39478, size: 0x8, addend: 0x0, symName: __ZN5boost36throw_exception_assert_compatibilityERKSt9exception, symObjAddr: 0x37D0, symBinAddr: 0x1000067C8, symSize: 0x10 }
  - { offsetInCU: 0x3959E, offset: 0x3959E, size: 0x8, addend: 0x0, symName: __ZN5boost15throw_exceptionINS_4asio21invalid_service_ownerEEEvRKT_, symObjAddr: 0x48A0, symBinAddr: 0x100007898, symSize: 0x6C }
  - { offsetInCU: 0x395D0, offset: 0x395D0, size: 0x8, addend: 0x0, symName: __ZN5boost15throw_exceptionINS_4asio22service_already_existsEEEvRKT_, symObjAddr: 0x4AA0, symBinAddr: 0x100007A98, symSize: 0x6C }
  - { offsetInCU: 0x39606, offset: 0x39606, size: 0x8, addend: 0x0, symName: __ZN5boost9alignment12aligned_freeEPv, symObjAddr: 0x9FFC, symBinAddr: 0x10000CFF4, symSize: 0x2C }
  - { offsetInCU: 0x3962E, offset: 0x3962E, size: 0x8, addend: 0x0, symName: __ZN5boost9alignment13aligned_allocEmm, symObjAddr: 0x103CC, symBinAddr: 0x1000133C4, symSize: 0xB8 }
  - { offsetInCU: 0x3967C, offset: 0x3967C, size: 0x8, addend: 0x0, symName: __ZN5boost9alignment6detail12is_alignmentEm, symObjAddr: 0x104F0, symBinAddr: 0x1000134E8, symSize: 0x50 }
  - { offsetInCU: 0x396D6, offset: 0x396D6, size: 0x8, addend: 0x0, symName: __ZN5boost15throw_exceptionISt12out_of_rangeEEvRKT_RKNS_15source_locationE, symObjAddr: 0xCF04, symBinAddr: 0x10000FEFC, symSize: 0x74 }
  - { offsetInCU: 0x39817, offset: 0x39817, size: 0x8, addend: 0x0, symName: __ZN5boost15throw_exceptionISt9bad_allocEEvRKT_, symObjAddr: 0x10484, symBinAddr: 0x10001347C, symSize: 0x6C }
  - { offsetInCU: 0x39849, offset: 0x39849, size: 0x8, addend: 0x0, symName: __ZN5boost15throw_exceptionINS_4asio9execution12bad_executorEEEvRKT_, symObjAddr: 0x12494, symBinAddr: 0x10001548C, symSize: 0x6C }
  - { offsetInCU: 0x3987B, offset: 0x3987B, size: 0x8, addend: 0x0, symName: __ZN5boost15throw_exceptionISt12length_errorEEvRKT_RKNS_15source_locationE, symObjAddr: 0x22EE0, symBinAddr: 0x100025ED8, symSize: 0x74 }
  - { offsetInCU: 0x39AB2, offset: 0x39AB2, size: 0x8, addend: 0x0, symName: __ZN5boost15throw_exceptionISt16invalid_argumentEEvRKT_RKNS_15source_locationE, symObjAddr: 0x2776C, symBinAddr: 0x10002A764, symSize: 0x74 }
  - { offsetInCU: 0x39C6E, offset: 0x39C6E, size: 0x8, addend: 0x0, symName: __ZN5boost8exchangeINS_4core17basic_string_viewIcEES3_EET_RS4_OT0_, symObjAddr: 0x4A9FC, symBinAddr: 0x10004D9F4, symSize: 0x38 }
  - { offsetInCU: 0x39D7A, offset: 0x39D7A, size: 0x8, addend: 0x0, symName: __ZN5boost8exchangeImiEET_RS1_OT0_, symObjAddr: 0x4B824, symBinAddr: 0x10004E81C, symSize: 0x34 }
  - { offsetInCU: 0x3A4A6, offset: 0x3A4A6, size: 0x8, addend: 0x0, symName: __ZN5boost18make_unique_noinitIA_cEENS_10enable_if_IXsr18is_unbounded_arrayIT_EE5valueENSt3__110unique_ptrIS3_NS4_14default_deleteIS3_EEEEE4typeEm, symObjAddr: 0x54538, symBinAddr: 0x100057530, symSize: 0x38 }
  - { offsetInCU: 0x3A531, offset: 0x3A531, size: 0x8, addend: 0x0, symName: __ZN5boostgtIyEEbRKT_RKNS_8optionalIS1_EE, symObjAddr: 0x589E4, symBinAddr: 0x10005B9DC, symSize: 0x30 }
  - { offsetInCU: 0x3A578, offset: 0x3A578, size: 0x8, addend: 0x0, symName: __ZN5boostltIyEEbRKNS_8optionalIT_EERKS2_, symObjAddr: 0x58A14, symBinAddr: 0x10005BA0C, symSize: 0x48 }
  - { offsetInCU: 0x3A5BF, offset: 0x3A5BF, size: 0x8, addend: 0x0, symName: __ZN5boost13less_pointeesINS_8optionalIyEEEEbRKT_S5_, symObjAddr: 0x58A5C, symBinAddr: 0x10005BA54, symSize: 0x9C }
  - { offsetInCU: 0x422FF, offset: 0x422FF, size: 0x8, addend: 0x0, symName: __ZNSt3__117__cxx_atomic_loadB7v160006IlEET_PKNS_22__cxx_atomic_base_implIS1_EENS_12memory_orderE, symObjAddr: 0x9C28, symBinAddr: 0x10000CC20, symSize: 0x80 }
  - { offsetInCU: 0x42367, offset: 0x42367, size: 0x8, addend: 0x0, symName: __ZNSt3__16copy_nB7v160006IPKcmPcEENS_9enable_ifIXsr33__is_cpp17_random_access_iteratorIT_EE5valueET1_E4typeES5_T0_S6_, symObjAddr: 0xD7A0, symBinAddr: 0x100010798, symSize: 0x44 }
  - { offsetInCU: 0x4299A, offset: 0x4299A, size: 0x8, addend: 0x0, symName: __ZNSt3__17advanceB7v160006IPKcllvEEvRT_T0_, symObjAddr: 0x23858, symBinAddr: 0x100026850, symSize: 0x50 }
  - { offsetInCU: 0x42A0B, offset: 0x42A0B, size: 0x8, addend: 0x0, symName: __ZNSt3__17advanceB7v160006IN5boost5beast4http10token_list14const_iteratorEllvEEvRT_T0_, symObjAddr: 0x2999C, symBinAddr: 0x10002C994, symSize: 0x50 }
  - { offsetInCU: 0x43291, offset: 0x43291, size: 0x8, addend: 0x0, symName: __ZNSt3__17advanceB7v160006IN5boost9intrusive13tree_iteratorINS2_8bhtraitsINS1_5beast4http12basic_fieldsINS_9allocatorIcEEE7elementENS2_18rbtree_node_traitsIPvLb0EEELNS2_14link_mode_typeE0ENS2_7dft_tagELj3EEELb0EEEllvEEvRT_T0_, symObjAddr: 0x4DBCC, symBinAddr: 0x100050BC4, symSize: 0x50 }
  - { offsetInCU: 0x43329, offset: 0x43329, size: 0x8, addend: 0x0, symName: __ZNSt3__17advanceB7v160006IN5boost9intrusive13list_iteratorINS2_8bhtraitsINS1_5beast18basic_multi_bufferINS_9allocatorIcEEE7elementENS2_16list_node_traitsIPvEELNS2_14link_mode_typeE0ENS2_7dft_tagELj1EEELb0EEEllvEEvRT_T0_, symObjAddr: 0x505D4, symBinAddr: 0x1000535CC, symSize: 0x50 }
  - { offsetInCU: 0x433C1, offset: 0x433C1, size: 0x8, addend: 0x0, symName: __ZNSt3__17advanceB7v160006IN5boost9intrusive13list_iteratorINS2_8bhtraitsINS1_5beast18basic_multi_bufferINS_9allocatorIcEEE7elementENS2_16list_node_traitsIPvEELNS2_14link_mode_typeE0ENS2_7dft_tagELj1EEELb1EEEllvEEvRT_T0_, symObjAddr: 0x51BB0, symBinAddr: 0x100054BA8, symSize: 0x50 }
  - { offsetInCU: 0x43459, offset: 0x43459, size: 0x8, addend: 0x0, symName: __ZNSt3__17advanceB7v160006IPKN5boost4asio14mutable_bufferEllvEEvRT_T0_, symObjAddr: 0x54694, symBinAddr: 0x10005768C, symSize: 0x50 }
  - { offsetInCU: 0x436F0, offset: 0x436F0, size: 0x8, addend: 0x0, symName: __ZNSt3__124__put_character_sequenceB7v160006IcNS_11char_traitsIcEEEERNS_13basic_ostreamIT_T0_EES7_PKS4_m, symObjAddr: 0x782CC, symBinAddr: 0x10007B2C4, symSize: 0x1EC }
  - { offsetInCU: 0x46FCB, offset: 0x46FCB, size: 0x8, addend: 0x0, symName: __ZNSt3__14endlB7v160006IcNS_11char_traitsIcEEEERNS_13basic_ostreamIT_T0_EES7_, symObjAddr: 0xC90, symBinAddr: 0x100003C88, symSize: 0x58 }
  - { offsetInCU: 0x4700D, offset: 0x4700D, size: 0x8, addend: 0x0, symName: __ZNSt3__1lsB7v160006INS_11char_traitsIcEEEERNS_13basic_ostreamIcT_EES6_PKc, symObjAddr: 0xEBC, symBinAddr: 0x100003EB4, symSize: 0x48 }
  - { offsetInCU: 0x47057, offset: 0x47057, size: 0x8, addend: 0x0, symName: __ZNSt3__119__debug_db_insert_cB7v160006INS_12basic_stringIcNS_11char_traitsIcEENS_9allocatorIcEEEEEEvPT_, symObjAddr: 0x18B4, symBinAddr: 0x1000048AC, symSize: 0x10 }
  - { offsetInCU: 0x4708B, offset: 0x4708B, size: 0x8, addend: 0x0, symName: __ZNSt3__118__constexpr_strlenB7v160006EPKc, symObjAddr: 0x1980, symBinAddr: 0x100004978, symSize: 0x24 }
  - { offsetInCU: 0x470BA, offset: 0x470BA, size: 0x8, addend: 0x0, symName: __ZNSt3__112__to_addressB7v160006IKcEEPT_S3_, symObjAddr: 0x1E3C, symBinAddr: 0x100004E34, symSize: 0x14 }
  - { offsetInCU: 0x47127, offset: 0x47127, size: 0x8, addend: 0x0, symName: __ZNSt3__1plB7v160006IcNS_11char_traitsIcEENS_9allocatorIcEEEENS_12basic_stringIT_T0_T1_EEOS9_SA_, symObjAddr: 0x2B60, symBinAddr: 0x100005B58, symSize: 0x40 }
  - { offsetInCU: 0x4717F, offset: 0x4717F, size: 0x8, addend: 0x0, symName: __ZNSt3__1plB7v160006IcNS_11char_traitsIcEENS_9allocatorIcEEEENS_12basic_stringIT_T0_T1_EEOS9_PKS6_, symObjAddr: 0x2BA0, symBinAddr: 0x100005B98, symSize: 0x40 }
  - { offsetInCU: 0x471D8, offset: 0x471D8, size: 0x8, addend: 0x0, symName: __ZNSt3__115__debug_db_swapB7v160006INS_12basic_stringIcNS_11char_traitsIcEENS_9allocatorIcEEEEEEvPT_S8_, symObjAddr: 0x2F68, symBinAddr: 0x100005F60, symSize: 0x14 }
  - { offsetInCU: 0x4721A, offset: 0x4721A, size: 0x8, addend: 0x0, symName: __ZNSt3__122__cxx_atomic_fetch_addB7v160006IlEET_PNS_22__cxx_atomic_base_implIS1_EES1_NS_12memory_orderE, symObjAddr: 0x90C8, symBinAddr: 0x10000C0C0, symSize: 0xC4 }
  - { offsetInCU: 0x4745C, offset: 0x4745C, size: 0x8, addend: 0x0, symName: __ZNSt3__122__cxx_atomic_fetch_subB7v160006IlEET_PNS_22__cxx_atomic_base_implIS1_EES1_NS_12memory_orderE, symObjAddr: 0xA91C, symBinAddr: 0x10000D914, symSize: 0xD8 }
  - { offsetInCU: 0x474B1, offset: 0x474B1, size: 0x8, addend: 0x0, symName: __ZNSt3__128__char_traits_length_checkedB7v160006INS_11char_traitsIcEEEEmPKNT_9char_typeE, symObjAddr: 0xB1A0, symBinAddr: 0x10000E198, symSize: 0x24 }
  - { offsetInCU: 0x474E6, offset: 0x474E6, size: 0x8, addend: 0x0, symName: __ZNSt3__134__libcpp_atomic_refcount_decrementB7v160006IlEET_RS1_, symObjAddr: 0xB328, symBinAddr: 0x10000E320, symSize: 0x30 }
  - { offsetInCU: 0x4751C, offset: 0x4751C, size: 0x8, addend: 0x0, symName: __ZNSt3__119__libcpp_deallocateB7v160006EPvmm, symObjAddr: 0xC3F4, symBinAddr: 0x10000F3EC, symSize: 0x60 }
  - { offsetInCU: 0x47581, offset: 0x47581, size: 0x8, addend: 0x0, symName: __ZNSt3__124__is_overaligned_for_newB7v160006Em, symObjAddr: 0xC454, symBinAddr: 0x10000F44C, symSize: 0x20 }
  - { offsetInCU: 0x475B0, offset: 0x475B0, size: 0x8, addend: 0x0, symName: __ZNSt3__127__do_deallocate_handle_sizeB7v160006IJSt11align_val_tEEEvPvmDpT_, symObjAddr: 0xC474, symBinAddr: 0x10000F46C, symSize: 0x30 }
  - { offsetInCU: 0x47605, offset: 0x47605, size: 0x8, addend: 0x0, symName: __ZNSt3__127__do_deallocate_handle_sizeB7v160006IJEEEvPvmDpT_, symObjAddr: 0xC4A4, symBinAddr: 0x10000F49C, symSize: 0x28 }
  - { offsetInCU: 0x47645, offset: 0x47645, size: 0x8, addend: 0x0, symName: __ZNSt3__124__libcpp_operator_deleteB7v160006IJPvSt11align_val_tEEEvDpT_, symObjAddr: 0xC4CC, symBinAddr: 0x10000F4C4, symSize: 0x2C }
  - { offsetInCU: 0x47691, offset: 0x47691, size: 0x8, addend: 0x0, symName: __ZNSt3__124__libcpp_operator_deleteB7v160006IJPvEEEvDpT_, symObjAddr: 0xC4F8, symBinAddr: 0x10000F4F0, symSize: 0x24 }
  - { offsetInCU: 0x476C7, offset: 0x476C7, size: 0x8, addend: 0x0, symName: __ZNSt3__117__libcpp_allocateB7v160006Emm, symObjAddr: 0xCE40, symBinAddr: 0x10000FE38, symSize: 0x60 }
  - { offsetInCU: 0x47721, offset: 0x47721, size: 0x8, addend: 0x0, symName: __ZNSt3__121__libcpp_operator_newB7v160006IJmSt11align_val_tEEEPvDpT_, symObjAddr: 0xCEB4, symBinAddr: 0x10000FEAC, symSize: 0x2C }
  - { offsetInCU: 0x47770, offset: 0x47770, size: 0x8, addend: 0x0, symName: __ZNSt3__121__libcpp_operator_newB7v160006IJmEEEPvDpT_, symObjAddr: 0xCEE0, symBinAddr: 0x10000FED8, symSize: 0x24 }
  - { offsetInCU: 0x477AB, offset: 0x477AB, size: 0x8, addend: 0x0, symName: __ZNSt3__13minB7v160006ImEERKT_S3_S3_, symObjAddr: 0xCFAC, symBinAddr: 0x10000FFA4, symSize: 0x2C }
  - { offsetInCU: 0x477F2, offset: 0x477F2, size: 0x8, addend: 0x0, symName: __ZNSt3__13minB7v160006ImNS_6__lessImmEEEERKT_S5_S5_T0_, symObjAddr: 0xD718, symBinAddr: 0x100010710, symSize: 0x54 }
  - { offsetInCU: 0x4788E, offset: 0x4788E, size: 0x8, addend: 0x0, symName: __ZNSt3__14copyB7v160006IPKcPcEET0_T_S5_S4_, symObjAddr: 0xD7E4, symBinAddr: 0x1000107DC, symSize: 0x40 }
  - { offsetInCU: 0x478ED, offset: 0x478ED, size: 0x8, addend: 0x0, symName: __ZNSt3__16__copyB7v160006INS_17_ClassicAlgPolicyEPKcS3_PcEENS_4pairIT0_T2_EES6_T1_S7_, symObjAddr: 0xD824, symBinAddr: 0x10001081C, symSize: 0x44 }
  - { offsetInCU: 0x4795E, offset: 0x4795E, size: 0x8, addend: 0x0, symName: __ZNSt3__123__dispatch_copy_or_moveB7v160006INS_17_ClassicAlgPolicyENS_11__copy_loopIS1_EENS_14__copy_trivialEPKcS6_PcEENS_4pairIT2_T4_EES9_T3_SA_, symObjAddr: 0xD868, symBinAddr: 0x100010860, symSize: 0x44 }
  - { offsetInCU: 0x479E1, offset: 0x479E1, size: 0x8, addend: 0x0, symName: __ZNSt3__121__unwrap_and_dispatchB7v160006INS_10__overloadINS_11__copy_loopINS_17_ClassicAlgPolicyEEENS_14__copy_trivialEEEPKcS8_PcLi0EEENS_4pairIT0_T2_EESB_T1_SC_, symObjAddr: 0xD8AC, symBinAddr: 0x1000108A4, symSize: 0xB4 }
  - { offsetInCU: 0x47A77, offset: 0x47A77, size: 0x8, addend: 0x0, symName: __ZNSt3__114__unwrap_rangeB7v160006IPKcS2_EENS_4pairIT0_S4_EET_S6_, symObjAddr: 0xD960, symBinAddr: 0x100010958, symSize: 0x60 }
  - { offsetInCU: 0x47C15, offset: 0x47C15, size: 0x8, addend: 0x0, symName: __ZNSt3__113__unwrap_iterB7v160006IPcNS_18__unwrap_iter_implIS1_Lb1EEELi0EEEDTclsrT0_8__unwrapclsr3stdE7declvalIT_EEEES5_, symObjAddr: 0xDA08, symBinAddr: 0x100010A00, symSize: 0x24 }
  - { offsetInCU: 0x47C5C, offset: 0x47C5C, size: 0x8, addend: 0x0, symName: __ZNSt3__19make_pairB7v160006IPKcPcEENS_4pairINS_18__unwrap_ref_decayIT_E4typeENS5_IT0_E4typeEEEOS6_OS9_, symObjAddr: 0xDA2C, symBinAddr: 0x100010A24, symSize: 0x38 }
  - { offsetInCU: 0x47CAC, offset: 0x47CAC, size: 0x8, addend: 0x0, symName: __ZNSt3__114__rewrap_rangeB7v160006IPKcS2_EET_S3_T0_, symObjAddr: 0xDA64, symBinAddr: 0x100010A5C, symSize: 0x2C }
  - { offsetInCU: 0x47CFC, offset: 0x47CFC, size: 0x8, addend: 0x0, symName: __ZNSt3__113__rewrap_iterB7v160006IPcS1_NS_18__unwrap_iter_implIS1_Lb1EEEEET_S4_T0_, symObjAddr: 0xDA90, symBinAddr: 0x100010A88, symSize: 0x3C }
  - { offsetInCU: 0x47D54, offset: 0x47D54, size: 0x8, addend: 0x0, symName: __ZNSt3__19make_pairB7v160006IPKcS2_EENS_4pairINS_18__unwrap_ref_decayIT_E4typeENS4_IT0_E4typeEEEOS5_OS8_, symObjAddr: 0xDACC, symBinAddr: 0x100010AC4, symSize: 0x38 }
  - { offsetInCU: 0x47DA4, offset: 0x47DA4, size: 0x8, addend: 0x0, symName: __ZNSt3__113__unwrap_iterB7v160006IPKcNS_18__unwrap_iter_implIS2_Lb1EEELi0EEEDTclsrT0_8__unwrapclsr3stdE7declvalIT_EEEES6_, symObjAddr: 0xDB04, symBinAddr: 0x100010AFC, symSize: 0x24 }
  - { offsetInCU: 0x47F19, offset: 0x47F19, size: 0x8, addend: 0x0, symName: __ZNSt3__119__copy_trivial_implB7v160006IKccEENS_4pairIPT_PT0_EES4_S4_S6_, symObjAddr: 0xDBBC, symBinAddr: 0x100010BB4, symSize: 0x7C }
  - { offsetInCU: 0x47F86, offset: 0x47F86, size: 0x8, addend: 0x0, symName: __ZNSt3__19make_pairB7v160006IRPKcPcEENS_4pairINS_18__unwrap_ref_decayIT_E4typeENS6_IT0_E4typeEEEOS7_OSA_, symObjAddr: 0xDC38, symBinAddr: 0x100010C30, symSize: 0x38 }
  - { offsetInCU: 0x4802E, offset: 0x4802E, size: 0x8, addend: 0x0, symName: __ZNSt3__112__to_addressB7v160006IcEEPT_S2_, symObjAddr: 0xDD04, symBinAddr: 0x100010CFC, symSize: 0x14 }
  - { offsetInCU: 0x48066, offset: 0x48066, size: 0x8, addend: 0x0, symName: __ZNSt3__113__rewrap_iterB7v160006IPKcS2_NS_18__unwrap_iter_implIS2_Lb1EEEEET_S5_T0_, symObjAddr: 0xDD88, symBinAddr: 0x100010D80, symSize: 0x3C }
  - { offsetInCU: 0x480BE, offset: 0x480BE, size: 0x8, addend: 0x0, symName: __ZNSt3__1eqB7v160006IvvEEbRKNS_9allocatorIT_EERKNS1_IT0_EE, symObjAddr: 0xF3B0, symBinAddr: 0x1000123A8, symSize: 0x1C }
  - { offsetInCU: 0x480FE, offset: 0x480FE, size: 0x8, addend: 0x0, symName: __ZNSt3__119atomic_thread_fenceB7v160006ENS_12memory_orderE, symObjAddr: 0xFA28, symBinAddr: 0x100012A20, symSize: 0x24 }
  - { offsetInCU: 0x48129, offset: 0x48129, size: 0x8, addend: 0x0, symName: __ZNSt3__125__cxx_atomic_thread_fenceB7v160006ENS_12memory_orderE, symObjAddr: 0xFA4C, symBinAddr: 0x100012A44, symSize: 0x64 }
  - { offsetInCU: 0x489AE, offset: 0x489AE, size: 0x8, addend: 0x0, symName: __ZNSt3__14swapB7v160006IPvEENS_9enable_ifIXaasr21is_move_constructibleIT_EE5valuesr18is_move_assignableIS3_EE5valueEvE4typeERS3_S6_, symObjAddr: 0x172E0, symBinAddr: 0x10001A2D8, symSize: 0x3C }
  - { offsetInCU: 0x48A04, offset: 0x48A04, size: 0x8, addend: 0x0, symName: __ZNSt3__14swapB7v160006IPNS_19__shared_weak_countEEENS_9enable_ifIXaasr21is_move_constructibleIT_EE5valuesr18is_move_assignableIS4_EE5valueEvE4typeERS4_S7_, symObjAddr: 0x1731C, symBinAddr: 0x10001A314, symSize: 0x3C }
  - { offsetInCU: 0x48A59, offset: 0x48A59, size: 0x8, addend: 0x0, symName: __ZNSt3__1eqB7v160006ERKNS_10error_codeES2_, symObjAddr: 0x18B80, symBinAddr: 0x10001BB78, symSize: 0x84 }
  - { offsetInCU: 0x494C0, offset: 0x494C0, size: 0x8, addend: 0x0, symName: __ZNSt3__118__debug_db_erase_cB7v160006INS_6vectorIN5boost4asio2ip20basic_resolver_entryINS4_3tcpEEENS_9allocatorIS7_EEEEEEvPT_, symObjAddr: 0x1AD48, symBinAddr: 0x10001DD40, symSize: 0x10 }
  - { offsetInCU: 0x494F4, offset: 0x494F4, size: 0x8, addend: 0x0, symName: __ZNSt3__112__to_addressB7v160006IN5boost4asio2ip20basic_resolver_entryINS3_3tcpEEEEEPT_S8_, symObjAddr: 0x1AE8C, symBinAddr: 0x10001DE84, symSize: 0x14 }
  - { offsetInCU: 0x496B9, offset: 0x496B9, size: 0x8, addend: 0x0, symName: __ZNSt3__14swapB7v160006IPNS_6vectorIN5boost4asio2ip20basic_resolver_entryINS4_3tcpEEENS_9allocatorIS7_EEEEEENS_9enable_ifIXaasr21is_move_constructibleIT_EE5valuesr18is_move_assignableISD_EE5valueEvE4typeERSD_SG_, symObjAddr: 0x1B2E8, symBinAddr: 0x10001E2E0, symSize: 0x3C }
  - { offsetInCU: 0x4970F, offset: 0x4970F, size: 0x8, addend: 0x0, symName: __ZNSt3__119__debug_db_insert_cB7v160006INS_6vectorIN5boost4asio2ip20basic_resolver_entryINS4_3tcpEEENS_9allocatorIS7_EEEEEEvPT_, symObjAddr: 0x1B3B8, symBinAddr: 0x10001E3B0, symSize: 0x10 }
  - { offsetInCU: 0x49743, offset: 0x49743, size: 0x8, addend: 0x0, symName: __ZNSt3__13maxB7v160006ImEERKT_S3_S3_, symObjAddr: 0x1BC30, symBinAddr: 0x10001EC28, symSize: 0x2C }
  - { offsetInCU: 0x49977, offset: 0x49977, size: 0x8, addend: 0x0, symName: __ZNSt3__120__throw_length_errorB7v160006EPKc, symObjAddr: 0x1BD14, symBinAddr: 0x10001ED0C, symSize: 0x64 }
  - { offsetInCU: 0x499A0, offset: 0x499A0, size: 0x8, addend: 0x0, symName: __ZNSt3__13maxB7v160006ImNS_6__lessImmEEEERKT_S5_S5_T0_, symObjAddr: 0x1BDF8, symBinAddr: 0x10001EDF0, symSize: 0x54 }
  - { offsetInCU: 0x499FF, offset: 0x499FF, size: 0x8, addend: 0x0, symName: __ZNSt3__119__allocate_at_leastB7v160006INS_9allocatorIN5boost4asio2ip20basic_resolver_entryINS4_3tcpEEEEEEENS_19__allocation_resultINS_16allocator_traitsIT_E7pointerEEERSB_m, symObjAddr: 0x1BF68, symBinAddr: 0x10001EF60, symSize: 0x40 }
  - { offsetInCU: 0x49A45, offset: 0x49A45, size: 0x8, addend: 0x0, symName: __ZNSt3__142__uninitialized_allocator_move_if_noexceptB7v160006INS_9allocatorIN5boost4asio2ip20basic_resolver_entryINS4_3tcpEEEEENS_16reverse_iteratorIPS7_EESB_SB_EET2_RT_T0_T1_SC_, symObjAddr: 0x1C120, symBinAddr: 0x10001F118, symSize: 0x12C }
  - { offsetInCU: 0x49AED, offset: 0x49AED, size: 0x8, addend: 0x0, symName: __ZNSt3__14swapB7v160006IPN5boost4asio2ip20basic_resolver_entryINS3_3tcpEEEEENS_9enable_ifIXaasr21is_move_constructibleIT_EE5valuesr18is_move_assignableIS9_EE5valueEvE4typeERS9_SC_, symObjAddr: 0x1C298, symBinAddr: 0x10001F290, symSize: 0x3C }
  - { offsetInCU: 0x49B43, offset: 0x49B43, size: 0x8, addend: 0x0, symName: __ZNSt3__125__debug_db_invalidate_allB7v160006INS_6vectorIN5boost4asio2ip20basic_resolver_entryINS4_3tcpEEENS_9allocatorIS7_EEEEEEvPT_, symObjAddr: 0x1C39C, symBinAddr: 0x10001F394, symSize: 0x10 }
  - { offsetInCU: 0x49B77, offset: 0x49B77, size: 0x8, addend: 0x0, symName: __ZNSt3__122__make_exception_guardB7v160006INS_29_AllocatorDestroyRangeReverseINS_9allocatorIN5boost4asio2ip20basic_resolver_entryINS5_3tcpEEEEENS_16reverse_iteratorIPS8_EEEEEENS_28__exception_guard_exceptionsIT_EESF_, symObjAddr: 0x1C3AC, symBinAddr: 0x10001F3A4, symSize: 0x4C }
  - { offsetInCU: 0x49BB0, offset: 0x49BB0, size: 0x8, addend: 0x0, symName: __ZNSt3__1neB7v160006IPN5boost4asio2ip20basic_resolver_entryINS3_3tcpEEES7_EEbRKNS_16reverse_iteratorIT_EERKNS8_IT0_EE, symObjAddr: 0x1C43C, symBinAddr: 0x10001F434, symSize: 0x48 }
  - { offsetInCU: 0x49C00, offset: 0x49C00, size: 0x8, addend: 0x0, symName: __ZNSt3__112__to_addressB7v160006INS_16reverse_iteratorIPN5boost4asio2ip20basic_resolver_entryINS4_3tcpEEEEEvEENS_5decayIDTclsr19__to_address_helperIT_EE6__callclsr3stdE7declvalIRKSB_EEEEE4typeESD_, symObjAddr: 0x1C484, symBinAddr: 0x10001F47C, symSize: 0x24 }
  - { offsetInCU: 0x49C64, offset: 0x49C64, size: 0x8, addend: 0x0, symName: __ZNSt3__119__allocator_destroyB7v160006INS_9allocatorIN5boost4asio2ip20basic_resolver_entryINS4_3tcpEEEEENS_16reverse_iteratorINS9_IPS7_EEEESC_EEvRT_T0_T1_, symObjAddr: 0x1C734, symBinAddr: 0x10001F72C, symSize: 0x70 }
  - { offsetInCU: 0x49CCE, offset: 0x49CCE, size: 0x8, addend: 0x0, symName: __ZNSt3__1neB7v160006INS_16reverse_iteratorIPN5boost4asio2ip20basic_resolver_entryINS4_3tcpEEEEES9_EEbRKNS1_IT_EERKNS1_IT0_EE, symObjAddr: 0x1C7E0, symBinAddr: 0x10001F7D8, symSize: 0x60 }
  - { offsetInCU: 0x49D1E, offset: 0x49D1E, size: 0x8, addend: 0x0, symName: __ZNSt3__112__to_addressB7v160006INS_16reverse_iteratorINS1_IPN5boost4asio2ip20basic_resolver_entryINS4_3tcpEEEEEEEvEENS_5decayIDTclsr19__to_address_helperIT_EE6__callclsr3stdE7declvalIRKSC_EEEEE4typeESE_, symObjAddr: 0x1C840, symBinAddr: 0x10001F838, symSize: 0x24 }
  - { offsetInCU: 0x49D82, offset: 0x49D82, size: 0x8, addend: 0x0, symName: __ZNSt3__134__libcpp_atomic_refcount_incrementB7v160006IlEET_RS1_, symObjAddr: 0x1D010, symBinAddr: 0x100020008, symSize: 0x30 }
  - { offsetInCU: 0x49DB7, offset: 0x49DB7, size: 0x8, addend: 0x0, symName: __ZNSt3__1neB7v160006INS_6vectorIN5boost4asio2ip20basic_resolver_entryINS4_3tcpEEENS_9allocatorIS7_EEEESA_EEbRKNS_10shared_ptrIT_EERKNSB_IT0_EE, symObjAddr: 0x1D944, symBinAddr: 0x10002093C, symSize: 0x34 }
  - { offsetInCU: 0x49E06, offset: 0x49E06, size: 0x8, addend: 0x0, symName: __ZNSt3__1eqB7v160006INS_6vectorIN5boost4asio2ip20basic_resolver_entryINS4_3tcpEEENS_9allocatorIS7_EEEESA_EEbRKNS_10shared_ptrIT_EERKNSB_IT0_EE, symObjAddr: 0x1D990, symBinAddr: 0x100020988, symSize: 0x48 }
  - { offsetInCU: 0x49E56, offset: 0x49E56, size: 0x8, addend: 0x0, symName: __ZNSt3__123lexicographical_compareB7v160006IPKcS2_ZNK5boost5beast5ilessclENS3_4core17basic_string_viewIcEES8_EUlccE_EEbT_SA_T0_SB_T1_, symObjAddr: 0x20B24, symBinAddr: 0x100023B1C, symSize: 0x44 }
  - { offsetInCU: 0x49EDC, offset: 0x49EDC, size: 0x8, addend: 0x0, symName: __ZNSt3__15beginB7v160006IN5boost4core17basic_string_viewIcEEEEDTcldtfp_5beginEERT_, symObjAddr: 0x20B68, symBinAddr: 0x100023B60, symSize: 0x24 }
  - { offsetInCU: 0x49F14, offset: 0x49F14, size: 0x8, addend: 0x0, symName: __ZNSt3__13endB7v160006IN5boost4core17basic_string_viewIcEEEEDTcldtfp_3endEERT_, symObjAddr: 0x20B8C, symBinAddr: 0x100023B84, symSize: 0x24 }
  - { offsetInCU: 0x49F4C, offset: 0x49F4C, size: 0x8, addend: 0x0, symName: __ZNSt3__125__lexicographical_compareB7v160006IRZNK5boost5beast5ilessclENS1_4core17basic_string_viewIcEES6_EUlccE_PKcSA_EEbT0_SB_T1_SC_T_, symObjAddr: 0x20BB0, symBinAddr: 0x100023BA8, symSize: 0x104 }
  - { offsetInCU: 0x4A1BC, offset: 0x4A1BC, size: 0x8, addend: 0x0, symName: __ZNSt3__14prevB7v160006IPKcEENS_9enable_ifIXsr25__is_cpp17_input_iteratorIT_EE5valueES4_E4typeES4_NS_15iterator_traitsIS4_E15difference_typeE, symObjAddr: 0x23808, symBinAddr: 0x100026800, symSize: 0x50 }
  - { offsetInCU: 0x4A203, offset: 0x4A203, size: 0x8, addend: 0x0, symName: __ZNSt3__121__convert_to_integralB7v160006El, symObjAddr: 0x238A8, symBinAddr: 0x1000268A0, symSize: 0x14 }
  - { offsetInCU: 0x4A232, offset: 0x4A232, size: 0x8, addend: 0x0, symName: __ZNSt3__19__advanceB7v160006IPKcEEvRT_NS_15iterator_traitsIS3_E15difference_typeENS_26random_access_iterator_tagE, symObjAddr: 0x238BC, symBinAddr: 0x1000268B4, symSize: 0x28 }
  - { offsetInCU: 0x4A281, offset: 0x4A281, size: 0x8, addend: 0x0, symName: __ZNSt3__14nextB7v160006IN5boost5beast4http10token_list14const_iteratorEEENS_9enable_ifIXsr25__is_cpp17_input_iteratorIT_EE5valueES7_E4typeES7_NS_15iterator_traitsIS7_E15difference_typeE, symObjAddr: 0x289D4, symBinAddr: 0x10002B9CC, symSize: 0x5C }
  - { offsetInCU: 0x4A2C8, offset: 0x4A2C8, size: 0x8, addend: 0x0, symName: __ZNSt3__19__advanceB7v160006IN5boost5beast4http10token_list14const_iteratorEEEvRT_NS_15iterator_traitsIS6_E15difference_typeENS_18input_iterator_tagE, symObjAddr: 0x299EC, symBinAddr: 0x10002C9E4, symSize: 0x54 }
  - { offsetInCU: 0x4A374, offset: 0x4A374, size: 0x8, addend: 0x0, symName: __ZNSt3__17launderB7v160006IN5boost5beast14buffers_suffixINS2_6detail11buffers_refINS2_16buffers_cat_viewIJNS1_4asio12const_bufferES8_S8_NS2_4http12basic_fieldsINS_9allocatorIcEEE6writer11field_rangeENS9_10chunk_crlfEEEEEEEEEEPT_SL_, symObjAddr: 0x2A73C, symBinAddr: 0x10002D734, symSize: 0x24 }
  - { offsetInCU: 0x4A3AB, offset: 0x4A3AB, size: 0x8, addend: 0x0, symName: __ZNSt3__19__launderB7v160006IN5boost5beast14buffers_suffixINS2_6detail11buffers_refINS2_16buffers_cat_viewIJNS1_4asio12const_bufferES8_S8_NS2_4http12basic_fieldsINS_9allocatorIcEEE6writer11field_rangeENS9_10chunk_crlfEEEEEEEEEEPT_SL_, symObjAddr: 0x2A760, symBinAddr: 0x10002D758, symSize: 0x14 }
  - { offsetInCU: 0x4A3E2, offset: 0x4A3E2, size: 0x8, addend: 0x0, symName: __ZNSt3__17launderB7v160006IPKN5boost4asio12const_bufferEEEPT_S7_, symObjAddr: 0x2AAF8, symBinAddr: 0x10002DAF0, symSize: 0x24 }
  - { offsetInCU: 0x4A419, offset: 0x4A419, size: 0x8, addend: 0x0, symName: __ZNSt3__19__launderB7v160006IPKN5boost4asio12const_bufferEEEPT_S7_, symObjAddr: 0x2AB1C, symBinAddr: 0x10002DB14, symSize: 0x14 }
  - { offsetInCU: 0x4A450, offset: 0x4A450, size: 0x8, addend: 0x0, symName: __ZNSt3__17launderB7v160006IN5boost5beast4http12basic_fieldsINS_9allocatorIcEEE6writer14field_iteratorEEEPT_SB_, symObjAddr: 0x2AB54, symBinAddr: 0x10002DB4C, symSize: 0x24 }
  - { offsetInCU: 0x4A487, offset: 0x4A487, size: 0x8, addend: 0x0, symName: __ZNSt3__19__launderB7v160006IN5boost5beast4http12basic_fieldsINS_9allocatorIcEEE6writer14field_iteratorEEEPT_SB_, symObjAddr: 0x2AB78, symBinAddr: 0x10002DB70, symSize: 0x14 }
  - { offsetInCU: 0x4A4BE, offset: 0x4A4BE, size: 0x8, addend: 0x0, symName: __ZNSt3__17launderB7v160006IN5boost5beast6detail30buffers_cat_view_iterator_base8past_endEEEPT_S7_, symObjAddr: 0x2ABB0, symBinAddr: 0x10002DBA8, symSize: 0x24 }
  - { offsetInCU: 0x4A4F5, offset: 0x4A4F5, size: 0x8, addend: 0x0, symName: __ZNSt3__19__launderB7v160006IN5boost5beast6detail30buffers_cat_view_iterator_base8past_endEEEPT_S7_, symObjAddr: 0x2ABD4, symBinAddr: 0x10002DBCC, symSize: 0x14 }
  - { offsetInCU: 0x4A52C, offset: 0x4A52C, size: 0x8, addend: 0x0, symName: __ZNSt3__17launderB7v160006IN5boost5beast14buffers_suffixINS2_16buffers_cat_viewIJNS2_6detail11buffers_refINS4_IJNS1_4asio12const_bufferES8_S8_NS2_4http12basic_fieldsINS_9allocatorIcEEE6writer11field_rangeENS9_10chunk_crlfEEEEEES8_EEEEEEEPT_SM_, symObjAddr: 0x2AC38, symBinAddr: 0x10002DC30, symSize: 0x24 }
  - { offsetInCU: 0x4A563, offset: 0x4A563, size: 0x8, addend: 0x0, symName: __ZNSt3__19__launderB7v160006IN5boost5beast14buffers_suffixINS2_16buffers_cat_viewIJNS2_6detail11buffers_refINS4_IJNS1_4asio12const_bufferES8_S8_NS2_4http12basic_fieldsINS_9allocatorIcEEE6writer11field_rangeENS9_10chunk_crlfEEEEEES8_EEEEEEEPT_SM_, symObjAddr: 0x2AC5C, symBinAddr: 0x10002DC54, symSize: 0x14 }
  - { offsetInCU: 0x4A59A, offset: 0x4A59A, size: 0x8, addend: 0x0, symName: __ZNSt3__17launderB7v160006IN5boost5beast16buffers_cat_viewIJNS1_4asio12const_bufferES5_S5_NS2_4http12basic_fieldsINS_9allocatorIcEEE6writer11field_rangeENS6_10chunk_crlfEEE14const_iteratorEEEPT_SH_, symObjAddr: 0x2AF58, symBinAddr: 0x10002DF50, symSize: 0x24 }
  - { offsetInCU: 0x4A5D1, offset: 0x4A5D1, size: 0x8, addend: 0x0, symName: __ZNSt3__19__launderB7v160006IN5boost5beast16buffers_cat_viewIJNS1_4asio12const_bufferES5_S5_NS2_4http12basic_fieldsINS_9allocatorIcEEE6writer11field_rangeENS6_10chunk_crlfEEE14const_iteratorEEEPT_SH_, symObjAddr: 0x2AF7C, symBinAddr: 0x10002DF74, symSize: 0x14 }
  - { offsetInCU: 0x4A608, offset: 0x4A608, size: 0x8, addend: 0x0, symName: __ZNSt3__17launderB7v160006IN5boost5beast14buffers_suffixINS1_4asio12const_bufferEEEEEPT_S8_, symObjAddr: 0x2AFFC, symBinAddr: 0x10002DFF4, symSize: 0x24 }
  - { offsetInCU: 0x4A63F, offset: 0x4A63F, size: 0x8, addend: 0x0, symName: __ZNSt3__19__launderB7v160006IN5boost5beast14buffers_suffixINS1_4asio12const_bufferEEEEEPT_S8_, symObjAddr: 0x2B020, symBinAddr: 0x10002E018, symSize: 0x14 }
  - { offsetInCU: 0x4A676, offset: 0x4A676, size: 0x8, addend: 0x0, symName: __ZNSt3__17launderB7v160006IN5boost5beast14buffers_suffixINS2_16buffers_cat_viewIJNS2_6detail11buffers_refINS4_IJNS1_4asio12const_bufferES8_S8_NS2_4http12basic_fieldsINS_9allocatorIcEEE6writer11field_rangeENS9_10chunk_crlfEEEEEENS9_6detail10chunk_sizeES8_SG_S8_SG_EEEEEEEPT_SO_, symObjAddr: 0x2B084, symBinAddr: 0x10002E07C, symSize: 0x24 }
  - { offsetInCU: 0x4A6AD, offset: 0x4A6AD, size: 0x8, addend: 0x0, symName: __ZNSt3__19__launderB7v160006IN5boost5beast14buffers_suffixINS2_16buffers_cat_viewIJNS2_6detail11buffers_refINS4_IJNS1_4asio12const_bufferES8_S8_NS2_4http12basic_fieldsINS_9allocatorIcEEE6writer11field_rangeENS9_10chunk_crlfEEEEEENS9_6detail10chunk_sizeES8_SG_S8_SG_EEEEEEEPT_SO_, symObjAddr: 0x2B0A8, symBinAddr: 0x10002E0A0, symSize: 0x14 }
  - { offsetInCU: 0x4A6E4, offset: 0x4A6E4, size: 0x8, addend: 0x0, symName: __ZNSt3__17launderB7v160006IN5boost5beast14buffers_suffixINS2_16buffers_cat_viewIJNS2_4http6detail10chunk_sizeENS1_4asio12const_bufferENS5_10chunk_crlfES9_SA_EEEEEEEPT_SE_, symObjAddr: 0x2B67C, symBinAddr: 0x10002E674, symSize: 0x24 }
  - { offsetInCU: 0x4A71B, offset: 0x4A71B, size: 0x8, addend: 0x0, symName: __ZNSt3__19__launderB7v160006IN5boost5beast14buffers_suffixINS2_16buffers_cat_viewIJNS2_4http6detail10chunk_sizeENS1_4asio12const_bufferENS5_10chunk_crlfES9_SA_EEEEEEEPT_SE_, symObjAddr: 0x2B6A0, symBinAddr: 0x10002E698, symSize: 0x14 }
  - { offsetInCU: 0x4A752, offset: 0x4A752, size: 0x8, addend: 0x0, symName: __ZNSt3__17launderB7v160006IN5boost5beast14buffers_suffixINS2_16buffers_cat_viewIJNS2_4http6detail10chunk_sizeENS1_4asio12const_bufferENS5_10chunk_crlfES9_SA_S9_S9_SA_EEEEEEEPT_SE_, symObjAddr: 0x2BB5C, symBinAddr: 0x10002EB54, symSize: 0x24 }
  - { offsetInCU: 0x4A789, offset: 0x4A789, size: 0x8, addend: 0x0, symName: __ZNSt3__19__launderB7v160006IN5boost5beast14buffers_suffixINS2_16buffers_cat_viewIJNS2_4http6detail10chunk_sizeENS1_4asio12const_bufferENS5_10chunk_crlfES9_SA_S9_S9_SA_EEEEEEEPT_SE_, symObjAddr: 0x2BB80, symBinAddr: 0x10002EB78, symSize: 0x14 }
  - { offsetInCU: 0x4A7C0, offset: 0x4A7C0, size: 0x8, addend: 0x0, symName: __ZNSt3__17launderB7v160006IN5boost5beast14buffers_suffixINS2_16buffers_cat_viewIJNS2_6detail11buffers_refINS4_IJNS1_4asio12const_bufferES8_S8_NS2_4http12basic_fieldsINS_9allocatorIcEEE6writer11field_rangeENS9_10chunk_crlfEEEEEENS9_6detail10chunk_sizeES8_SG_S8_SG_S8_S8_SG_EEEEEEEPT_SO_, symObjAddr: 0x2C0B8, symBinAddr: 0x10002F0B0, symSize: 0x24 }
  - { offsetInCU: 0x4A7F7, offset: 0x4A7F7, size: 0x8, addend: 0x0, symName: __ZNSt3__19__launderB7v160006IN5boost5beast14buffers_suffixINS2_16buffers_cat_viewIJNS2_6detail11buffers_refINS4_IJNS1_4asio12const_bufferES8_S8_NS2_4http12basic_fieldsINS_9allocatorIcEEE6writer11field_rangeENS9_10chunk_crlfEEEEEENS9_6detail10chunk_sizeES8_SG_S8_SG_S8_S8_SG_EEEEEEEPT_SO_, symObjAddr: 0x2C0DC, symBinAddr: 0x10002F0D4, symSize: 0x14 }
  - { offsetInCU: 0x4A82E, offset: 0x4A82E, size: 0x8, addend: 0x0, symName: __ZNSt3__17launderB7v160006IN5boost5beast14buffers_suffixINS2_16buffers_cat_viewIJNS1_4asio12const_bufferES6_NS2_4http10chunk_crlfEEEEEEEEPT_SC_, symObjAddr: 0x2C654, symBinAddr: 0x10002F64C, symSize: 0x24 }
  - { offsetInCU: 0x4A865, offset: 0x4A865, size: 0x8, addend: 0x0, symName: __ZNSt3__19__launderB7v160006IN5boost5beast14buffers_suffixINS2_16buffers_cat_viewIJNS1_4asio12const_bufferES6_NS2_4http10chunk_crlfEEEEEEEEPT_SC_, symObjAddr: 0x2C678, symBinAddr: 0x10002F670, symSize: 0x14 }
  - { offsetInCU: 0x4A89C, offset: 0x4A89C, size: 0x8, addend: 0x0, symName: __ZNSt3__17launderB7v160006IKPKN5boost4asio12const_bufferEEEPT_S8_, symObjAddr: 0x2D34C, symBinAddr: 0x100030344, symSize: 0x24 }
  - { offsetInCU: 0x4A8D3, offset: 0x4A8D3, size: 0x8, addend: 0x0, symName: __ZNSt3__19__launderB7v160006IKPKN5boost4asio12const_bufferEEEPT_S8_, symObjAddr: 0x2D370, symBinAddr: 0x100030368, symSize: 0x14 }
  - { offsetInCU: 0x4A90A, offset: 0x4A90A, size: 0x8, addend: 0x0, symName: __ZNSt3__17launderB7v160006IKN5boost5beast4http12basic_fieldsINS_9allocatorIcEEE6writer14field_iteratorEEEPT_SC_, symObjAddr: 0x2D3A8, symBinAddr: 0x1000303A0, symSize: 0x24 }
  - { offsetInCU: 0x4A941, offset: 0x4A941, size: 0x8, addend: 0x0, symName: __ZNSt3__19__launderB7v160006IKN5boost5beast4http12basic_fieldsINS_9allocatorIcEEE6writer14field_iteratorEEEPT_SC_, symObjAddr: 0x2D3CC, symBinAddr: 0x1000303C4, symSize: 0x14 }
  - { offsetInCU: 0x4A978, offset: 0x4A978, size: 0x8, addend: 0x0, symName: __ZNSt3__17launderB7v160006IKN5boost5beast6detail30buffers_cat_view_iterator_base8past_endEEEPT_S8_, symObjAddr: 0x2D404, symBinAddr: 0x1000303FC, symSize: 0x24 }
  - { offsetInCU: 0x4A9AF, offset: 0x4A9AF, size: 0x8, addend: 0x0, symName: __ZNSt3__19__launderB7v160006IKN5boost5beast6detail30buffers_cat_view_iterator_base8past_endEEEPT_S8_, symObjAddr: 0x2D428, symBinAddr: 0x100030420, symSize: 0x14 }
  - { offsetInCU: 0x4A9E6, offset: 0x4A9E6, size: 0x8, addend: 0x0, symName: __ZNSt3__17launderB7v160006IN5boost5beast19buffers_prefix_viewIRKNS2_14buffers_suffixINS2_6detail11buffers_refINS2_16buffers_cat_viewIJNS1_4asio12const_bufferES9_S9_NS2_4http12basic_fieldsINS_9allocatorIcEEE6writer11field_rangeENSA_10chunk_crlfEEEEEEEEEEEEPT_SP_, symObjAddr: 0x2FE04, symBinAddr: 0x100032DFC, symSize: 0x24 }
  - { offsetInCU: 0x4AA1D, offset: 0x4AA1D, size: 0x8, addend: 0x0, symName: __ZNSt3__19__launderB7v160006IN5boost5beast19buffers_prefix_viewIRKNS2_14buffers_suffixINS2_6detail11buffers_refINS2_16buffers_cat_viewIJNS1_4asio12const_bufferES9_S9_NS2_4http12basic_fieldsINS_9allocatorIcEEE6writer11field_rangeENSA_10chunk_crlfEEEEEEEEEEEEPT_SP_, symObjAddr: 0x2FE28, symBinAddr: 0x100032E20, symSize: 0x14 }
  - { offsetInCU: 0x4AA54, offset: 0x4AA54, size: 0x8, addend: 0x0, symName: __ZNSt3__17launderB7v160006IN5boost5beast19buffers_prefix_viewIRKNS2_14buffers_suffixINS2_16buffers_cat_viewIJNS2_6detail11buffers_refINS5_IJNS1_4asio12const_bufferES9_S9_NS2_4http12basic_fieldsINS_9allocatorIcEEE6writer11field_rangeENSA_10chunk_crlfEEEEEES9_EEEEEEEEEPT_SQ_, symObjAddr: 0x2FF14, symBinAddr: 0x100032F0C, symSize: 0x24 }
  - { offsetInCU: 0x4AA8B, offset: 0x4AA8B, size: 0x8, addend: 0x0, symName: __ZNSt3__19__launderB7v160006IN5boost5beast19buffers_prefix_viewIRKNS2_14buffers_suffixINS2_16buffers_cat_viewIJNS2_6detail11buffers_refINS5_IJNS1_4asio12const_bufferES9_S9_NS2_4http12basic_fieldsINS_9allocatorIcEEE6writer11field_rangeENSA_10chunk_crlfEEEEEES9_EEEEEEEEEPT_SQ_, symObjAddr: 0x2FF38, symBinAddr: 0x100032F30, symSize: 0x14 }
  - { offsetInCU: 0x4AAC2, offset: 0x4AAC2, size: 0x8, addend: 0x0, symName: __ZNSt3__17launderB7v160006IN5boost5beast19buffers_prefix_viewIRKNS2_14buffers_suffixINS1_4asio12const_bufferEEEEEEEPT_SC_, symObjAddr: 0x2FFF8, symBinAddr: 0x100032FF0, symSize: 0x24 }
  - { offsetInCU: 0x4AAF9, offset: 0x4AAF9, size: 0x8, addend: 0x0, symName: __ZNSt3__19__launderB7v160006IN5boost5beast19buffers_prefix_viewIRKNS2_14buffers_suffixINS1_4asio12const_bufferEEEEEEEPT_SC_, symObjAddr: 0x3001C, symBinAddr: 0x100033014, symSize: 0x14 }
  - { offsetInCU: 0x4AB30, offset: 0x4AB30, size: 0x8, addend: 0x0, symName: __ZNSt3__17launderB7v160006IN5boost5beast19buffers_prefix_viewIRKNS2_14buffers_suffixINS2_16buffers_cat_viewIJNS2_6detail11buffers_refINS5_IJNS1_4asio12const_bufferES9_S9_NS2_4http12basic_fieldsINS_9allocatorIcEEE6writer11field_rangeENSA_10chunk_crlfEEEEEENSA_6detail10chunk_sizeES9_SH_S9_SH_EEEEEEEEEPT_SS_, symObjAddr: 0x30080, symBinAddr: 0x100033078, symSize: 0x24 }
  - { offsetInCU: 0x4AB67, offset: 0x4AB67, size: 0x8, addend: 0x0, symName: __ZNSt3__19__launderB7v160006IN5boost5beast19buffers_prefix_viewIRKNS2_14buffers_suffixINS2_16buffers_cat_viewIJNS2_6detail11buffers_refINS5_IJNS1_4asio12const_bufferES9_S9_NS2_4http12basic_fieldsINS_9allocatorIcEEE6writer11field_rangeENSA_10chunk_crlfEEEEEENSA_6detail10chunk_sizeES9_SH_S9_SH_EEEEEEEEEPT_SS_, symObjAddr: 0x300A4, symBinAddr: 0x10003309C, symSize: 0x14 }
  - { offsetInCU: 0x4AB9E, offset: 0x4AB9E, size: 0x8, addend: 0x0, symName: __ZNSt3__17launderB7v160006IN5boost5beast19buffers_prefix_viewIRKNS2_14buffers_suffixINS2_16buffers_cat_viewIJNS2_4http6detail10chunk_sizeENS1_4asio12const_bufferENS6_10chunk_crlfESA_SB_EEEEEEEEEPT_SI_, symObjAddr: 0x30190, symBinAddr: 0x100033188, symSize: 0x24 }
  - { offsetInCU: 0x4ABD5, offset: 0x4ABD5, size: 0x8, addend: 0x0, symName: __ZNSt3__19__launderB7v160006IN5boost5beast19buffers_prefix_viewIRKNS2_14buffers_suffixINS2_16buffers_cat_viewIJNS2_4http6detail10chunk_sizeENS1_4asio12const_bufferENS6_10chunk_crlfESA_SB_EEEEEEEEEPT_SI_, symObjAddr: 0x301B4, symBinAddr: 0x1000331AC, symSize: 0x14 }
  - { offsetInCU: 0x4AC0C, offset: 0x4AC0C, size: 0x8, addend: 0x0, symName: __ZNSt3__17launderB7v160006IN5boost5beast19buffers_prefix_viewIRKNS2_14buffers_suffixINS2_16buffers_cat_viewIJNS2_4http6detail10chunk_sizeENS1_4asio12const_bufferENS6_10chunk_crlfESA_SB_SA_SA_SB_EEEEEEEEEPT_SI_, symObjAddr: 0x302A0, symBinAddr: 0x100033298, symSize: 0x24 }
  - { offsetInCU: 0x4AC43, offset: 0x4AC43, size: 0x8, addend: 0x0, symName: __ZNSt3__19__launderB7v160006IN5boost5beast19buffers_prefix_viewIRKNS2_14buffers_suffixINS2_16buffers_cat_viewIJNS2_4http6detail10chunk_sizeENS1_4asio12const_bufferENS6_10chunk_crlfESA_SB_SA_SA_SB_EEEEEEEEEPT_SI_, symObjAddr: 0x302C4, symBinAddr: 0x1000332BC, symSize: 0x14 }
  - { offsetInCU: 0x4AC7A, offset: 0x4AC7A, size: 0x8, addend: 0x0, symName: __ZNSt3__17launderB7v160006IN5boost5beast19buffers_prefix_viewIRKNS2_14buffers_suffixINS2_16buffers_cat_viewIJNS2_6detail11buffers_refINS5_IJNS1_4asio12const_bufferES9_S9_NS2_4http12basic_fieldsINS_9allocatorIcEEE6writer11field_rangeENSA_10chunk_crlfEEEEEENSA_6detail10chunk_sizeES9_SH_S9_SH_S9_S9_SH_EEEEEEEEEPT_SS_, symObjAddr: 0x303B0, symBinAddr: 0x1000333A8, symSize: 0x24 }
  - { offsetInCU: 0x4ACB1, offset: 0x4ACB1, size: 0x8, addend: 0x0, symName: __ZNSt3__19__launderB7v160006IN5boost5beast19buffers_prefix_viewIRKNS2_14buffers_suffixINS2_16buffers_cat_viewIJNS2_6detail11buffers_refINS5_IJNS1_4asio12const_bufferES9_S9_NS2_4http12basic_fieldsINS_9allocatorIcEEE6writer11field_rangeENSA_10chunk_crlfEEEEEENSA_6detail10chunk_sizeES9_SH_S9_SH_S9_S9_SH_EEEEEEEEEPT_SS_, symObjAddr: 0x303D4, symBinAddr: 0x1000333CC, symSize: 0x14 }
  - { offsetInCU: 0x4ACE8, offset: 0x4ACE8, size: 0x8, addend: 0x0, symName: __ZNSt3__17launderB7v160006IN5boost5beast19buffers_prefix_viewIRKNS2_14buffers_suffixINS2_16buffers_cat_viewIJNS1_4asio12const_bufferES7_NS2_4http10chunk_crlfEEEEEEEEEEPT_SG_, symObjAddr: 0x304C0, symBinAddr: 0x1000334B8, symSize: 0x24 }
  - { offsetInCU: 0x4AD1F, offset: 0x4AD1F, size: 0x8, addend: 0x0, symName: __ZNSt3__19__launderB7v160006IN5boost5beast19buffers_prefix_viewIRKNS2_14buffers_suffixINS2_16buffers_cat_viewIJNS1_4asio12const_bufferES7_NS2_4http10chunk_crlfEEEEEEEEEEPT_SG_, symObjAddr: 0x304E4, symBinAddr: 0x1000334DC, symSize: 0x14 }
  - { offsetInCU: 0x4AD56, offset: 0x4AD56, size: 0x8, addend: 0x0, symName: __ZNSt3__17launderB7v160006IKN5boost5beast16buffers_cat_viewIJNS1_4asio12const_bufferES5_S5_NS2_4http12basic_fieldsINS_9allocatorIcEEE6writer11field_rangeENS6_10chunk_crlfEEE14const_iteratorEEEPT_SI_, symObjAddr: 0x30F90, symBinAddr: 0x100033F88, symSize: 0x24 }
  - { offsetInCU: 0x4AD8D, offset: 0x4AD8D, size: 0x8, addend: 0x0, symName: __ZNSt3__19__launderB7v160006IKN5boost5beast16buffers_cat_viewIJNS1_4asio12const_bufferES5_S5_NS2_4http12basic_fieldsINS_9allocatorIcEEE6writer11field_rangeENS6_10chunk_crlfEEE14const_iteratorEEEPT_SI_, symObjAddr: 0x30FB4, symBinAddr: 0x100033FAC, symSize: 0x14 }
  - { offsetInCU: 0x4ADC4, offset: 0x4ADC4, size: 0x8, addend: 0x0, symName: __ZNSt3__111make_sharedB7v160006IN5boost5beast4http6detail10chunk_size8sequenceEJRmEvEENS_10shared_ptrIT_EEDpOT0_, symObjAddr: 0x34FE0, symBinAddr: 0x100037FD8, symSize: 0x40 }
  - { offsetInCU: 0x4AE09, offset: 0x4AE09, size: 0x8, addend: 0x0, symName: __ZNSt3__115allocate_sharedB7v160006IN5boost5beast4http6detail10chunk_size8sequenceENS_9allocatorIS6_EEJRmEvEENS_10shared_ptrIT_EERKT0_DpOT1_, symObjAddr: 0x35020, symBinAddr: 0x100038018, symSize: 0x98 }
  - { offsetInCU: 0x4B15F, offset: 0x4B15F, size: 0x8, addend: 0x0, symName: __ZNSt3__14swapB7v160006IN5boost9intrusive18tree_value_compareIPNS1_5beast4http12basic_fieldsINS_9allocatorIcEEE7elementENS9_11key_compareENS1_11move_detail8identityISA_EEbLb1EEEEENS_9enable_ifIXaasr21is_move_constructibleIT_EE5valuesr18is_move_assignableISI_EE5valueEvE4typeERSI_SL_, symObjAddr: 0x4AE60, symBinAddr: 0x10004DE58, symSize: 0x8C }
  - { offsetInCU: 0x4B25C, offset: 0x4B25C, size: 0x8, addend: 0x0, symName: __ZNSt3__14prevB7v160006IN5boost9intrusive13tree_iteratorINS2_8bhtraitsINS1_5beast4http12basic_fieldsINS_9allocatorIcEEE7elementENS2_18rbtree_node_traitsIPvLb0EEELNS2_14link_mode_typeE0ENS2_7dft_tagELj3EEELb0EEEEENS_9enable_ifIXsr25__is_cpp17_input_iteratorIT_EE5valueESK_E4typeESK_NS_15iterator_traitsISK_E15difference_typeE, symObjAddr: 0x4CA20, symBinAddr: 0x10004FA18, symSize: 0xE0 }
  - { offsetInCU: 0x4B47D, offset: 0x4B47D, size: 0x8, addend: 0x0, symName: __ZNSt3__19__advanceB7v160006IN5boost9intrusive13tree_iteratorINS2_8bhtraitsINS1_5beast4http12basic_fieldsINS_9allocatorIcEEE7elementENS2_18rbtree_node_traitsIPvLb0EEELNS2_14link_mode_typeE0ENS2_7dft_tagELj3EEELb0EEEEEvRT_NS_15iterator_traitsISJ_E15difference_typeENS_26bidirectional_iterator_tagE, symObjAddr: 0x4DC1C, symBinAddr: 0x100050C14, symSize: 0xD4 }
  - { offsetInCU: 0x4B50C, offset: 0x4B50C, size: 0x8, addend: 0x0, symName: __ZNSt3__14nextB7v160006IN5boost9intrusive13list_iteratorINS2_8bhtraitsINS1_5beast18basic_multi_bufferINS_9allocatorIcEEE7elementENS2_16list_node_traitsIPvEELNS2_14link_mode_typeE0ENS2_7dft_tagELj1EEELb0EEEEENS_9enable_ifIXsr25__is_cpp17_input_iteratorIT_EE5valueESJ_E4typeESJ_NS_15iterator_traitsISJ_E15difference_typeE, symObjAddr: 0x5009C, symBinAddr: 0x100053094, symSize: 0xD8 }
  - { offsetInCU: 0x4B629, offset: 0x4B629, size: 0x8, addend: 0x0, symName: __ZNSt3__19__advanceB7v160006IN5boost9intrusive13list_iteratorINS2_8bhtraitsINS1_5beast18basic_multi_bufferINS_9allocatorIcEEE7elementENS2_16list_node_traitsIPvEELNS2_14link_mode_typeE0ENS2_7dft_tagELj1EEELb0EEEEEvRT_NS_15iterator_traitsISI_E15difference_typeENS_26bidirectional_iterator_tagE, symObjAddr: 0x50624, symBinAddr: 0x10005361C, symSize: 0xD0 }
  - { offsetInCU: 0x4B6FF, offset: 0x4B6FF, size: 0x8, addend: 0x0, symName: __ZNSt3__14prevB7v160006IN5boost9intrusive13list_iteratorINS2_8bhtraitsINS1_5beast18basic_multi_bufferINS_9allocatorIcEEE7elementENS2_16list_node_traitsIPvEELNS2_14link_mode_typeE0ENS2_7dft_tagELj1EEELb1EEEEENS_9enable_ifIXsr25__is_cpp17_input_iteratorIT_EE5valueESJ_E4typeESJ_NS_15iterator_traitsISJ_E15difference_typeE, symObjAddr: 0x51920, symBinAddr: 0x100054918, symSize: 0xE0 }
  - { offsetInCU: 0x4B841, offset: 0x4B841, size: 0x8, addend: 0x0, symName: __ZNSt3__14nextB7v160006IN5boost9intrusive13list_iteratorINS2_8bhtraitsINS1_5beast18basic_multi_bufferINS_9allocatorIcEEE7elementENS2_16list_node_traitsIPvEELNS2_14link_mode_typeE0ENS2_7dft_tagELj1EEELb1EEEEENS_9enable_ifIXsr25__is_cpp17_input_iteratorIT_EE5valueESJ_E4typeESJ_NS_15iterator_traitsISJ_E15difference_typeE, symObjAddr: 0x51AD8, symBinAddr: 0x100054AD0, symSize: 0xD8 }
  - { offsetInCU: 0x4B95E, offset: 0x4B95E, size: 0x8, addend: 0x0, symName: __ZNSt3__19__advanceB7v160006IN5boost9intrusive13list_iteratorINS2_8bhtraitsINS1_5beast18basic_multi_bufferINS_9allocatorIcEEE7elementENS2_16list_node_traitsIPvEELNS2_14link_mode_typeE0ENS2_7dft_tagELj1EEELb1EEEEEvRT_NS_15iterator_traitsISI_E15difference_typeENS_26bidirectional_iterator_tagE, symObjAddr: 0x51C00, symBinAddr: 0x100054BF8, symSize: 0xD0 }
  - { offsetInCU: 0x4BA34, offset: 0x4BA34, size: 0x8, addend: 0x0, symName: __ZNSt3__125__throw_bad_function_callB7v160006Ev, symObjAddr: 0x52C24, symBinAddr: 0x100055C1C, symSize: 0x38 }
  - { offsetInCU: 0x4BA85, offset: 0x4BA85, size: 0x8, addend: 0x0, symName: __ZNSt3__14nextB7v160006IPKN5boost4asio14mutable_bufferEEENS_9enable_ifIXsr25__is_cpp17_input_iteratorIT_EE5valueES7_E4typeES7_NS_15iterator_traitsIS7_E15difference_typeE, symObjAddr: 0x53BC4, symBinAddr: 0x100056BBC, symSize: 0x48 }
  - { offsetInCU: 0x4BACC, offset: 0x4BACC, size: 0x8, addend: 0x0, symName: __ZNSt3__19__advanceB7v160006IPKN5boost4asio14mutable_bufferEEEvRT_NS_15iterator_traitsIS6_E15difference_typeENS_26random_access_iterator_tagE, symObjAddr: 0x546E4, symBinAddr: 0x1000576DC, symSize: 0x28 }
  - { offsetInCU: 0x4BB1A, offset: 0x4BB1A, size: 0x8, addend: 0x0, symName: __ZNSt3__13tieB7v160006IJPKcbEEENS_5tupleIJDpRT_EEES6_, symObjAddr: 0x57488, symBinAddr: 0x10005A480, symSize: 0x38 }
  - { offsetInCU: 0x4C033, offset: 0x4C033, size: 0x8, addend: 0x0, symName: __ZNSt3__13getB7v160006ILm0EJRPKcRbEEERNS_13tuple_elementIXT_ENS_5tupleIJDpT0_EEEE4typeERS9_, symObjAddr: 0x57904, symBinAddr: 0x10005A8FC, symSize: 0x24 }
  - { offsetInCU: 0x4C07E, offset: 0x4C07E, size: 0x8, addend: 0x0, symName: __ZNSt3__13getB7v160006ILm1EJRPKcRbEEERNS_13tuple_elementIXT_ENS_5tupleIJDpT0_EEEE4typeERS9_, symObjAddr: 0x57928, symBinAddr: 0x10005A920, symSize: 0x28 }
  - { offsetInCU: 0x4C0CA, offset: 0x4C0CA, size: 0x8, addend: 0x0, symName: __ZNSt3__15countB7v160006IPKccEENS_15iterator_traitsIT_E15difference_typeES4_S4_RKT0_, symObjAddr: 0x57F44, symBinAddr: 0x10005AF3C, symSize: 0x80 }
  - { offsetInCU: 0x4C138, offset: 0x4C138, size: 0x8, addend: 0x0, symName: __ZNSt3__17find_ifB7v160006IN5boost5beast4http10token_list14const_iteratorEZNS3_12basic_parserILb0EE8do_fieldENS3_5fieldENS1_4core17basic_string_viewIcEERNS1_6system10error_codeEEUlRKSB_E_EET_SI_SI_T0_, symObjAddr: 0x5830C, symBinAddr: 0x10005B304, symSize: 0x84 }
  - { offsetInCU: 0x4C391, offset: 0x4C391, size: 0x8, addend: 0x0, symName: __ZNSt3__17launderB7v160006IN5boost5beast14buffers_suffixINS2_16buffers_cat_viewIJNS2_6detail11buffers_refINS4_IJNS1_4asio12const_bufferES8_S8_NS2_4http12basic_fieldsINS_9allocatorIcEEE6writer11field_rangeENS9_10chunk_crlfEEEEEENS2_18basic_multi_bufferISC_E8subrangeILb0EEEEEEEEEEPT_SQ_, symObjAddr: 0x5F70C, symBinAddr: 0x100062704, symSize: 0x24 }
  - { offsetInCU: 0x4C3C8, offset: 0x4C3C8, size: 0x8, addend: 0x0, symName: __ZNSt3__19__launderB7v160006IN5boost5beast14buffers_suffixINS2_16buffers_cat_viewIJNS2_6detail11buffers_refINS4_IJNS1_4asio12const_bufferES8_S8_NS2_4http12basic_fieldsINS_9allocatorIcEEE6writer11field_rangeENS9_10chunk_crlfEEEEEENS2_18basic_multi_bufferISC_E8subrangeILb0EEEEEEEEEEPT_SQ_, symObjAddr: 0x5F730, symBinAddr: 0x100062728, symSize: 0x14 }
  - { offsetInCU: 0x4C3FF, offset: 0x4C3FF, size: 0x8, addend: 0x0, symName: __ZNSt3__17launderB7v160006IN5boost5beast18basic_multi_bufferINS_9allocatorIcEEE8subrangeILb0EE14const_iteratorEEEPT_SB_, symObjAddr: 0x5FA14, symBinAddr: 0x100062A0C, symSize: 0x24 }
  - { offsetInCU: 0x4C436, offset: 0x4C436, size: 0x8, addend: 0x0, symName: __ZNSt3__19__launderB7v160006IN5boost5beast18basic_multi_bufferINS_9allocatorIcEEE8subrangeILb0EE14const_iteratorEEEPT_SB_, symObjAddr: 0x5FA38, symBinAddr: 0x100062A30, symSize: 0x14 }
  - { offsetInCU: 0x4C46D, offset: 0x4C46D, size: 0x8, addend: 0x0, symName: __ZNSt3__17launderB7v160006IN5boost5beast14buffers_suffixINS2_18basic_multi_bufferINS_9allocatorIcEEE8subrangeILb0EEEEEEEPT_SC_, symObjAddr: 0x5FA70, symBinAddr: 0x100062A68, symSize: 0x24 }
  - { offsetInCU: 0x4C4A4, offset: 0x4C4A4, size: 0x8, addend: 0x0, symName: __ZNSt3__19__launderB7v160006IN5boost5beast14buffers_suffixINS2_18basic_multi_bufferINS_9allocatorIcEEE8subrangeILb0EEEEEEEPT_SC_, symObjAddr: 0x5FA94, symBinAddr: 0x100062A8C, symSize: 0x14 }
  - { offsetInCU: 0x4C4DB, offset: 0x4C4DB, size: 0x8, addend: 0x0, symName: __ZNSt3__17launderB7v160006IN5boost5beast14buffers_suffixINS2_16buffers_cat_viewIJNS2_6detail11buffers_refINS4_IJNS1_4asio12const_bufferES8_S8_NS2_4http12basic_fieldsINS_9allocatorIcEEE6writer11field_rangeENS9_10chunk_crlfEEEEEENS9_6detail10chunk_sizeES8_SG_NS2_18basic_multi_bufferISC_E8subrangeILb0EEESG_EEEEEEEPT_SS_, symObjAddr: 0x5FAF8, symBinAddr: 0x100062AF0, symSize: 0x24 }
  - { offsetInCU: 0x4C512, offset: 0x4C512, size: 0x8, addend: 0x0, symName: __ZNSt3__19__launderB7v160006IN5boost5beast14buffers_suffixINS2_16buffers_cat_viewIJNS2_6detail11buffers_refINS4_IJNS1_4asio12const_bufferES8_S8_NS2_4http12basic_fieldsINS_9allocatorIcEEE6writer11field_rangeENS9_10chunk_crlfEEEEEENS9_6detail10chunk_sizeES8_SG_NS2_18basic_multi_bufferISC_E8subrangeILb0EEESG_EEEEEEEPT_SS_, symObjAddr: 0x5FB1C, symBinAddr: 0x100062B14, symSize: 0x14 }
  - { offsetInCU: 0x4C549, offset: 0x4C549, size: 0x8, addend: 0x0, symName: __ZNSt3__17launderB7v160006IN5boost5beast14buffers_suffixINS2_16buffers_cat_viewIJNS2_4http6detail10chunk_sizeENS1_4asio12const_bufferENS5_10chunk_crlfENS2_18basic_multi_bufferINS_9allocatorIcEEE8subrangeILb0EEESA_EEEEEEEPT_SK_, symObjAddr: 0x5FFEC, symBinAddr: 0x100062FE4, symSize: 0x24 }
  - { offsetInCU: 0x4C580, offset: 0x4C580, size: 0x8, addend: 0x0, symName: __ZNSt3__19__launderB7v160006IN5boost5beast14buffers_suffixINS2_16buffers_cat_viewIJNS2_4http6detail10chunk_sizeENS1_4asio12const_bufferENS5_10chunk_crlfENS2_18basic_multi_bufferINS_9allocatorIcEEE8subrangeILb0EEESA_EEEEEEEPT_SK_, symObjAddr: 0x60010, symBinAddr: 0x100063008, symSize: 0x14 }
  - { offsetInCU: 0x4C5B7, offset: 0x4C5B7, size: 0x8, addend: 0x0, symName: __ZNSt3__17launderB7v160006IN5boost5beast14buffers_suffixINS2_16buffers_cat_viewIJNS2_4http6detail10chunk_sizeENS1_4asio12const_bufferENS5_10chunk_crlfENS2_18basic_multi_bufferINS_9allocatorIcEEE8subrangeILb0EEESA_S9_S9_SA_EEEEEEEPT_SK_, symObjAddr: 0x60524, symBinAddr: 0x10006351C, symSize: 0x24 }
  - { offsetInCU: 0x4C5EE, offset: 0x4C5EE, size: 0x8, addend: 0x0, symName: __ZNSt3__19__launderB7v160006IN5boost5beast14buffers_suffixINS2_16buffers_cat_viewIJNS2_4http6detail10chunk_sizeENS1_4asio12const_bufferENS5_10chunk_crlfENS2_18basic_multi_bufferINS_9allocatorIcEEE8subrangeILb0EEESA_S9_S9_SA_EEEEEEEPT_SK_, symObjAddr: 0x60548, symBinAddr: 0x100063540, symSize: 0x14 }
  - { offsetInCU: 0x4C625, offset: 0x4C625, size: 0x8, addend: 0x0, symName: __ZNSt3__17launderB7v160006IN5boost5beast14buffers_suffixINS2_16buffers_cat_viewIJNS2_6detail11buffers_refINS4_IJNS1_4asio12const_bufferES8_S8_NS2_4http12basic_fieldsINS_9allocatorIcEEE6writer11field_rangeENS9_10chunk_crlfEEEEEENS9_6detail10chunk_sizeES8_SG_NS2_18basic_multi_bufferISC_E8subrangeILb0EEESG_S8_S8_SG_EEEEEEEPT_SS_, symObjAddr: 0x60A80, symBinAddr: 0x100063A78, symSize: 0x24 }
  - { offsetInCU: 0x4C65C, offset: 0x4C65C, size: 0x8, addend: 0x0, symName: __ZNSt3__19__launderB7v160006IN5boost5beast14buffers_suffixINS2_16buffers_cat_viewIJNS2_6detail11buffers_refINS4_IJNS1_4asio12const_bufferES8_S8_NS2_4http12basic_fieldsINS_9allocatorIcEEE6writer11field_rangeENS9_10chunk_crlfEEEEEENS9_6detail10chunk_sizeES8_SG_NS2_18basic_multi_bufferISC_E8subrangeILb0EEESG_S8_S8_SG_EEEEEEEPT_SS_, symObjAddr: 0x60AA4, symBinAddr: 0x100063A9C, symSize: 0x14 }
  - { offsetInCU: 0x4C693, offset: 0x4C693, size: 0x8, addend: 0x0, symName: __ZNSt3__17launderB7v160006IN5boost5beast19buffers_prefix_viewIRKNS2_14buffers_suffixINS2_16buffers_cat_viewIJNS2_6detail11buffers_refINS5_IJNS1_4asio12const_bufferES9_S9_NS2_4http12basic_fieldsINS_9allocatorIcEEE6writer11field_rangeENSA_10chunk_crlfEEEEEENS2_18basic_multi_bufferISD_E8subrangeILb0EEEEEEEEEEEEPT_SU_, symObjAddr: 0x62704, symBinAddr: 0x1000656FC, symSize: 0x24 }
  - { offsetInCU: 0x4C6CA, offset: 0x4C6CA, size: 0x8, addend: 0x0, symName: __ZNSt3__19__launderB7v160006IN5boost5beast19buffers_prefix_viewIRKNS2_14buffers_suffixINS2_16buffers_cat_viewIJNS2_6detail11buffers_refINS5_IJNS1_4asio12const_bufferES9_S9_NS2_4http12basic_fieldsINS_9allocatorIcEEE6writer11field_rangeENSA_10chunk_crlfEEEEEENS2_18basic_multi_bufferISD_E8subrangeILb0EEEEEEEEEEEEPT_SU_, symObjAddr: 0x62728, symBinAddr: 0x100065720, symSize: 0x14 }
  - { offsetInCU: 0x4C701, offset: 0x4C701, size: 0x8, addend: 0x0, symName: __ZNSt3__17launderB7v160006IN5boost5beast19buffers_prefix_viewIRKNS2_14buffers_suffixINS2_18basic_multi_bufferINS_9allocatorIcEEE8subrangeILb0EEEEEEEEEPT_SG_, symObjAddr: 0x627E8, symBinAddr: 0x1000657E0, symSize: 0x24 }
  - { offsetInCU: 0x4C738, offset: 0x4C738, size: 0x8, addend: 0x0, symName: __ZNSt3__19__launderB7v160006IN5boost5beast19buffers_prefix_viewIRKNS2_14buffers_suffixINS2_18basic_multi_bufferINS_9allocatorIcEEE8subrangeILb0EEEEEEEEEPT_SG_, symObjAddr: 0x6280C, symBinAddr: 0x100065804, symSize: 0x14 }
  - { offsetInCU: 0x4C76F, offset: 0x4C76F, size: 0x8, addend: 0x0, symName: __ZNSt3__17launderB7v160006IN5boost5beast19buffers_prefix_viewIRKNS2_14buffers_suffixINS2_16buffers_cat_viewIJNS2_6detail11buffers_refINS5_IJNS1_4asio12const_bufferES9_S9_NS2_4http12basic_fieldsINS_9allocatorIcEEE6writer11field_rangeENSA_10chunk_crlfEEEEEENSA_6detail10chunk_sizeES9_SH_NS2_18basic_multi_bufferISD_E8subrangeILb0EEESH_EEEEEEEEEPT_SW_, symObjAddr: 0x62870, symBinAddr: 0x100065868, symSize: 0x24 }
  - { offsetInCU: 0x4C7A6, offset: 0x4C7A6, size: 0x8, addend: 0x0, symName: __ZNSt3__19__launderB7v160006IN5boost5beast19buffers_prefix_viewIRKNS2_14buffers_suffixINS2_16buffers_cat_viewIJNS2_6detail11buffers_refINS5_IJNS1_4asio12const_bufferES9_S9_NS2_4http12basic_fieldsINS_9allocatorIcEEE6writer11field_rangeENSA_10chunk_crlfEEEEEENSA_6detail10chunk_sizeES9_SH_NS2_18basic_multi_bufferISD_E8subrangeILb0EEESH_EEEEEEEEEPT_SW_, symObjAddr: 0x62894, symBinAddr: 0x10006588C, symSize: 0x14 }
  - { offsetInCU: 0x4C7DD, offset: 0x4C7DD, size: 0x8, addend: 0x0, symName: __ZNSt3__17launderB7v160006IN5boost5beast19buffers_prefix_viewIRKNS2_14buffers_suffixINS2_16buffers_cat_viewIJNS2_4http6detail10chunk_sizeENS1_4asio12const_bufferENS6_10chunk_crlfENS2_18basic_multi_bufferINS_9allocatorIcEEE8subrangeILb0EEESB_EEEEEEEEEPT_SO_, symObjAddr: 0x62980, symBinAddr: 0x100065978, symSize: 0x24 }
  - { offsetInCU: 0x4C814, offset: 0x4C814, size: 0x8, addend: 0x0, symName: __ZNSt3__19__launderB7v160006IN5boost5beast19buffers_prefix_viewIRKNS2_14buffers_suffixINS2_16buffers_cat_viewIJNS2_4http6detail10chunk_sizeENS1_4asio12const_bufferENS6_10chunk_crlfENS2_18basic_multi_bufferINS_9allocatorIcEEE8subrangeILb0EEESB_EEEEEEEEEPT_SO_, symObjAddr: 0x629A4, symBinAddr: 0x10006599C, symSize: 0x14 }
  - { offsetInCU: 0x4C84B, offset: 0x4C84B, size: 0x8, addend: 0x0, symName: __ZNSt3__17launderB7v160006IN5boost5beast19buffers_prefix_viewIRKNS2_14buffers_suffixINS2_16buffers_cat_viewIJNS2_4http6detail10chunk_sizeENS1_4asio12const_bufferENS6_10chunk_crlfENS2_18basic_multi_bufferINS_9allocatorIcEEE8subrangeILb0EEESB_SA_SA_SB_EEEEEEEEEPT_SO_, symObjAddr: 0x62A90, symBinAddr: 0x100065A88, symSize: 0x24 }
  - { offsetInCU: 0x4C882, offset: 0x4C882, size: 0x8, addend: 0x0, symName: __ZNSt3__19__launderB7v160006IN5boost5beast19buffers_prefix_viewIRKNS2_14buffers_suffixINS2_16buffers_cat_viewIJNS2_4http6detail10chunk_sizeENS1_4asio12const_bufferENS6_10chunk_crlfENS2_18basic_multi_bufferINS_9allocatorIcEEE8subrangeILb0EEESB_SA_SA_SB_EEEEEEEEEPT_SO_, symObjAddr: 0x62AB4, symBinAddr: 0x100065AAC, symSize: 0x14 }
  - { offsetInCU: 0x4C8B9, offset: 0x4C8B9, size: 0x8, addend: 0x0, symName: __ZNSt3__17launderB7v160006IN5boost5beast19buffers_prefix_viewIRKNS2_14buffers_suffixINS2_16buffers_cat_viewIJNS2_6detail11buffers_refINS5_IJNS1_4asio12const_bufferES9_S9_NS2_4http12basic_fieldsINS_9allocatorIcEEE6writer11field_rangeENSA_10chunk_crlfEEEEEENSA_6detail10chunk_sizeES9_SH_NS2_18basic_multi_bufferISD_E8subrangeILb0EEESH_S9_S9_SH_EEEEEEEEEPT_SW_, symObjAddr: 0x62BA0, symBinAddr: 0x100065B98, symSize: 0x24 }
  - { offsetInCU: 0x4C8F0, offset: 0x4C8F0, size: 0x8, addend: 0x0, symName: __ZNSt3__19__launderB7v160006IN5boost5beast19buffers_prefix_viewIRKNS2_14buffers_suffixINS2_16buffers_cat_viewIJNS2_6detail11buffers_refINS5_IJNS1_4asio12const_bufferES9_S9_NS2_4http12basic_fieldsINS_9allocatorIcEEE6writer11field_rangeENSA_10chunk_crlfEEEEEENSA_6detail10chunk_sizeES9_SH_NS2_18basic_multi_bufferISD_E8subrangeILb0EEESH_S9_S9_SH_EEEEEEEEEPT_SW_, symObjAddr: 0x62BC4, symBinAddr: 0x100065BBC, symSize: 0x14 }
  - { offsetInCU: 0x4C927, offset: 0x4C927, size: 0x8, addend: 0x0, symName: __ZNSt3__17launderB7v160006IKN5boost5beast18basic_multi_bufferINS_9allocatorIcEEE8subrangeILb0EE14const_iteratorEEEPT_SC_, symObjAddr: 0x63670, symBinAddr: 0x100066668, symSize: 0x24 }
  - { offsetInCU: 0x4C95E, offset: 0x4C95E, size: 0x8, addend: 0x0, symName: __ZNSt3__19__launderB7v160006IKN5boost5beast18basic_multi_bufferINS_9allocatorIcEEE8subrangeILb0EE14const_iteratorEEEPT_SC_, symObjAddr: 0x63694, symBinAddr: 0x10006668C, symSize: 0x14 }
  - { offsetInCU: 0x4C995, offset: 0x4C995, size: 0x8, addend: 0x0, symName: __ZNSt3__19use_facetB7v160006INS_5ctypeIcEEEERKT_RKNS_6localeE, symObjAddr: 0x7816C, symBinAddr: 0x10007B164, symSize: 0x2C }
  - { offsetInCU: 0x4CE7A, offset: 0x4CE7A, size: 0x8, addend: 0x0, symName: __ZNSt3__116__pad_and_outputB7v160006IcNS_11char_traitsIcEEEENS_19ostreambuf_iteratorIT_T0_EES6_PKS4_S8_S8_RNS_8ios_baseES4_, symObjAddr: 0x784D4, symBinAddr: 0x10007B4CC, symSize: 0x240 }
  - { offsetInCU: 0x4D8A6, offset: 0x4D8A6, size: 0x8, addend: 0x0, symName: __ZSt28__throw_bad_array_new_lengthB7v160006v, symObjAddr: 0xCE0C, symBinAddr: 0x10000FE04, symSize: 0x34 }
  - { offsetInCU: 0x4D8BF, offset: 0x4D8BF, size: 0x8, addend: 0x0, symName: __ZSt18make_exception_ptrB7v160006IN5boost4asio19multiple_exceptionsEESt13exception_ptrT_, symObjAddr: 0xFC74, symBinAddr: 0x100012C6C, symSize: 0x88 }
  - { offsetInCU: 0x4E9B9, offset: 0x4E9B9, size: 0x8, addend: 0x0, symName: __ZN5boost6system6detail17system_cat_holderIvE8instanceE, symObjAddr: 0x7F810, symBinAddr: 0x100098050, symSize: 0x0 }
  - { offsetInCU: 0x4EA16, offset: 0x4EA16, size: 0x8, addend: 0x0, symName: __ZN5boost6system6detail18interop_cat_holderIvE8instanceE, symObjAddr: 0x7F8F0, symBinAddr: 0x100098130, symSize: 0x0 }
  - { offsetInCU: 0x4EA36, offset: 0x4EA36, size: 0x8, addend: 0x0, symName: __ZNK5boost6system10error_code8locationEv, symObjAddr: 0x3260, symBinAddr: 0x100006258, symSize: 0x54 }
  - { offsetInCU: 0x4EA5B, offset: 0x4EA5B, size: 0x8, addend: 0x0, symName: __ZZNK5boost6system10error_code8locationEvE3loc, symObjAddr: 0x850F8, symBinAddr: 0x1000960F8, symSize: 0x0 }
  - { offsetInCU: 0x4EA73, offset: 0x4EA73, size: 0x8, addend: 0x0, symName: __ZN5boost4asio6detail14kqueue_reactor3runElRNS1_8op_queueINS1_19scheduler_operationEEE, symObjAddr: 0x68FC, symBinAddr: 0x1000098F4, symSize: 0x4BC }
  - { offsetInCU: 0x4EA9B, offset: 0x4EA9B, size: 0x8, addend: 0x0, symName: __ZZN5boost4asio6detail14kqueue_reactor3runElRNS1_8op_queueINS1_19scheduler_operationEEEE6filter, symObjAddr: 0x86E68, symBinAddr: 0x10008B288, symSize: 0x0 }
  - { offsetInCU: 0x4EE37, offset: 0x4EE37, size: 0x8, addend: 0x0, symName: __ZN5boost4asio9execution6detail17any_executor_base16target_fns_tableINS0_10io_context19basic_executor_typeINSt3__19allocatorIvEELm0EEEEEPKNS3_10target_fnsEbPNS7_9enable_ifIXntsr7is_sameIT_vEE5valueEvE4typeE, symObjAddr: 0xF0AC, symBinAddr: 0x1000120A4, symSize: 0x3C }
  - { offsetInCU: 0x4EE58, offset: 0x4EE58, size: 0x8, addend: 0x0, symName: __ZZN5boost4asio9execution6detail17any_executor_base16target_fns_tableINS0_10io_context19basic_executor_typeINSt3__19allocatorIvEELm0EEEEEPKNS3_10target_fnsEbPNS7_9enable_ifIXntsr7is_sameIT_vEE5valueEvE4typeEE16fns_with_execute, symObjAddr: 0x858A0, symBinAddr: 0x1000968A0, symSize: 0x0 }
  - { offsetInCU: 0x4EE6F, offset: 0x4EE6F, size: 0x8, addend: 0x0, symName: __ZZN5boost4asio9execution6detail17any_executor_base16target_fns_tableINS0_10io_context19basic_executor_typeINSt3__19allocatorIvEELm0EEEEEPKNS3_10target_fnsEbPNS7_9enable_ifIXntsr7is_sameIT_vEE5valueEvE4typeEE25fns_with_blocking_execute, symObjAddr: 0x858C0, symBinAddr: 0x1000968C0, symSize: 0x0 }
  - { offsetInCU: 0x4EEA7, offset: 0x4EEA7, size: 0x8, addend: 0x0, symName: __ZN31boost_asio_execution_execute_fn15static_instanceINS_4implEE8instanceE, symObjAddr: 0x87133, symBinAddr: 0x10008B553, symSize: 0x0 }
  - { offsetInCU: 0x4EFC2, offset: 0x4EFC2, size: 0x8, addend: 0x0, symName: __ZN19boost_asio_query_fn15static_instanceINS_4implEE8instanceE, symObjAddr: 0x8717A, symBinAddr: 0x10008B59A, symSize: 0x0 }
  - { offsetInCU: 0x4F4D9, offset: 0x4F4D9, size: 0x8, addend: 0x0, symName: __ZN5boost4asio9execution6detail17any_executor_base16object_fns_tableINS0_10io_context19basic_executor_typeINSt3__19allocatorIvEELm0EEEEEPKNS3_10object_fnsEPNS7_9enable_ifIXaantsr7is_sameIT_vEE5valuentsr7is_sameISF_NS2_22shared_target_executorEEE5valueEvE4typeE, symObjAddr: 0x116EC, symBinAddr: 0x1000146E4, symSize: 0x18 }
  - { offsetInCU: 0x4F4FA, offset: 0x4F4FA, size: 0x8, addend: 0x0, symName: __ZZN5boost4asio9execution6detail17any_executor_base16object_fns_tableINS0_10io_context19basic_executor_typeINSt3__19allocatorIvEELm0EEEEEPKNS3_10object_fnsEPNS7_9enable_ifIXaantsr7is_sameIT_vEE5valuentsr7is_sameISF_NS2_22shared_target_executorEEE5valueEvE4typeEE3fns, symObjAddr: 0x85A38, symBinAddr: 0x100096A38, symSize: 0x0 }
  - { offsetInCU: 0x4F672, offset: 0x4F672, size: 0x8, addend: 0x0, symName: __ZN5boost4asio9execution12any_executorIJNS1_12context_as_tIRNS0_17execution_contextEEENS1_6detail8blocking7never_tILi0EEENS1_11prefer_onlyINS8_10possibly_tILi0EEEEENSB_INS7_16outstanding_work9tracked_tILi0EEEEENSB_INSF_11untracked_tILi0EEEEENSB_INS7_12relationship6fork_tILi0EEEEENSB_INSM_14continuation_tILi0EEEEEEE14prop_fns_tableINS0_10io_context19basic_executor_typeINSt3__19allocatorIvEELm0EEEEEPKNS7_17any_executor_base8prop_fnsIST_EEv, symObjAddr: 0xF048, symBinAddr: 0x100012040, symSize: 0xC }
  - { offsetInCU: 0x4F693, offset: 0x4F693, size: 0x8, addend: 0x0, symName: __ZZN5boost4asio9execution12any_executorIJNS1_12context_as_tIRNS0_17execution_contextEEENS1_6detail8blocking7never_tILi0EEENS1_11prefer_onlyINS8_10possibly_tILi0EEEEENSB_INS7_16outstanding_work9tracked_tILi0EEEEENSB_INSF_11untracked_tILi0EEEEENSB_INS7_12relationship6fork_tILi0EEEEENSB_INSM_14continuation_tILi0EEEEEEE14prop_fns_tableINS0_10io_context19basic_executor_typeINSt3__19allocatorIvEELm0EEEEEPKNS7_17any_executor_base8prop_fnsIST_EEvE3fns, symObjAddr: 0x85A58, symBinAddr: 0x100096A58, symSize: 0x0 }
  - { offsetInCU: 0x4F6BB, offset: 0x4F6BB, size: 0x8, addend: 0x0, symName: __ZN5boost4asio9execution12any_executorIJNS1_12context_as_tIRNS0_17execution_contextEEENS1_6detail8blocking7never_tILi0EEENS1_11prefer_onlyINS8_10possibly_tILi0EEEEENSB_INS7_16outstanding_work9tracked_tILi0EEEEENSB_INSF_11untracked_tILi0EEEEENSB_INS7_12relationship6fork_tILi0EEEEENSB_INSM_14continuation_tILi0EEEEEEE14prop_fns_tableIvEEPKNS7_17any_executor_base8prop_fnsIST_EEv, symObjAddr: 0x11F38, symBinAddr: 0x100014F30, symSize: 0xC }
  - { offsetInCU: 0x4F6DC, offset: 0x4F6DC, size: 0x8, addend: 0x0, symName: __ZZN5boost4asio9execution12any_executorIJNS1_12context_as_tIRNS0_17execution_contextEEENS1_6detail8blocking7never_tILi0EEENS1_11prefer_onlyINS8_10possibly_tILi0EEEEENSB_INS7_16outstanding_work9tracked_tILi0EEEEENSB_INSF_11untracked_tILi0EEEEENSB_INS7_12relationship6fork_tILi0EEEEENSB_INSM_14continuation_tILi0EEEEEEE14prop_fns_tableIvEEPKNS7_17any_executor_base8prop_fnsIST_EEvE3fns, symObjAddr: 0x85B00, symBinAddr: 0x100096B00, symSize: 0x0 }
  - { offsetInCU: 0x4F6F6, offset: 0x4F6F6, size: 0x8, addend: 0x0, symName: __ZN21boost_asio_require_fn15static_instanceINS_4implEE8instanceE, symObjAddr: 0x871DC, symBinAddr: 0x10008B5FC, symSize: 0x0 }
  - { offsetInCU: 0x4F7A4, offset: 0x4F7A4, size: 0x8, addend: 0x0, symName: __ZN20boost_asio_prefer_fn15static_instanceINS_4implEE8instanceE, symObjAddr: 0x871DD, symBinAddr: 0x10008B5FD, symSize: 0x0 }
  - { offsetInCU: 0x4FD4D, offset: 0x4FD4D, size: 0x8, addend: 0x0, symName: __ZN5boost4asio9execution11prefer_onlyINS1_6detail16outstanding_work9tracked_tILi0EEEE14static_query_vINS0_10io_context19basic_executor_typeINSt3__19allocatorIvEELm0EEEKNS3_18outstanding_work_tILi0EEEEE, symObjAddr: 0x871E0, symBinAddr: 0x10008B600, symSize: 0x0 }
  - { offsetInCU: 0x4FD74, offset: 0x4FD74, size: 0x8, addend: 0x0, symName: __ZN5boost4asio9execution6detail17any_executor_base16target_fns_tableINS0_10io_context19basic_executor_typeINSt3__19allocatorIvEELm4EEEEEPKNS3_10target_fnsEbPNS7_9enable_ifIXntsr7is_sameIT_vEE5valueEvE4typeE, symObjAddr: 0x13DF4, symBinAddr: 0x100016DEC, symSize: 0x3C }
  - { offsetInCU: 0x4FD95, offset: 0x4FD95, size: 0x8, addend: 0x0, symName: __ZZN5boost4asio9execution6detail17any_executor_base16target_fns_tableINS0_10io_context19basic_executor_typeINSt3__19allocatorIvEELm4EEEEEPKNS3_10target_fnsEbPNS7_9enable_ifIXntsr7is_sameIT_vEE5valueEvE4typeEE16fns_with_execute, symObjAddr: 0x85CA8, symBinAddr: 0x100096CA8, symSize: 0x0 }
  - { offsetInCU: 0x4FDAC, offset: 0x4FDAC, size: 0x8, addend: 0x0, symName: __ZZN5boost4asio9execution6detail17any_executor_base16target_fns_tableINS0_10io_context19basic_executor_typeINSt3__19allocatorIvEELm4EEEEEPKNS3_10target_fnsEbPNS7_9enable_ifIXntsr7is_sameIT_vEE5valueEvE4typeEE25fns_with_blocking_execute, symObjAddr: 0x85CC8, symBinAddr: 0x100096CC8, symSize: 0x0 }
  - { offsetInCU: 0x4FDDA, offset: 0x4FDDA, size: 0x8, addend: 0x0, symName: __ZN5boost4asio9execution6detail17any_executor_base16object_fns_tableINS0_10io_context19basic_executor_typeINSt3__19allocatorIvEELm4EEEEEPKNS3_10object_fnsEPNS7_9enable_ifIXaantsr7is_sameIT_vEE5valuentsr7is_sameISF_NS2_22shared_target_executorEEE5valueEvE4typeE, symObjAddr: 0x14558, symBinAddr: 0x100017550, symSize: 0x18 }
  - { offsetInCU: 0x4FDFB, offset: 0x4FDFB, size: 0x8, addend: 0x0, symName: __ZZN5boost4asio9execution6detail17any_executor_base16object_fns_tableINS0_10io_context19basic_executor_typeINSt3__19allocatorIvEELm4EEEEEPKNS3_10object_fnsEPNS7_9enable_ifIXaantsr7is_sameIT_vEE5valuentsr7is_sameISF_NS2_22shared_target_executorEEE5valueEvE4typeEE3fns, symObjAddr: 0x85D20, symBinAddr: 0x100096D20, symSize: 0x0 }
  - { offsetInCU: 0x4FE1A, offset: 0x4FE1A, size: 0x8, addend: 0x0, symName: __ZN5boost4asio9execution12any_executorIJNS1_12context_as_tIRNS0_17execution_contextEEENS1_6detail8blocking7never_tILi0EEENS1_11prefer_onlyINS8_10possibly_tILi0EEEEENSB_INS7_16outstanding_work9tracked_tILi0EEEEENSB_INSF_11untracked_tILi0EEEEENSB_INS7_12relationship6fork_tILi0EEEEENSB_INSM_14continuation_tILi0EEEEEEE14prop_fns_tableINS0_10io_context19basic_executor_typeINSt3__19allocatorIvEELm4EEEEEPKNS7_17any_executor_base8prop_fnsIST_EEv, symObjAddr: 0x13DBC, symBinAddr: 0x100016DB4, symSize: 0xC }
  - { offsetInCU: 0x4FE3B, offset: 0x4FE3B, size: 0x8, addend: 0x0, symName: __ZZN5boost4asio9execution12any_executorIJNS1_12context_as_tIRNS0_17execution_contextEEENS1_6detail8blocking7never_tILi0EEENS1_11prefer_onlyINS8_10possibly_tILi0EEEEENSB_INS7_16outstanding_work9tracked_tILi0EEEEENSB_INSF_11untracked_tILi0EEEEENSB_INS7_12relationship6fork_tILi0EEEEENSB_INSM_14continuation_tILi0EEEEEEE14prop_fns_tableINS0_10io_context19basic_executor_typeINSt3__19allocatorIvEELm4EEEEEPKNS7_17any_executor_base8prop_fnsIST_EEvE3fns, symObjAddr: 0x85D40, symBinAddr: 0x100096D40, symSize: 0x0 }
  - { offsetInCU: 0x4FE55, offset: 0x4FE55, size: 0x8, addend: 0x0, symName: __ZN5boost4asio9execution11prefer_onlyINS1_6detail16outstanding_work9tracked_tILi0EEEE14static_query_vINS0_10io_context19basic_executor_typeINSt3__19allocatorIvEELm4EEEKNS3_18outstanding_work_tILi0EEEEE, symObjAddr: 0x87230, symBinAddr: 0x10008B650, symSize: 0x0 }
  - { offsetInCU: 0x4FE7C, offset: 0x4FE7C, size: 0x8, addend: 0x0, symName: __ZN5boost4asio9execution11prefer_onlyINS1_6detail16outstanding_work11untracked_tILi0EEEE14static_query_vINS0_10io_context19basic_executor_typeINSt3__19allocatorIvEELm4EEEKNS3_18outstanding_work_tILi0EEEEE, symObjAddr: 0x87234, symBinAddr: 0x10008B654, symSize: 0x0 }
  - { offsetInCU: 0x4FEA9, offset: 0x4FEA9, size: 0x8, addend: 0x0, symName: __ZN5boost4asio9execution11prefer_onlyINS1_6detail16outstanding_work11untracked_tILi0EEEE14static_query_vINS0_10io_context19basic_executor_typeINSt3__19allocatorIvEELm0EEEKNS3_18outstanding_work_tILi0EEEEE, symObjAddr: 0x87240, symBinAddr: 0x10008B660, symSize: 0x0 }
  - { offsetInCU: 0x4FECA, offset: 0x4FECA, size: 0x8, addend: 0x0, symName: __ZN5boost4asio6detail16resolver_serviceINS0_2ip3tcpEE7resolveERNSt3__110shared_ptrIvEERKNS3_20basic_resolver_queryIS4_EERNS_6system10error_codeE, symObjAddr: 0x18F54, symBinAddr: 0x10001BF4C, symSize: 0x298 }
  - { offsetInCU: 0x4FEED, offset: 0x4FEED, size: 0x8, addend: 0x0, symName: __ZZN5boost4asio6detail16resolver_serviceINS0_2ip3tcpEE7resolveERNSt3__110shared_ptrIvEERKNS3_20basic_resolver_queryIS4_EERNS_6system10error_codeEE3loc, symObjAddr: 0x85F18, symBinAddr: 0x100096F18, symSize: 0x0 }
  - { offsetInCU: 0x4FF48, offset: 0x4FF48, size: 0x8, addend: 0x0, symName: __ZN5boost4asio6detail23reactive_socket_serviceINS0_2ip3tcpEE4openERNS5_19implementation_typeERKS4_RNS_6system10error_codeE, symObjAddr: 0x1DBD8, symBinAddr: 0x100020BD0, symSize: 0xDC }
  - { offsetInCU: 0x4FF6B, offset: 0x4FF6B, size: 0x8, addend: 0x0, symName: __ZZN5boost4asio6detail23reactive_socket_serviceINS0_2ip3tcpEE4openERNS5_19implementation_typeERKS4_RNS_6system10error_codeEE3loc, symObjAddr: 0x85FA8, symBinAddr: 0x100096FA8, symSize: 0x0 }
  - { offsetInCU: 0x4FFAD, offset: 0x4FFAD, size: 0x8, addend: 0x0, symName: __ZN5boost4asio6detail23reactive_socket_serviceINS0_2ip3tcpEE7connectERNS5_19implementation_typeERKNS3_14basic_endpointIS4_EERNS_6system10error_codeE, symObjAddr: 0x1DCB4, symBinAddr: 0x100020CAC, symSize: 0x94 }
  - { offsetInCU: 0x4FFD2, offset: 0x4FFD2, size: 0x8, addend: 0x0, symName: __ZZN5boost4asio6detail23reactive_socket_serviceINS0_2ip3tcpEE7connectERNS5_19implementation_typeERKNS3_14basic_endpointIS4_EERNS_6system10error_codeEE3loc, symObjAddr: 0x85FC0, symBinAddr: 0x100096FC0, symSize: 0x0 }
  - { offsetInCU: 0x500F9, offset: 0x500F9, size: 0x8, addend: 0x0, symName: __ZN5boost6system6detail18generic_cat_holderIvE8instanceE, symObjAddr: 0x84E58, symBinAddr: 0x10009D698, symSize: 0x0 }
  - { offsetInCU: 0x5015B, offset: 0x5015B, size: 0x8, addend: 0x0, symName: __ZNK5boost5beast4http10chunk_crlf5beginEv, symObjAddr: 0x2E200, symBinAddr: 0x1000311F8, symSize: 0x84 }
  - { offsetInCU: 0x5017E, offset: 0x5017E, size: 0x8, addend: 0x0, symName: __ZZNK5boost5beast4http10chunk_crlf5beginEvE2cb, symObjAddr: 0x84E90, symBinAddr: 0x10009D6D0, symSize: 0x0 }
  - { offsetInCU: 0x5019B, offset: 0x5019B, size: 0x8, addend: 0x0, symName: __ZN5boost5beast6detail12static_constINS1_17buffer_bytes_implEE5valueE, symObjAddr: 0x875D1, symBinAddr: 0x10008B9F1, symSize: 0x0 }
  - { offsetInCU: 0x50CC5, offset: 0x50CC5, size: 0x8, addend: 0x0, symName: __ZN5boost5beast4http6parserILb0ENS1_18basic_dynamic_bodyINS0_18basic_multi_bufferINSt3__19allocatorIcEEEEEES7_E16on_response_implEiNS_4core17basic_string_viewIcEEiRNS_6system10error_codeENS5_17integral_constantIbLb1EEE, symObjAddr: 0x4BE74, symBinAddr: 0x10004EE6C, symSize: 0xF4 }
  - { offsetInCU: 0x50CEA, offset: 0x50CEA, size: 0x8, addend: 0x0, symName: __ZZN5boost5beast4http6parserILb0ENS1_18basic_dynamic_bodyINS0_18basic_multi_bufferINSt3__19allocatorIcEEEEEES7_E16on_response_implEiNS_4core17basic_string_viewIcEEiRNS_6system10error_codeENS5_17integral_constantIbLb1EEEE7loc_398, symObjAddr: 0x863D0, symBinAddr: 0x1000973D0, symSize: 0x0 }
  - { offsetInCU: 0x50D6D, offset: 0x50D6D, size: 0x8, addend: 0x0, symName: __ZN5boost5beast4http18basic_dynamic_bodyINS0_18basic_multi_bufferINSt3__19allocatorIcEEEEE6reader3putINS_4asio15const_buffers_1EEEmRKT_RNS_6system10error_codeE, symObjAddr: 0x4DD30, symBinAddr: 0x100050D28, symSize: 0x1E8 }
  - { offsetInCU: 0x50D90, offset: 0x50D90, size: 0x8, addend: 0x0, symName: __ZZN5boost5beast4http18basic_dynamic_bodyINS0_18basic_multi_bufferINSt3__19allocatorIcEEEEE6reader3putINS_4asio15const_buffers_1EEEmRKT_RNS_6system10error_codeEE6loc_95, symObjAddr: 0x863E8, symBinAddr: 0x1000973E8, symSize: 0x0 }
  - { offsetInCU: 0x50DFD, offset: 0x50DFD, size: 0x8, addend: 0x0, symName: __ZN5boost5beast4http12basic_parserILb0EE3putENS_4asio12const_bufferERNS_6system10error_codeE, symObjAddr: 0x53C0C, symBinAddr: 0x100056C04, symSize: 0x7F8 }
  - { offsetInCU: 0x50E22, offset: 0x50E22, size: 0x8, addend: 0x0, symName: __ZZN5boost5beast4http12basic_parserILb0EE3putENS_4asio12const_bufferERNS_6system10error_codeEE6loc_93, symObjAddr: 0x86488, symBinAddr: 0x100097488, symSize: 0x0 }
  - { offsetInCU: 0x50E37, offset: 0x50E37, size: 0x8, addend: 0x0, symName: __ZZN5boost5beast4http12basic_parserILb0EE3putENS_4asio12const_bufferERNS_6system10error_codeEE7loc_107, symObjAddr: 0x864A0, symBinAddr: 0x1000974A0, symSize: 0x0 }
  - { offsetInCU: 0x50E4C, offset: 0x50E4C, size: 0x8, addend: 0x0, symName: __ZZN5boost5beast4http12basic_parserILb0EE3putENS_4asio12const_bufferERNS_6system10error_codeEE7loc_126, symObjAddr: 0x864B8, symBinAddr: 0x1000974B8, symSize: 0x0 }
  - { offsetInCU: 0x50E61, offset: 0x50E61, size: 0x8, addend: 0x0, symName: __ZZN5boost5beast4http12basic_parserILb0EE3putENS_4asio12const_bufferERNS_6system10error_codeEE7loc_139, symObjAddr: 0x864D0, symBinAddr: 0x1000974D0, symSize: 0x0 }
  - { offsetInCU: 0x50E76, offset: 0x50E76, size: 0x8, addend: 0x0, symName: __ZZN5boost5beast4http12basic_parserILb0EE3putENS_4asio12const_bufferERNS_6system10error_codeEE7loc_157, symObjAddr: 0x864E8, symBinAddr: 0x1000974E8, symSize: 0x0 }
  - { offsetInCU: 0x50F08, offset: 0x50F08, size: 0x8, addend: 0x0, symName: __ZN5boost5beast4http12basic_parserILb0EE15maybe_need_moreEPKcmRNS_6system10error_codeE, symObjAddr: 0x5470C, symBinAddr: 0x100057704, symSize: 0x1A0 }
  - { offsetInCU: 0x50F30, offset: 0x50F30, size: 0x8, addend: 0x0, symName: __ZZN5boost5beast4http12basic_parserILb0EE15maybe_need_moreEPKcmRNS_6system10error_codeEE7loc_275, symObjAddr: 0x86500, symBinAddr: 0x100097500, symSize: 0x0 }
  - { offsetInCU: 0x50F47, offset: 0x50F47, size: 0x8, addend: 0x0, symName: __ZZN5boost5beast4http12basic_parserILb0EE15maybe_need_moreEPKcmRNS_6system10error_codeEE7loc_285, symObjAddr: 0x86518, symBinAddr: 0x100097518, symSize: 0x0 }
  - { offsetInCU: 0x50F5E, offset: 0x50F5E, size: 0x8, addend: 0x0, symName: __ZZN5boost5beast4http12basic_parserILb0EE15maybe_need_moreEPKcmRNS_6system10error_codeEE7loc_288, symObjAddr: 0x86530, symBinAddr: 0x100097530, symSize: 0x0 }
  - { offsetInCU: 0x50FB2, offset: 0x50FB2, size: 0x8, addend: 0x0, symName: __ZN5boost5beast4http12basic_parserILb0EE16parse_start_lineERPKcS5_RNS_6system10error_codeENSt3__117integral_constantIbLb0EEE, symObjAddr: 0x548AC, symBinAddr: 0x1000578A4, symSize: 0x24C }
  - { offsetInCU: 0x50FDA, offset: 0x50FDA, size: 0x8, addend: 0x0, symName: __ZZN5boost5beast4http12basic_parserILb0EE16parse_start_lineERPKcS5_RNS_6system10error_codeENSt3__117integral_constantIbLb0EEEE7loc_371, symObjAddr: 0x86548, symBinAddr: 0x100097548, symSize: 0x0 }
  - { offsetInCU: 0x50FF1, offset: 0x50FF1, size: 0x8, addend: 0x0, symName: __ZZN5boost5beast4http12basic_parserILb0EE16parse_start_lineERPKcS5_RNS_6system10error_codeENSt3__117integral_constantIbLb0EEEE7loc_378, symObjAddr: 0x86560, symBinAddr: 0x100097560, symSize: 0x0 }
  - { offsetInCU: 0x51008, offset: 0x51008, size: 0x8, addend: 0x0, symName: __ZZN5boost5beast4http12basic_parserILb0EE16parse_start_lineERPKcS5_RNS_6system10error_codeENSt3__117integral_constantIbLb0EEEE7loc_383, symObjAddr: 0x86578, symBinAddr: 0x100097578, symSize: 0x0 }
  - { offsetInCU: 0x51086, offset: 0x51086, size: 0x8, addend: 0x0, symName: __ZN5boost5beast4http6detail17basic_parser_base13parse_versionERPKcS5_RiRNS_6system10error_codeE, symObjAddr: 0x55BB8, symBinAddr: 0x100058BB0, symSize: 0x380 }
  - { offsetInCU: 0x510AA, offset: 0x510AA, size: 0x8, addend: 0x0, symName: __ZZN5boost5beast4http6detail17basic_parser_base13parse_versionERPKcS5_RiRNS_6system10error_codeEE7loc_386, symObjAddr: 0x86590, symBinAddr: 0x100097590, symSize: 0x0 }
  - { offsetInCU: 0x510C1, offset: 0x510C1, size: 0x8, addend: 0x0, symName: __ZZN5boost5beast4http6detail17basic_parser_base13parse_versionERPKcS5_RiRNS_6system10error_codeEE7loc_391, symObjAddr: 0x865A8, symBinAddr: 0x1000975A8, symSize: 0x0 }
  - { offsetInCU: 0x510D8, offset: 0x510D8, size: 0x8, addend: 0x0, symName: __ZZN5boost5beast4http6detail17basic_parser_base13parse_versionERPKcS5_RiRNS_6system10error_codeEE7loc_396, symObjAddr: 0x865C0, symBinAddr: 0x1000975C0, symSize: 0x0 }
  - { offsetInCU: 0x510EF, offset: 0x510EF, size: 0x8, addend: 0x0, symName: __ZZN5boost5beast4http6detail17basic_parser_base13parse_versionERPKcS5_RiRNS_6system10error_codeEE7loc_401, symObjAddr: 0x865D8, symBinAddr: 0x1000975D8, symSize: 0x0 }
  - { offsetInCU: 0x51106, offset: 0x51106, size: 0x8, addend: 0x0, symName: __ZZN5boost5beast4http6detail17basic_parser_base13parse_versionERPKcS5_RiRNS_6system10error_codeEE7loc_406, symObjAddr: 0x865F0, symBinAddr: 0x1000975F0, symSize: 0x0 }
  - { offsetInCU: 0x5111D, offset: 0x5111D, size: 0x8, addend: 0x0, symName: __ZZN5boost5beast4http6detail17basic_parser_base13parse_versionERPKcS5_RiRNS_6system10error_codeEE7loc_411, symObjAddr: 0x86608, symBinAddr: 0x100097608, symSize: 0x0 }
  - { offsetInCU: 0x51134, offset: 0x51134, size: 0x8, addend: 0x0, symName: __ZZN5boost5beast4http6detail17basic_parser_base13parse_versionERPKcS5_RiRNS_6system10error_codeEE7loc_416, symObjAddr: 0x86620, symBinAddr: 0x100097620, symSize: 0x0 }
  - { offsetInCU: 0x5114B, offset: 0x5114B, size: 0x8, addend: 0x0, symName: __ZZN5boost5beast4http6detail17basic_parser_base13parse_versionERPKcS5_RiRNS_6system10error_codeEE7loc_422, symObjAddr: 0x86638, symBinAddr: 0x100097638, symSize: 0x0 }
  - { offsetInCU: 0x51162, offset: 0x51162, size: 0x8, addend: 0x0, symName: __ZZN5boost5beast4http6detail17basic_parser_base13parse_versionERPKcS5_RiRNS_6system10error_codeEE7loc_427, symObjAddr: 0x86650, symBinAddr: 0x100097650, symSize: 0x0 }
  - { offsetInCU: 0x511A9, offset: 0x511A9, size: 0x8, addend: 0x0, symName: __ZN5boost5beast4http6detail17basic_parser_base12parse_statusERPKcS5_RtRNS_6system10error_codeE, symObjAddr: 0x55F38, symBinAddr: 0x100058F30, symSize: 0x240 }
  - { offsetInCU: 0x511CD, offset: 0x511CD, size: 0x8, addend: 0x0, symName: __ZZN5boost5beast4http6detail17basic_parser_base12parse_statusERPKcS5_RtRNS_6system10error_codeEE7loc_442, symObjAddr: 0x86668, symBinAddr: 0x100097668, symSize: 0x0 }
  - { offsetInCU: 0x511E4, offset: 0x511E4, size: 0x8, addend: 0x0, symName: __ZZN5boost5beast4http6detail17basic_parser_base12parse_statusERPKcS5_RtRNS_6system10error_codeEE7loc_447, symObjAddr: 0x86680, symBinAddr: 0x100097680, symSize: 0x0 }
  - { offsetInCU: 0x511FB, offset: 0x511FB, size: 0x8, addend: 0x0, symName: __ZZN5boost5beast4http6detail17basic_parser_base12parse_statusERPKcS5_RtRNS_6system10error_codeEE7loc_453, symObjAddr: 0x86698, symBinAddr: 0x100097698, symSize: 0x0 }
  - { offsetInCU: 0x51212, offset: 0x51212, size: 0x8, addend: 0x0, symName: __ZZN5boost5beast4http6detail17basic_parser_base12parse_statusERPKcS5_RtRNS_6system10error_codeEE7loc_459, symObjAddr: 0x866B0, symBinAddr: 0x1000976B0, symSize: 0x0 }
  - { offsetInCU: 0x51229, offset: 0x51229, size: 0x8, addend: 0x0, symName: __ZZN5boost5beast4http6detail17basic_parser_base12parse_statusERPKcS5_RtRNS_6system10error_codeEE7loc_465, symObjAddr: 0x866C8, symBinAddr: 0x1000976C8, symSize: 0x0 }
  - { offsetInCU: 0x51270, offset: 0x51270, size: 0x8, addend: 0x0, symName: __ZN5boost5beast4http6detail17basic_parser_base12parse_reasonERPKcS5_RNS_4core17basic_string_viewIcEERNS_6system10error_codeE, symObjAddr: 0x56178, symBinAddr: 0x100059170, symSize: 0xE0 }
  - { offsetInCU: 0x51294, offset: 0x51294, size: 0x8, addend: 0x0, symName: __ZZN5boost5beast4http6detail17basic_parser_base12parse_reasonERPKcS5_RNS_4core17basic_string_viewIcEERNS_6system10error_codeEE7loc_484, symObjAddr: 0x866E0, symBinAddr: 0x1000976E0, symSize: 0x0 }
  - { offsetInCU: 0x51308, offset: 0x51308, size: 0x8, addend: 0x0, symName: __ZN5boost5beast4http6detail17basic_parser_base18parse_token_to_eolEPKcS5_RS5_RNS_6system10error_codeE, symObjAddr: 0x56280, symBinAddr: 0x100059278, symSize: 0x1F8 }
  - { offsetInCU: 0x51329, offset: 0x51329, size: 0x8, addend: 0x0, symName: __ZZN5boost5beast4http6detail17basic_parser_base18parse_token_to_eolEPKcS5_RS5_RNS_6system10error_codeEE7loc_252, symObjAddr: 0x866F8, symBinAddr: 0x1000976F8, symSize: 0x0 }
  - { offsetInCU: 0x51340, offset: 0x51340, size: 0x8, addend: 0x0, symName: __ZZN5boost5beast4http6detail17basic_parser_base18parse_token_to_eolEPKcS5_RS5_RNS_6system10error_codeEE7loc_267, symObjAddr: 0x86710, symBinAddr: 0x100097710, symSize: 0x0 }
  - { offsetInCU: 0x51357, offset: 0x51357, size: 0x8, addend: 0x0, symName: __ZZN5boost5beast4http6detail17basic_parser_base18parse_token_to_eolEPKcS5_RS5_RNS_6system10error_codeEE7loc_272, symObjAddr: 0x86728, symBinAddr: 0x100097728, symSize: 0x0 }
  - { offsetInCU: 0x513AB, offset: 0x513AB, size: 0x8, addend: 0x0, symName: __ZN5boost5beast4http12basic_parserILb0EE12parse_fieldsERPKcS5_RNS_6system10error_codeE, symObjAddr: 0x54AF8, symBinAddr: 0x100057AF0, symSize: 0x250 }
  - { offsetInCU: 0x513D3, offset: 0x513D3, size: 0x8, addend: 0x0, symName: __ZZN5boost5beast4http12basic_parserILb0EE12parse_fieldsERPKcS5_RNS_6system10error_codeEE7loc_424, symObjAddr: 0x86740, symBinAddr: 0x100097740, symSize: 0x0 }
  - { offsetInCU: 0x513EA, offset: 0x513EA, size: 0x8, addend: 0x0, symName: __ZZN5boost5beast4http12basic_parserILb0EE12parse_fieldsERPKcS5_RNS_6system10error_codeEE7loc_431, symObjAddr: 0x86758, symBinAddr: 0x100097758, symSize: 0x0 }
  - { offsetInCU: 0x51491, offset: 0x51491, size: 0x8, addend: 0x0, symName: __ZN5boost5beast4http6detail17basic_parser_base11parse_fieldERPKcS5_RNS_4core17basic_string_viewIcEESA_RNS0_6detail11char_bufferILm4096EEERNS_6system10error_codeE, symObjAddr: 0x5650C, symBinAddr: 0x100059504, symSize: 0x7C8 }
  - { offsetInCU: 0x514B5, offset: 0x514B5, size: 0x8, addend: 0x0, symName: __ZZN5boost5beast4http6detail17basic_parser_base11parse_fieldERPKcS5_RNS_4core17basic_string_viewIcEESA_RNS0_6detail11char_bufferILm4096EEERNS_6system10error_codeEE8is_token, symObjAddr: 0x84EC0, symBinAddr: 0x10009D700, symSize: 0x0 }
  - { offsetInCU: 0x514CD, offset: 0x514CD, size: 0x8, addend: 0x0, symName: __ZZN5boost5beast4http6detail17basic_parser_base11parse_fieldERPKcS5_RNS_4core17basic_string_viewIcEESA_RNS0_6detail11char_bufferILm4096EEERNS_6system10error_codeEE7ranges1, symObjAddr: 0x879B0, symBinAddr: 0x10008BDD0, symSize: 0x0 }
  - { offsetInCU: 0x514E4, offset: 0x514E4, size: 0x8, addend: 0x0, symName: __ZZN5boost5beast4http6detail17basic_parser_base11parse_fieldERPKcS5_RNS_4core17basic_string_viewIcEESA_RNS0_6detail11char_bufferILm4096EEERNS_6system10error_codeEE7loc_545, symObjAddr: 0x86770, symBinAddr: 0x100097770, symSize: 0x0 }
  - { offsetInCU: 0x514FB, offset: 0x514FB, size: 0x8, addend: 0x0, symName: __ZZN5boost5beast4http6detail17basic_parser_base11parse_fieldERPKcS5_RNS_4core17basic_string_viewIcEESA_RNS0_6detail11char_bufferILm4096EEERNS_6system10error_codeEE7loc_555, symObjAddr: 0x86788, symBinAddr: 0x100097788, symSize: 0x0 }
  - { offsetInCU: 0x51512, offset: 0x51512, size: 0x8, addend: 0x0, symName: __ZZN5boost5beast4http6detail17basic_parser_base11parse_fieldERPKcS5_RNS_4core17basic_string_viewIcEESA_RNS0_6detail11char_bufferILm4096EEERNS_6system10error_codeEE7loc_561, symObjAddr: 0x867A0, symBinAddr: 0x1000977A0, symSize: 0x0 }
  - { offsetInCU: 0x51529, offset: 0x51529, size: 0x8, addend: 0x0, symName: __ZZN5boost5beast4http6detail17basic_parser_base11parse_fieldERPKcS5_RNS_4core17basic_string_viewIcEESA_RNS0_6detail11char_bufferILm4096EEERNS_6system10error_codeEE7loc_568, symObjAddr: 0x867B8, symBinAddr: 0x1000977B8, symSize: 0x0 }
  - { offsetInCU: 0x51540, offset: 0x51540, size: 0x8, addend: 0x0, symName: __ZZN5boost5beast4http6detail17basic_parser_base11parse_fieldERPKcS5_RNS_4core17basic_string_viewIcEESA_RNS0_6detail11char_bufferILm4096EEERNS_6system10error_codeEE7loc_581, symObjAddr: 0x867D0, symBinAddr: 0x1000977D0, symSize: 0x0 }
  - { offsetInCU: 0x51557, offset: 0x51557, size: 0x8, addend: 0x0, symName: __ZZN5boost5beast4http6detail17basic_parser_base11parse_fieldERPKcS5_RNS_4core17basic_string_viewIcEESA_RNS0_6detail11char_bufferILm4096EEERNS_6system10error_codeEE7loc_594, symObjAddr: 0x867E8, symBinAddr: 0x1000977E8, symSize: 0x0 }
  - { offsetInCU: 0x5156E, offset: 0x5156E, size: 0x8, addend: 0x0, symName: __ZZN5boost5beast4http6detail17basic_parser_base11parse_fieldERPKcS5_RNS_4core17basic_string_viewIcEESA_RNS0_6detail11char_bufferILm4096EEERNS_6system10error_codeEE7loc_600, symObjAddr: 0x86800, symBinAddr: 0x100097800, symSize: 0x0 }
  - { offsetInCU: 0x51585, offset: 0x51585, size: 0x8, addend: 0x0, symName: __ZZN5boost5beast4http6detail17basic_parser_base11parse_fieldERPKcS5_RNS_4core17basic_string_viewIcEESA_RNS0_6detail11char_bufferILm4096EEERNS_6system10error_codeEE7loc_617, symObjAddr: 0x86818, symBinAddr: 0x100097818, symSize: 0x0 }
  - { offsetInCU: 0x5159C, offset: 0x5159C, size: 0x8, addend: 0x0, symName: __ZZN5boost5beast4http6detail17basic_parser_base11parse_fieldERPKcS5_RNS_4core17basic_string_viewIcEESA_RNS0_6detail11char_bufferILm4096EEERNS_6system10error_codeEE7loc_629, symObjAddr: 0x86830, symBinAddr: 0x100097830, symSize: 0x0 }
  - { offsetInCU: 0x515B3, offset: 0x515B3, size: 0x8, addend: 0x0, symName: __ZZN5boost5beast4http6detail17basic_parser_base11parse_fieldERPKcS5_RNS_4core17basic_string_viewIcEESA_RNS0_6detail11char_bufferILm4096EEERNS_6system10error_codeEE7loc_642, symObjAddr: 0x86848, symBinAddr: 0x100097848, symSize: 0x0 }
  - { offsetInCU: 0x515CA, offset: 0x515CA, size: 0x8, addend: 0x0, symName: __ZZN5boost5beast4http6detail17basic_parser_base11parse_fieldERPKcS5_RNS_4core17basic_string_viewIcEESA_RNS0_6detail11char_bufferILm4096EEERNS_6system10error_codeEE7loc_648, symObjAddr: 0x86860, symBinAddr: 0x100097860, symSize: 0x0 }
  - { offsetInCU: 0x515E1, offset: 0x515E1, size: 0x8, addend: 0x0, symName: __ZZN5boost5beast4http6detail17basic_parser_base11parse_fieldERPKcS5_RNS_4core17basic_string_viewIcEESA_RNS0_6detail11char_bufferILm4096EEERNS_6system10error_codeEE7loc_657, symObjAddr: 0x86878, symBinAddr: 0x100097878, symSize: 0x0 }
  - { offsetInCU: 0x51676, offset: 0x51676, size: 0x8, addend: 0x0, symName: __ZN5boost5beast4http12basic_parserILb0EE8do_fieldENS1_5fieldENS_4core17basic_string_viewIcEERNS_6system10error_codeE, symObjAddr: 0x56D10, symBinAddr: 0x100059D08, symSize: 0x700 }
  - { offsetInCU: 0x5169E, offset: 0x5169E, size: 0x8, addend: 0x0, symName: __ZZN5boost5beast4http12basic_parserILb0EE8do_fieldENS1_5fieldENS_4core17basic_string_viewIcEERNS_6system10error_codeEE7loc_779, symObjAddr: 0x86890, symBinAddr: 0x100097890, symSize: 0x0 }
  - { offsetInCU: 0x516B5, offset: 0x516B5, size: 0x8, addend: 0x0, symName: __ZZN5boost5beast4http12basic_parserILb0EE8do_fieldENS1_5fieldENS_4core17basic_string_viewIcEERNS_6system10error_codeEE7loc_866, symObjAddr: 0x868A8, symBinAddr: 0x1000978A8, symSize: 0x0 }
  - { offsetInCU: 0x516CC, offset: 0x516CC, size: 0x8, addend: 0x0, symName: __ZZN5boost5beast4http12basic_parserILb0EE8do_fieldENS1_5fieldENS_4core17basic_string_viewIcEERNS_6system10error_codeEE7loc_873, symObjAddr: 0x868C0, symBinAddr: 0x1000978C0, symSize: 0x0 }
  - { offsetInCU: 0x51902, offset: 0x51902, size: 0x8, addend: 0x0, symName: __ZZN5boost5beast4http12basic_parserILb0EE8do_fieldENS1_5fieldENS_4core17basic_string_viewIcEERNS_6system10error_codeEENKUlvE_clEv, symObjAddr: 0x57EF4, symBinAddr: 0x10005AEEC, symSize: 0x50 }
  - { offsetInCU: 0x5192B, offset: 0x5192B, size: 0x8, addend: 0x0, symName: __ZZZN5boost5beast4http12basic_parserILb0EE8do_fieldENS1_5fieldENS_4core17basic_string_viewIcEERNS_6system10error_codeEENKUlvE_clEvE7loc_811, symObjAddr: 0x868D8, symBinAddr: 0x1000978D8, symSize: 0x0 }
  - { offsetInCU: 0x5194F, offset: 0x5194F, size: 0x8, addend: 0x0, symName: __ZZN5boost5beast4http12basic_parserILb0EE8do_fieldENS1_5fieldENS_4core17basic_string_viewIcEERNS_6system10error_codeEENKUlvE0_clEv, symObjAddr: 0x58280, symBinAddr: 0x10005B278, symSize: 0x50 }
  - { offsetInCU: 0x51978, offset: 0x51978, size: 0x8, addend: 0x0, symName: __ZZZN5boost5beast4http12basic_parserILb0EE8do_fieldENS1_5fieldENS_4core17basic_string_viewIcEERNS_6system10error_codeEENKUlvE0_clEvE7loc_816, symObjAddr: 0x868F0, symBinAddr: 0x1000978F0, symSize: 0x0 }
  - { offsetInCU: 0x51990, offset: 0x51990, size: 0x8, addend: 0x0, symName: __ZN5boost5beast4http12basic_parserILb0EE13finish_headerERNS_6system10error_codeENSt3__117integral_constantIbLb0EEE, symObjAddr: 0x54D48, symBinAddr: 0x100057D40, symSize: 0x244 }
  - { offsetInCU: 0x519B8, offset: 0x519B8, size: 0x8, addend: 0x0, symName: __ZZN5boost5beast4http12basic_parserILb0EE13finish_headerERNS_6system10error_codeENSt3__117integral_constantIbLb0EEEE7loc_532, symObjAddr: 0x86908, symBinAddr: 0x100097908, symSize: 0x0 }
  - { offsetInCU: 0x519EA, offset: 0x519EA, size: 0x8, addend: 0x0, symName: __ZN5boost5beast4http12basic_parserILb0EE17parse_body_to_eofERPKcmRNS_6system10error_codeE, symObjAddr: 0x55120, symBinAddr: 0x100058118, symSize: 0x140 }
  - { offsetInCU: 0x51A12, offset: 0x51A12, size: 0x8, addend: 0x0, symName: __ZZN5boost5beast4http12basic_parserILb0EE17parse_body_to_eofERPKcmRNS_6system10error_codeEE7loc_596, symObjAddr: 0x86920, symBinAddr: 0x100097920, symSize: 0x0 }
  - { offsetInCU: 0x51A57, offset: 0x51A57, size: 0x8, addend: 0x0, symName: __ZN5boost5beast4http12basic_parserILb0EE18parse_chunk_headerERPKcmRNS_6system10error_codeE, symObjAddr: 0x55260, symBinAddr: 0x100058258, symSize: 0x718 }
  - { offsetInCU: 0x51A7F, offset: 0x51A7F, size: 0x8, addend: 0x0, symName: __ZZN5boost5beast4http12basic_parserILb0EE18parse_chunk_headerERPKcmRNS_6system10error_codeEE7loc_636, symObjAddr: 0x86938, symBinAddr: 0x100097938, symSize: 0x0 }
  - { offsetInCU: 0x51A96, offset: 0x51A96, size: 0x8, addend: 0x0, symName: __ZZN5boost5beast4http12basic_parserILb0EE18parse_chunk_headerERPKcmRNS_6system10error_codeEE7loc_646, symObjAddr: 0x86950, symBinAddr: 0x100097950, symSize: 0x0 }
  - { offsetInCU: 0x51AAD, offset: 0x51AAD, size: 0x8, addend: 0x0, symName: __ZZN5boost5beast4http12basic_parserILb0EE18parse_chunk_headerERPKcmRNS_6system10error_codeEE7loc_655, symObjAddr: 0x86968, symBinAddr: 0x100097968, symSize: 0x0 }
  - { offsetInCU: 0x51AC4, offset: 0x51AC4, size: 0x8, addend: 0x0, symName: __ZZN5boost5beast4http12basic_parserILb0EE18parse_chunk_headerERPKcmRNS_6system10error_codeEE7loc_665, symObjAddr: 0x86980, symBinAddr: 0x100097980, symSize: 0x0 }
  - { offsetInCU: 0x51ADB, offset: 0x51ADB, size: 0x8, addend: 0x0, symName: __ZZN5boost5beast4http12basic_parserILb0EE18parse_chunk_headerERPKcmRNS_6system10error_codeEE7loc_674, symObjAddr: 0x86998, symBinAddr: 0x100097998, symSize: 0x0 }
  - { offsetInCU: 0x51AF2, offset: 0x51AF2, size: 0x8, addend: 0x0, symName: __ZZN5boost5beast4http12basic_parserILb0EE18parse_chunk_headerERPKcmRNS_6system10error_codeEE7loc_685, symObjAddr: 0x869B0, symBinAddr: 0x1000979B0, symSize: 0x0 }
  - { offsetInCU: 0x51B09, offset: 0x51B09, size: 0x8, addend: 0x0, symName: __ZZN5boost5beast4http12basic_parserILb0EE18parse_chunk_headerERPKcmRNS_6system10error_codeEE7loc_718, symObjAddr: 0x869C8, symBinAddr: 0x1000979C8, symSize: 0x0 }
  - { offsetInCU: 0x51B20, offset: 0x51B20, size: 0x8, addend: 0x0, symName: __ZZN5boost5beast4http12basic_parserILb0EE18parse_chunk_headerERPKcmRNS_6system10error_codeEE7loc_728, symObjAddr: 0x869E0, symBinAddr: 0x1000979E0, symSize: 0x0 }
  - { offsetInCU: 0x51C2D, offset: 0x51C2D, size: 0x8, addend: 0x0, symName: __ZN5boost5beast4http6detail17basic_parser_base8find_eolEPKcS5_RNS_6system10error_codeE, symObjAddr: 0x58CB0, symBinAddr: 0x10005BCA8, symSize: 0x15C }
  - { offsetInCU: 0x51C4E, offset: 0x51C4E, size: 0x8, addend: 0x0, symName: __ZZN5boost5beast4http6detail17basic_parser_base8find_eolEPKcS5_RNS_6system10error_codeEE7loc_143, symObjAddr: 0x869F8, symBinAddr: 0x1000979F8, symSize: 0x0 }
  - { offsetInCU: 0x51C83, offset: 0x51C83, size: 0x8, addend: 0x0, symName: __ZN5boost5beast4http6detail17basic_parser_base5unhexERhc, symObjAddr: 0x595DC, symBinAddr: 0x10005C5D4, symSize: 0x48 }
  - { offsetInCU: 0x51CA4, offset: 0x51CA4, size: 0x8, addend: 0x0, symName: __ZZN5boost5beast4http6detail17basic_parser_base5unhexERhcE3tab, symObjAddr: 0x879C1, symBinAddr: 0x10008BDE1, symSize: 0x0 }
  - { offsetInCU: 0x51CE8, offset: 0x51CE8, size: 0x8, addend: 0x0, symName: __ZN5boost5beast4http6detail17basic_parser_base22parse_chunk_extensionsERPKcS5_RNS_6system10error_codeE, symObjAddr: 0x58F44, symBinAddr: 0x10005BF3C, symSize: 0x698 }
  - { offsetInCU: 0x51D0C, offset: 0x51D0C, size: 0x8, addend: 0x0, symName: __ZZN5boost5beast4http6detail17basic_parser_base22parse_chunk_extensionsERPKcS5_RNS_6system10error_codeEE7loc_694, symObjAddr: 0x86A10, symBinAddr: 0x100097A10, symSize: 0x0 }
  - { offsetInCU: 0x51D23, offset: 0x51D23, size: 0x8, addend: 0x0, symName: __ZZN5boost5beast4http6detail17basic_parser_base22parse_chunk_extensionsERPKcS5_RNS_6system10error_codeEE7loc_707, symObjAddr: 0x86A28, symBinAddr: 0x100097A28, symSize: 0x0 }
  - { offsetInCU: 0x51D3A, offset: 0x51D3A, size: 0x8, addend: 0x0, symName: __ZZN5boost5beast4http6detail17basic_parser_base22parse_chunk_extensionsERPKcS5_RNS_6system10error_codeEE7loc_717, symObjAddr: 0x86A40, symBinAddr: 0x100097A40, symSize: 0x0 }
  - { offsetInCU: 0x51D51, offset: 0x51D51, size: 0x8, addend: 0x0, symName: __ZZN5boost5beast4http6detail17basic_parser_base22parse_chunk_extensionsERPKcS5_RNS_6system10error_codeEE7loc_727, symObjAddr: 0x86A58, symBinAddr: 0x100097A58, symSize: 0x0 }
  - { offsetInCU: 0x51DC9, offset: 0x51DC9, size: 0x8, addend: 0x0, symName: __ZN5boost5beast4http12basic_parserILb0EE7put_eofERNS_6system10error_codeE, symObjAddr: 0x539D0, symBinAddr: 0x1000569C8, symSize: 0x194 }
  - { offsetInCU: 0x51DEE, offset: 0x51DEE, size: 0x8, addend: 0x0, symName: __ZZN5boost5beast4http12basic_parserILb0EE7put_eofERNS_6system10error_codeEE7loc_242, symObjAddr: 0x86A88, symBinAddr: 0x100097A88, symSize: 0x0 }
  - { offsetInCU: 0x51E03, offset: 0x51E03, size: 0x8, addend: 0x0, symName: __ZZN5boost5beast4http12basic_parserILb0EE7put_eofERNS_6system10error_codeEE7loc_249, symObjAddr: 0x86AA0, symBinAddr: 0x100097AA0, symSize: 0x0 }
  - { offsetInCU: 0x51E2A, offset: 0x51E2A, size: 0x8, addend: 0x0, symName: __ZN5boost4asio6detail23reactive_socket_serviceINS0_2ip3tcpEE8shutdownERNS1_28reactive_socket_service_base24base_implementation_typeENS0_11socket_base13shutdown_typeERNS_6system10error_codeE, symObjAddr: 0x781D0, symBinAddr: 0x10007B1C8, symSize: 0x74 }
  - { offsetInCU: 0x51E4D, offset: 0x51E4D, size: 0x8, addend: 0x0, symName: __ZZN5boost4asio6detail23reactive_socket_serviceINS0_2ip3tcpEE8shutdownERNS1_28reactive_socket_service_base24base_implementation_typeENS0_11socket_base13shutdown_typeERNS_6system10error_codeEE3loc, symObjAddr: 0x86AB8, symBinAddr: 0x100097AB8, symSize: 0x0 }
  - { offsetInCU: 0x5362B, offset: 0x5362B, size: 0x8, addend: 0x0, symName: __ZNSt3__16vectorIN5boost4asio2ip20basic_resolver_entryINS3_3tcpEEENS_9allocatorIS6_EEE26__swap_out_circular_bufferERNS_14__split_bufferIS6_RS8_EE, symObjAddr: 0x1BA70, symBinAddr: 0x10001EA68, symSize: 0x118 }
  - { offsetInCU: 0x557C0, offset: 0x557C0, size: 0x8, addend: 0x0, symName: __Z7isdigiti, symObjAddr: 0x19AA8, symBinAddr: 0x10001CAA0, symSize: 0x28 }
  - { offsetInCU: 0x565B5, offset: 0x565B5, size: 0x8, addend: 0x0, symName: __ZN5boost11optional_ns15in_place_init_tC1ENS1_8init_tagE, symObjAddr: 0x38, symBinAddr: 0x100003030, symSize: 0x2C }
  - { offsetInCU: 0x565E9, offset: 0x565E9, size: 0x8, addend: 0x0, symName: __ZN5boost11optional_ns18in_place_init_if_tC1ENS1_8init_tagE, symObjAddr: 0x64, symBinAddr: 0x10000305C, symSize: 0x2C }
  - { offsetInCU: 0x5661D, offset: 0x5661D, size: 0x8, addend: 0x0, symName: _main, symObjAddr: 0x90, symBinAddr: 0x100003088, symSize: 0x40C }
  - { offsetInCU: 0x566C5, offset: 0x566C5, size: 0x8, addend: 0x0, symName: __ZN5boost4asio10io_contextC1Ev, symObjAddr: 0x49C, symBinAddr: 0x100003494, symSize: 0x2C }
  - { offsetInCU: 0x567B8, offset: 0x567B8, size: 0x8, addend: 0x0, symName: __ZN5boost4asio2ip14basic_resolverINS1_3tcpENS0_15any_io_executorEEC1INS0_10io_contextEEERT_NS0_10constraintIXsr14is_convertibleIS9_RNS0_17execution_contextEEE5valueEiE4typeE, symObjAddr: 0x4C8, symBinAddr: 0x1000034C0, symSize: 0x3C }
  - { offsetInCU: 0x56911, offset: 0x56911, size: 0x8, addend: 0x0, symName: __ZN5boost4asio19basic_stream_socketINS0_2ip3tcpENS0_15any_io_executorEEC1INS0_10io_contextEEERT_NS0_10constraintIXsr14is_convertibleIS9_RNS0_17execution_contextEEE5valueEiE4typeE, symObjAddr: 0x504, symBinAddr: 0x1000034FC, symSize: 0x3C }
  - { offsetInCU: 0x5695F, offset: 0x5695F, size: 0x8, addend: 0x0, symName: __ZN5boost4asio2ip14basic_resolverINS1_3tcpENS0_15any_io_executorEE7resolveENSt3__117basic_string_viewIcNS6_11char_traitsIcEEEESA_, symObjAddr: 0x540, symBinAddr: 0x100003538, symSize: 0x60 }
  - { offsetInCU: 0x569A3, offset: 0x569A3, size: 0x8, addend: 0x0, symName: __ZNSt3__117basic_string_viewIcNS_11char_traitsIcEEEC1B7v160006EPKc, symObjAddr: 0x5A0, symBinAddr: 0x100003598, symSize: 0x34 }
  - { offsetInCU: 0x569DC, offset: 0x569DC, size: 0x8, addend: 0x0, symName: __ZNK5boost4asio2ip22basic_resolver_resultsINS1_3tcpEE5beginEv, symObjAddr: 0x72C, symBinAddr: 0x100003724, symSize: 0x70 }
  - { offsetInCU: 0x56A10, offset: 0x56A10, size: 0x8, addend: 0x0, symName: __ZNK5boost4asio2ip22basic_resolver_resultsINS1_3tcpEE3endEv, symObjAddr: 0x79C, symBinAddr: 0x100003794, symSize: 0x34 }
  - { offsetInCU: 0x56A36, offset: 0x56A36, size: 0x8, addend: 0x0, symName: __ZN5boost4asio2ip23basic_resolver_iteratorINS1_3tcpEED1Ev, symObjAddr: 0x7D0, symBinAddr: 0x1000037C8, symSize: 0x2C }
  - { offsetInCU: 0x56A62, offset: 0x56A62, size: 0x8, addend: 0x0, symName: __ZN5boost4core17basic_string_viewIcEC1EPKc, symObjAddr: 0x7FC, symBinAddr: 0x1000037F4, symSize: 0x34 }
  - { offsetInCU: 0x56A9B, offset: 0x56A9B, size: 0x8, addend: 0x0, symName: __ZN5boost5beast4http7messageILb1ENS1_17basic_string_bodyIcNSt3__111char_traitsIcEENS4_9allocatorIcEEEENS1_12basic_fieldsIS8_EEEC1IivEENS1_4verbENS_4core17basic_string_viewIcEET_, symObjAddr: 0x830, symBinAddr: 0x100003828, symSize: 0x4C }
  - { offsetInCU: 0x56AFF, offset: 0x56AFF, size: 0x8, addend: 0x0, symName: __ZN5boost5beast4http12basic_fieldsINSt3__19allocatorIcEEE3setENS1_5fieldERKNS_4core17basic_string_viewIcEE, symObjAddr: 0x87C, symBinAddr: 0x100003874, symSize: 0xB8 }
  - { offsetInCU: 0x56B88, offset: 0x56B88, size: 0x8, addend: 0x0, symName: __ZN5boost5beast17basic_flat_bufferINSt3__19allocatorIcEEEC1Ev, symObjAddr: 0x9F4, symBinAddr: 0x1000039EC, symSize: 0x2C }
  - { offsetInCU: 0x56BB4, offset: 0x56BB4, size: 0x8, addend: 0x0, symName: __ZN5boost5beast4http7messageILb0ENS1_18basic_dynamic_bodyINS0_18basic_multi_bufferINSt3__19allocatorIcEEEEEENS1_12basic_fieldsIS7_EEEC1Ev, symObjAddr: 0xA20, symBinAddr: 0x100003A18, symSize: 0x2C }
  - { offsetInCU: 0x56BDE, offset: 0x56BDE, size: 0x8, addend: 0x0, symName: __ZNSt3__113basic_ostreamIcNS_11char_traitsIcEEElsB7v160006EPFRS3_S4_E, symObjAddr: 0xC64, symBinAddr: 0x100003C5C, symSize: 0x2C }
  - { offsetInCU: 0x56C13, offset: 0x56C13, size: 0x8, addend: 0x0, symName: __ZN5boost6system10error_codeC1Ev, symObjAddr: 0xCE8, symBinAddr: 0x100003CE0, symSize: 0x2C }
  - { offsetInCU: 0x56C3D, offset: 0x56C3D, size: 0x8, addend: 0x0, symName: __ZN5boost4asio12basic_socketINS0_2ip3tcpENS0_15any_io_executorEE8shutdownENS0_11socket_base13shutdown_typeERNS_6system10error_codeE, symObjAddr: 0xD14, symBinAddr: 0x100003D0C, symSize: 0x74 }
  - { offsetInCU: 0x56C83, offset: 0x56C83, size: 0x8, addend: 0x0, symName: __ZN5boost5beast4http7messageILb0ENS1_18basic_dynamic_bodyINS0_18basic_multi_bufferINSt3__19allocatorIcEEEEEENS1_12basic_fieldsIS7_EEED1Ev, symObjAddr: 0xD88, symBinAddr: 0x100003D80, symSize: 0x2C }
  - { offsetInCU: 0x56CB0, offset: 0x56CB0, size: 0x8, addend: 0x0, symName: __ZN5boost5beast17basic_flat_bufferINSt3__19allocatorIcEEED1Ev, symObjAddr: 0xDB4, symBinAddr: 0x100003DAC, symSize: 0x2C }
  - { offsetInCU: 0x56CDC, offset: 0x56CDC, size: 0x8, addend: 0x0, symName: __ZN5boost5beast4http7messageILb1ENS1_17basic_string_bodyIcNSt3__111char_traitsIcEENS4_9allocatorIcEEEENS1_12basic_fieldsIS8_EEED1Ev, symObjAddr: 0xDE0, symBinAddr: 0x100003DD8, symSize: 0x2C }
  - { offsetInCU: 0x56D09, offset: 0x56D09, size: 0x8, addend: 0x0, symName: __ZN5boost4asio2ip22basic_resolver_resultsINS1_3tcpEED1Ev, symObjAddr: 0xE0C, symBinAddr: 0x100003E04, symSize: 0x2C }
  - { offsetInCU: 0x56D35, offset: 0x56D35, size: 0x8, addend: 0x0, symName: __ZN5boost4asio19basic_stream_socketINS0_2ip3tcpENS0_15any_io_executorEED1Ev, symObjAddr: 0xE38, symBinAddr: 0x100003E30, symSize: 0x2C }
  - { offsetInCU: 0x56D5F, offset: 0x56D5F, size: 0x8, addend: 0x0, symName: __ZN5boost4asio2ip14basic_resolverINS1_3tcpENS0_15any_io_executorEED1Ev, symObjAddr: 0xE64, symBinAddr: 0x100003E5C, symSize: 0x2C }
  - { offsetInCU: 0x56D89, offset: 0x56D89, size: 0x8, addend: 0x0, symName: __ZN5boost4asio10io_contextD1Ev, symObjAddr: 0xE90, symBinAddr: 0x100003E88, symSize: 0x2C }
  - { offsetInCU: 0x56DB6, offset: 0x56DB6, size: 0x8, addend: 0x0, symName: __ZN5boost4asio6detail7tss_ptrINS1_10call_stackINS1_14thread_contextENS1_16thread_info_baseEE7contextEEC1Ev, symObjAddr: 0xF10, symBinAddr: 0x100003F08, symSize: 0x2C }
  - { offsetInCU: 0x56DE2, offset: 0x56DE2, size: 0x8, addend: 0x0, symName: __ZN5boost4asio6detail7tss_ptrINS1_10call_stackINS1_14thread_contextENS1_16thread_info_baseEE7contextEED1Ev, symObjAddr: 0xF3C, symBinAddr: 0x100003F34, symSize: 0x2C }
  - { offsetInCU: 0x56E14, offset: 0x56E14, size: 0x8, addend: 0x0, symName: __ZN5boost4asio6detail10service_idINS1_9schedulerEEC1Ev, symObjAddr: 0xF68, symBinAddr: 0x100003F60, symSize: 0x2C }
  - { offsetInCU: 0x56E41, offset: 0x56E41, size: 0x8, addend: 0x0, symName: __ZN5boost4asio6detail10service_idINS1_9schedulerEED1Ev, symObjAddr: 0xF94, symBinAddr: 0x100003F8C, symSize: 0x2C }
  - { offsetInCU: 0x56E74, offset: 0x56E74, size: 0x8, addend: 0x0, symName: __ZN5boost4asio6detail10service_idINS1_14kqueue_reactorEEC1Ev, symObjAddr: 0xFC0, symBinAddr: 0x100003FB8, symSize: 0x2C }
  - { offsetInCU: 0x56EA1, offset: 0x56EA1, size: 0x8, addend: 0x0, symName: __ZN5boost4asio6detail10service_idINS1_14kqueue_reactorEED1Ev, symObjAddr: 0xFEC, symBinAddr: 0x100003FE4, symSize: 0x2C }
  - { offsetInCU: 0x56ED4, offset: 0x56ED4, size: 0x8, addend: 0x0, symName: __ZN5boost4asio6detail10service_idINS1_16resolver_serviceINS0_2ip3tcpEEEEC1Ev, symObjAddr: 0x1018, symBinAddr: 0x100004010, symSize: 0x2C }
  - { offsetInCU: 0x56F01, offset: 0x56F01, size: 0x8, addend: 0x0, symName: __ZN5boost4asio6detail10service_idINS1_16resolver_serviceINS0_2ip3tcpEEEED1Ev, symObjAddr: 0x1044, symBinAddr: 0x10000403C, symSize: 0x2C }
  - { offsetInCU: 0x56F34, offset: 0x56F34, size: 0x8, addend: 0x0, symName: __ZN5boost4asio6detail10service_idINS1_23reactive_socket_serviceINS0_2ip3tcpEEEEC1Ev, symObjAddr: 0x1070, symBinAddr: 0x100004068, symSize: 0x2C }
  - { offsetInCU: 0x56F61, offset: 0x56F61, size: 0x8, addend: 0x0, symName: __ZN5boost4asio6detail10service_idINS1_23reactive_socket_serviceINS0_2ip3tcpEEEED1Ev, symObjAddr: 0x109C, symBinAddr: 0x100004094, symSize: 0x2C }
  - { offsetInCU: 0x56F8E, offset: 0x56F8E, size: 0x8, addend: 0x0, symName: __ZNK5boost6system6detail21system_error_category4nameEv, symObjAddr: 0x10D4, symBinAddr: 0x1000040CC, symSize: 0x18 }
  - { offsetInCU: 0x56FB4, offset: 0x56FB4, size: 0x8, addend: 0x0, symName: __ZNK5boost6system6detail21system_error_category23default_error_conditionEi, symObjAddr: 0x10EC, symBinAddr: 0x1000040E4, symSize: 0x4C }
  - { offsetInCU: 0x56FEC, offset: 0x56FEC, size: 0x8, addend: 0x0, symName: __ZNK5boost6system14error_category10equivalentEiRKNS0_15error_conditionE, symObjAddr: 0x1138, symBinAddr: 0x100004130, symSize: 0x54 }
  - { offsetInCU: 0x57030, offset: 0x57030, size: 0x8, addend: 0x0, symName: __ZNK5boost6system14error_category10equivalentERKNS0_10error_codeEi, symObjAddr: 0x118C, symBinAddr: 0x100004184, symSize: 0x38 }
  - { offsetInCU: 0x57074, offset: 0x57074, size: 0x8, addend: 0x0, symName: __ZNK5boost6system6detail21system_error_category7messageEi, symObjAddr: 0x11C4, symBinAddr: 0x1000041BC, symSize: 0x30 }
  - { offsetInCU: 0x570AC, offset: 0x570AC, size: 0x8, addend: 0x0, symName: __ZNK5boost6system6detail21system_error_category7messageEiPcm, symObjAddr: 0x11F4, symBinAddr: 0x1000041EC, symSize: 0x38 }
  - { offsetInCU: 0x57102, offset: 0x57102, size: 0x8, addend: 0x0, symName: __ZNK5boost6system14error_category6failedEi, symObjAddr: 0x122C, symBinAddr: 0x100004224, symSize: 0x24 }
  - { offsetInCU: 0x57136, offset: 0x57136, size: 0x8, addend: 0x0, symName: __ZN5boost6system6detail17generic_value_tagC1Ei, symObjAddr: 0x1250, symBinAddr: 0x100004248, symSize: 0x34 }
  - { offsetInCU: 0x5716E, offset: 0x5716E, size: 0x8, addend: 0x0, symName: __ZN5boost6system15error_conditionC1ENS0_6detail17generic_value_tagE, symObjAddr: 0x1284, symBinAddr: 0x10000427C, symSize: 0x3C }
  - { offsetInCU: 0x571A6, offset: 0x571A6, size: 0x8, addend: 0x0, symName: __ZN5boost6system6detail17generic_value_tagC2Ei, symObjAddr: 0x12C0, symBinAddr: 0x1000042B8, symSize: 0x20 }
  - { offsetInCU: 0x571DE, offset: 0x571DE, size: 0x8, addend: 0x0, symName: __ZN5boost6system15error_conditionC2ENS0_6detail17generic_value_tagE, symObjAddr: 0x12E0, symBinAddr: 0x1000042D8, symSize: 0x28 }
  - { offsetInCU: 0x57216, offset: 0x57216, size: 0x8, addend: 0x0, symName: __ZNK5boost6system15error_condition6cat_idEv, symObjAddr: 0x1414, symBinAddr: 0x10000440C, symSize: 0x5C }
  - { offsetInCU: 0x5723C, offset: 0x5723C, size: 0x8, addend: 0x0, symName: __ZNK5boost6system10error_code6equalsEiRKNS0_14error_categoryE, symObjAddr: 0x14DC, symBinAddr: 0x1000044D4, symSize: 0x170 }
  - { offsetInCU: 0x57280, offset: 0x57280, size: 0x8, addend: 0x0, symName: __ZNK5boost6system10error_code5valueEv, symObjAddr: 0x164C, symBinAddr: 0x100004644, symSize: 0x9C }
  - { offsetInCU: 0x572DE, offset: 0x572DE, size: 0x8, addend: 0x0, symName: __ZNKSt3__110error_code5valueB7v160006Ev, symObjAddr: 0x16E8, symBinAddr: 0x1000046E0, symSize: 0x18 }
  - { offsetInCU: 0x57304, offset: 0x57304, size: 0x8, addend: 0x0, symName: __ZNKSt3__110error_code8categoryB7v160006Ev, symObjAddr: 0x1700, symBinAddr: 0x1000046F8, symSize: 0x18 }
  - { offsetInCU: 0x57330, offset: 0x57330, size: 0x8, addend: 0x0, symName: __ZNSt3__112basic_stringIcNS_11char_traitsIcEENS_9allocatorIcEEEC1B7v160006IDnEEPKc, symObjAddr: 0x17B0, symBinAddr: 0x1000047A8, symSize: 0x34 }
  - { offsetInCU: 0x5736F, offset: 0x5736F, size: 0x8, addend: 0x0, symName: __ZNSt3__112basic_stringIcNS_11char_traitsIcEENS_9allocatorIcEEEC2B7v160006IDnEEPKc, symObjAddr: 0x17E4, symBinAddr: 0x1000047DC, symSize: 0x60 }
  - { offsetInCU: 0x573B4, offset: 0x573B4, size: 0x8, addend: 0x0, symName: __ZNSt3__117__compressed_pairINS_12basic_stringIcNS_11char_traitsIcEENS_9allocatorIcEEE5__repES5_EC1B7v160006INS_18__default_init_tagESA_EEOT_OT0_, symObjAddr: 0x1844, symBinAddr: 0x10000483C, symSize: 0x3C }
  - { offsetInCU: 0x5740C, offset: 0x5740C, size: 0x8, addend: 0x0, symName: __ZNSt3__111char_traitsIcE6lengthEPKc, symObjAddr: 0x1880, symBinAddr: 0x100004878, symSize: 0x34 }
  - { offsetInCU: 0x5742F, offset: 0x5742F, size: 0x8, addend: 0x0, symName: __ZNSt3__117__compressed_pairINS_12basic_stringIcNS_11char_traitsIcEENS_9allocatorIcEEE5__repES5_EC2B7v160006INS_18__default_init_tagESA_EEOT_OT0_, symObjAddr: 0x18C4, symBinAddr: 0x1000048BC, symSize: 0x3C }
  - { offsetInCU: 0x57487, offset: 0x57487, size: 0x8, addend: 0x0, symName: __ZNSt3__122__compressed_pair_elemINS_12basic_stringIcNS_11char_traitsIcEENS_9allocatorIcEEE5__repELi0ELb0EEC2B7v160006ENS_18__default_init_tagE, symObjAddr: 0x1900, symBinAddr: 0x1000048F8, symSize: 0x14 }
  - { offsetInCU: 0x574BB, offset: 0x574BB, size: 0x8, addend: 0x0, symName: __ZNSt3__122__compressed_pair_elemINS_9allocatorIcEELi1ELb1EEC2B7v160006ENS_18__default_init_tagE, symObjAddr: 0x1914, symBinAddr: 0x10000490C, symSize: 0x2C }
  - { offsetInCU: 0x574EF, offset: 0x574EF, size: 0x8, addend: 0x0, symName: __ZNSt3__19allocatorIcEC2B7v160006Ev, symObjAddr: 0x1940, symBinAddr: 0x100004938, symSize: 0x2C }
  - { offsetInCU: 0x57519, offset: 0x57519, size: 0x8, addend: 0x0, symName: __ZNSt3__116__non_trivial_ifILb1ENS_9allocatorIcEEEC2B7v160006Ev, symObjAddr: 0x196C, symBinAddr: 0x100004964, symSize: 0x14 }
  - { offsetInCU: 0x57543, offset: 0x57543, size: 0x8, addend: 0x0, symName: __ZNK5boost4asio5error6detail14netdb_category4nameEv, symObjAddr: 0x1AC0, symBinAddr: 0x100004AB8, symSize: 0x18 }
  - { offsetInCU: 0x57569, offset: 0x57569, size: 0x8, addend: 0x0, symName: __ZNK5boost6system14error_category23default_error_conditionEi, symObjAddr: 0x1AD8, symBinAddr: 0x100004AD0, symSize: 0x38 }
  - { offsetInCU: 0x5759F, offset: 0x5759F, size: 0x8, addend: 0x0, symName: __ZNK5boost4asio5error6detail14netdb_category7messageEi, symObjAddr: 0x1B10, symBinAddr: 0x100004B08, symSize: 0xDC }
  - { offsetInCU: 0x575D3, offset: 0x575D3, size: 0x8, addend: 0x0, symName: __ZNK5boost6system14error_category7messageEiPcm, symObjAddr: 0x1BEC, symBinAddr: 0x100004BE4, symSize: 0x158 }
  - { offsetInCU: 0x5763A, offset: 0x5763A, size: 0x8, addend: 0x0, symName: __ZN5boost6system15error_conditionC1EiRKNS0_14error_categoryE, symObjAddr: 0x1D44, symBinAddr: 0x100004D3C, symSize: 0x3C }
  - { offsetInCU: 0x57680, offset: 0x57680, size: 0x8, addend: 0x0, symName: __ZN5boost6system15error_conditionC2EiRKNS0_14error_categoryE, symObjAddr: 0x1D80, symBinAddr: 0x100004D78, symSize: 0x2C }
  - { offsetInCU: 0x576C6, offset: 0x576C6, size: 0x8, addend: 0x0, symName: __ZNKSt3__112basic_stringIcNS_11char_traitsIcEENS_9allocatorIcEEE5c_strB7v160006Ev, symObjAddr: 0x1DAC, symBinAddr: 0x100004DA4, symSize: 0x24 }
  - { offsetInCU: 0x576EC, offset: 0x576EC, size: 0x8, addend: 0x0, symName: __ZNKSt3__112basic_stringIcNS_11char_traitsIcEENS_9allocatorIcEEE4dataB7v160006Ev, symObjAddr: 0x1E14, symBinAddr: 0x100004E0C, symSize: 0x28 }
  - { offsetInCU: 0x57712, offset: 0x57712, size: 0x8, addend: 0x0, symName: __ZNKSt3__112basic_stringIcNS_11char_traitsIcEENS_9allocatorIcEEE13__get_pointerB7v160006Ev, symObjAddr: 0x1E50, symBinAddr: 0x100004E48, symSize: 0x54 }
  - { offsetInCU: 0x57738, offset: 0x57738, size: 0x8, addend: 0x0, symName: __ZNKSt3__112basic_stringIcNS_11char_traitsIcEENS_9allocatorIcEEE9__is_longB7v160006Ev, symObjAddr: 0x1EA4, symBinAddr: 0x100004E9C, symSize: 0x38 }
  - { offsetInCU: 0x5775E, offset: 0x5775E, size: 0x8, addend: 0x0, symName: __ZNKSt3__112basic_stringIcNS_11char_traitsIcEENS_9allocatorIcEEE18__get_long_pointerB7v160006Ev, symObjAddr: 0x1EDC, symBinAddr: 0x100004ED4, symSize: 0x28 }
  - { offsetInCU: 0x57784, offset: 0x57784, size: 0x8, addend: 0x0, symName: __ZNKSt3__112basic_stringIcNS_11char_traitsIcEENS_9allocatorIcEEE19__get_short_pointerB7v160006Ev, symObjAddr: 0x1F04, symBinAddr: 0x100004EFC, symSize: 0x28 }
  - { offsetInCU: 0x577AA, offset: 0x577AA, size: 0x8, addend: 0x0, symName: __ZNKSt3__117__compressed_pairINS_12basic_stringIcNS_11char_traitsIcEENS_9allocatorIcEEE5__repES5_E5firstB7v160006Ev, symObjAddr: 0x1F2C, symBinAddr: 0x100004F24, symSize: 0x24 }
  - { offsetInCU: 0x577D0, offset: 0x577D0, size: 0x8, addend: 0x0, symName: __ZNKSt3__122__compressed_pair_elemINS_12basic_stringIcNS_11char_traitsIcEENS_9allocatorIcEEE5__repELi0ELb0EE5__getB7v160006Ev, symObjAddr: 0x1F50, symBinAddr: 0x100004F48, symSize: 0x14 }
  - { offsetInCU: 0x577F6, offset: 0x577F6, size: 0x8, addend: 0x0, symName: __ZNSt3__114pointer_traitsIPKcE10pointer_toB7v160006ERS1_, symObjAddr: 0x1F64, symBinAddr: 0x100004F5C, symSize: 0x14 }
  - { offsetInCU: 0x5781A, offset: 0x5781A, size: 0x8, addend: 0x0, symName: __ZNK5boost4asio5error6detail17addrinfo_category4nameEv, symObjAddr: 0x1F78, symBinAddr: 0x100004F70, symSize: 0x18 }
  - { offsetInCU: 0x57840, offset: 0x57840, size: 0x8, addend: 0x0, symName: __ZNK5boost4asio5error6detail17addrinfo_category7messageEi, symObjAddr: 0x1F90, symBinAddr: 0x100004F88, symSize: 0x8C }
  - { offsetInCU: 0x57874, offset: 0x57874, size: 0x8, addend: 0x0, symName: __ZNK5boost4asio5error6detail13misc_category4nameEv, symObjAddr: 0x201C, symBinAddr: 0x100005014, symSize: 0x18 }
  - { offsetInCU: 0x5789A, offset: 0x5789A, size: 0x8, addend: 0x0, symName: __ZNK5boost4asio5error6detail13misc_category7messageEi, symObjAddr: 0x2034, symBinAddr: 0x10000502C, symSize: 0xDC }
  - { offsetInCU: 0x578CE, offset: 0x578CE, size: 0x8, addend: 0x0, symName: __ZN5boost11optional_ns15in_place_init_tC2ENS1_8init_tagE, symObjAddr: 0x2110, symBinAddr: 0x100005108, symSize: 0x14 }
  - { offsetInCU: 0x57902, offset: 0x57902, size: 0x8, addend: 0x0, symName: __ZN5boost11optional_ns18in_place_init_if_tC2ENS1_8init_tagE, symObjAddr: 0x2124, symBinAddr: 0x10000511C, symSize: 0x14 }
  - { offsetInCU: 0x57936, offset: 0x57936, size: 0x8, addend: 0x0, symName: __ZN5boost4asio10io_contextC2Ev, symObjAddr: 0x2138, symBinAddr: 0x100005130, symSize: 0xBC }
  - { offsetInCU: 0x57963, offset: 0x57963, size: 0x8, addend: 0x0, symName: __ZN5boost4asio17execution_contextC2Ev, symObjAddr: 0x21F4, symBinAddr: 0x1000051EC, symSize: 0x94 }
  - { offsetInCU: 0x5798F, offset: 0x5798F, size: 0x8, addend: 0x0, symName: __ZN5boost4asio10io_context8add_implEPNS0_6detail9schedulerE, symObjAddr: 0x2288, symBinAddr: 0x100005280, symSize: 0x94 }
  - { offsetInCU: 0x579D6, offset: 0x579D6, size: 0x8, addend: 0x0, symName: __ZN5boost4asio6detail9scheduler16get_default_taskERNS0_17execution_contextE, symObjAddr: 0x231C, symBinAddr: 0x100005314, symSize: 0x54 }
  - { offsetInCU: 0x579FD, offset: 0x579FD, size: 0x8, addend: 0x0, symName: __ZN5boost4asio6detail9schedulerC1ERNS0_17execution_contextEibPFPNS1_14scheduler_taskES4_E, symObjAddr: 0x2370, symBinAddr: 0x100005368, symSize: 0x58 }
  - { offsetInCU: 0x57A61, offset: 0x57A61, size: 0x8, addend: 0x0, symName: __ZN5boost4asio17execution_contextD2Ev, symObjAddr: 0x23C8, symBinAddr: 0x1000053C0, symSize: 0x80 }
  - { offsetInCU: 0x57A8D, offset: 0x57A8D, size: 0x8, addend: 0x0, symName: __ZN5boost4asio6detail11noncopyableC2Ev, symObjAddr: 0x2448, symBinAddr: 0x100005440, symSize: 0x14 }
  - { offsetInCU: 0x57AB7, offset: 0x57AB7, size: 0x8, addend: 0x0, symName: __ZN5boost4asio6detail16service_registryC1ERNS0_17execution_contextE, symObjAddr: 0x245C, symBinAddr: 0x100005454, symSize: 0x34 }
  - { offsetInCU: 0x57AF3, offset: 0x57AF3, size: 0x8, addend: 0x0, symName: __ZN5boost4asio6detail11noncopyableD2Ev, symObjAddr: 0x2490, symBinAddr: 0x100005488, symSize: 0x14 }
  - { offsetInCU: 0x57B1D, offset: 0x57B1D, size: 0x8, addend: 0x0, symName: __ZN5boost4asio6detail16service_registryC2ERNS0_17execution_contextE, symObjAddr: 0x24A4, symBinAddr: 0x10000549C, symSize: 0x70 }
  - { offsetInCU: 0x57B59, offset: 0x57B59, size: 0x8, addend: 0x0, symName: __ZN5boost4asio6detail11posix_mutexC1Ev, symObjAddr: 0x2514, symBinAddr: 0x10000550C, symSize: 0x2C }
  - { offsetInCU: 0x57B85, offset: 0x57B85, size: 0x8, addend: 0x0, symName: __ZN5boost4asio6detail11posix_mutexC2Ev, symObjAddr: 0x2540, symBinAddr: 0x100005538, symSize: 0xC8 }
  - { offsetInCU: 0x57BD4, offset: 0x57BD4, size: 0x8, addend: 0x0, symName: __ZN5boost6system10error_codeC1EiRKNS0_14error_categoryE, symObjAddr: 0x2608, symBinAddr: 0x100005600, symSize: 0x3C }
  - { offsetInCU: 0x57C1A, offset: 0x57C1A, size: 0x8, addend: 0x0, symName: __ZN5boost15source_locationC1EPKcjS2_j, symObjAddr: 0x268C, symBinAddr: 0x100005684, symSize: 0x4C }
  - { offsetInCU: 0x57C7C, offset: 0x57C7C, size: 0x8, addend: 0x0, symName: __ZN5boost6system10error_codeC2EiRKNS0_14error_categoryE, symObjAddr: 0x26D8, symBinAddr: 0x1000056D0, symSize: 0x78 }
  - { offsetInCU: 0x57CC2, offset: 0x57CC2, size: 0x8, addend: 0x0, symName: __ZNK5boost6system10error_codecvbEv, symObjAddr: 0x2808, symBinAddr: 0x100005800, symSize: 0x28 }
  - { offsetInCU: 0x57CE8, offset: 0x57CE8, size: 0x8, addend: 0x0, symName: __ZNK5boost6system10error_code6failedEv, symObjAddr: 0x2890, symBinAddr: 0x100005888, symSize: 0xA8 }
  - { offsetInCU: 0x57D2B, offset: 0x57D2B, size: 0x8, addend: 0x0, symName: __ZN5boost6system12system_errorC1ERKNS0_10error_codeEPKc, symObjAddr: 0x2938, symBinAddr: 0x100005930, symSize: 0x3C }
  - { offsetInCU: 0x57D71, offset: 0x57D71, size: 0x8, addend: 0x0, symName: __ZN5boost6system12system_errorD1Ev, symObjAddr: 0x29E8, symBinAddr: 0x1000059E0, symSize: 0x2C }
  - { offsetInCU: 0x57D9D, offset: 0x57D9D, size: 0x8, addend: 0x0, symName: __ZN5boost6system12system_errorC2ERKNS0_10error_codeEPKc, symObjAddr: 0x2A14, symBinAddr: 0x100005A0C, symSize: 0x14C }
  - { offsetInCU: 0x57DE3, offset: 0x57DE3, size: 0x8, addend: 0x0, symName: __ZNK5boost6system10error_code4whatEv, symObjAddr: 0x2BE0, symBinAddr: 0x100005BD8, symSize: 0x164 }
  - { offsetInCU: 0x57E19, offset: 0x57E19, size: 0x8, addend: 0x0, symName: __ZN5boost6system12system_errorD0Ev, symObjAddr: 0x2D44, symBinAddr: 0x100005D3C, symSize: 0x30 }
  - { offsetInCU: 0x57E45, offset: 0x57E45, size: 0x8, addend: 0x0, symName: __ZNSt3__112basic_stringIcNS_11char_traitsIcEENS_9allocatorIcEEE6appendB7v160006ERKS5_, symObjAddr: 0x2D74, symBinAddr: 0x100005D6C, symSize: 0x4C }
  - { offsetInCU: 0x57E7A, offset: 0x57E7A, size: 0x8, addend: 0x0, symName: __ZNSt3__112basic_stringIcNS_11char_traitsIcEENS_9allocatorIcEEEC1B7v160006EOS5_, symObjAddr: 0x2DC0, symBinAddr: 0x100005DB8, symSize: 0x34 }
  - { offsetInCU: 0x57EB3, offset: 0x57EB3, size: 0x8, addend: 0x0, symName: __ZNKSt3__112basic_stringIcNS_11char_traitsIcEENS_9allocatorIcEEE4sizeB7v160006Ev, symObjAddr: 0x2DF4, symBinAddr: 0x100005DEC, symSize: 0x54 }
  - { offsetInCU: 0x57ED9, offset: 0x57ED9, size: 0x8, addend: 0x0, symName: __ZNKSt3__112basic_stringIcNS_11char_traitsIcEENS_9allocatorIcEEE15__get_long_sizeB7v160006Ev, symObjAddr: 0x2E48, symBinAddr: 0x100005E40, symSize: 0x28 }
  - { offsetInCU: 0x57EFF, offset: 0x57EFF, size: 0x8, addend: 0x0, symName: __ZNKSt3__112basic_stringIcNS_11char_traitsIcEENS_9allocatorIcEEE16__get_short_sizeB7v160006Ev, symObjAddr: 0x2E70, symBinAddr: 0x100005E68, symSize: 0x34 }
  - { offsetInCU: 0x57F25, offset: 0x57F25, size: 0x8, addend: 0x0, symName: __ZNSt3__112basic_stringIcNS_11char_traitsIcEENS_9allocatorIcEEEC2B7v160006EOS5_, symObjAddr: 0x2EA4, symBinAddr: 0x100005E9C, symSize: 0x84 }
  - { offsetInCU: 0x57F5E, offset: 0x57F5E, size: 0x8, addend: 0x0, symName: __ZNSt3__112basic_stringIcNS_11char_traitsIcEENS_9allocatorIcEEE14__default_initB7v160006Ev, symObjAddr: 0x2F28, symBinAddr: 0x100005F20, symSize: 0x40 }
  - { offsetInCU: 0x57F84, offset: 0x57F84, size: 0x8, addend: 0x0, symName: __ZNSt3__117__compressed_pairINS_12basic_stringIcNS_11char_traitsIcEENS_9allocatorIcEEE5__repES5_E5firstB7v160006Ev, symObjAddr: 0x2F7C, symBinAddr: 0x100005F74, symSize: 0x24 }
  - { offsetInCU: 0x57FAA, offset: 0x57FAA, size: 0x8, addend: 0x0, symName: __ZNSt3__122__compressed_pair_elemINS_12basic_stringIcNS_11char_traitsIcEENS_9allocatorIcEEE5__repELi0ELb0EE5__getB7v160006Ev, symObjAddr: 0x2FA0, symBinAddr: 0x100005F98, symSize: 0x14 }
  - { offsetInCU: 0x57FD0, offset: 0x57FD0, size: 0x8, addend: 0x0, symName: __ZNK5boost6system10error_code7messageEv, symObjAddr: 0x2FB4, symBinAddr: 0x100005FAC, symSize: 0xB8 }
  - { offsetInCU: 0x58013, offset: 0x58013, size: 0x8, addend: 0x0, symName: __ZNSt3__112basic_stringIcNS_11char_traitsIcEENS_9allocatorIcEEEpLB7v160006EPKc, symObjAddr: 0x306C, symBinAddr: 0x100006064, symSize: 0x2C }
  - { offsetInCU: 0x58048, offset: 0x58048, size: 0x8, addend: 0x0, symName: __ZNK5boost6system10error_code9to_stringEv, symObjAddr: 0x3098, symBinAddr: 0x100006090, symSize: 0x178 }
  - { offsetInCU: 0x580AB, offset: 0x580AB, size: 0x8, addend: 0x0, symName: __ZNSt3__112basic_stringIcNS_11char_traitsIcEENS_9allocatorIcEEEpLB7v160006ERKS5_, symObjAddr: 0x3210, symBinAddr: 0x100006208, symSize: 0x2C }
  - { offsetInCU: 0x580E0, offset: 0x580E0, size: 0x8, addend: 0x0, symName: __ZNK5boost6system10error_code12has_locationEv, symObjAddr: 0x323C, symBinAddr: 0x100006234, symSize: 0x24 }
  - { offsetInCU: 0x58106, offset: 0x58106, size: 0x8, addend: 0x0, symName: __ZNK5boost15source_location9to_stringEv, symObjAddr: 0x32B4, symBinAddr: 0x1000062AC, symSize: 0x1F4 }
  - { offsetInCU: 0x58173, offset: 0x58173, size: 0x8, addend: 0x0, symName: __ZNK5boost6system10error_code8categoryEv, symObjAddr: 0x34A8, symBinAddr: 0x1000064A0, symSize: 0x7C }
  - { offsetInCU: 0x58199, offset: 0x58199, size: 0x8, addend: 0x0, symName: __ZNK5boost6system6detail22interop_error_category4nameEv, symObjAddr: 0x3530, symBinAddr: 0x100006528, symSize: 0x18 }
  - { offsetInCU: 0x581BF, offset: 0x581BF, size: 0x8, addend: 0x0, symName: __ZNK5boost6system6detail22interop_error_category7messageEi, symObjAddr: 0x3548, symBinAddr: 0x100006540, symSize: 0x84 }
  - { offsetInCU: 0x58202, offset: 0x58202, size: 0x8, addend: 0x0, symName: __ZNK5boost6system6detail22interop_error_category7messageEiPcm, symObjAddr: 0x35CC, symBinAddr: 0x1000065C4, symSize: 0x58 }
  - { offsetInCU: 0x58253, offset: 0x58253, size: 0x8, addend: 0x0, symName: __ZNK5boost6system10error_code13category_nameEv, symObjAddr: 0x36AC, symBinAddr: 0x1000066A4, symSize: 0x90 }
  - { offsetInCU: 0x58279, offset: 0x58279, size: 0x8, addend: 0x0, symName: __ZNK5boost15source_location4lineEv, symObjAddr: 0x373C, symBinAddr: 0x100006734, symSize: 0x18 }
  - { offsetInCU: 0x5829F, offset: 0x5829F, size: 0x8, addend: 0x0, symName: __ZNK5boost15source_location9file_nameEv, symObjAddr: 0x3754, symBinAddr: 0x10000674C, symSize: 0x18 }
  - { offsetInCU: 0x582C5, offset: 0x582C5, size: 0x8, addend: 0x0, symName: __ZNK5boost15source_location6columnEv, symObjAddr: 0x376C, symBinAddr: 0x100006764, symSize: 0x18 }
  - { offsetInCU: 0x582EB, offset: 0x582EB, size: 0x8, addend: 0x0, symName: __ZNK5boost15source_location13function_nameEv, symObjAddr: 0x3784, symBinAddr: 0x10000677C, symSize: 0x18 }
  - { offsetInCU: 0x58311, offset: 0x58311, size: 0x8, addend: 0x0, symName: __ZNSt3__112basic_stringIcNS_11char_traitsIcEENS_9allocatorIcEEEpLB7v160006Ec, symObjAddr: 0x379C, symBinAddr: 0x100006794, symSize: 0x34 }
  - { offsetInCU: 0x5835E, offset: 0x5835E, size: 0x8, addend: 0x0, symName: __ZN5boost10wrapexceptINS_6system12system_errorEEC1ERKS2_RKNS_15source_locationE, symObjAddr: 0x37E0, symBinAddr: 0x1000067D8, symSize: 0x3C }
  - { offsetInCU: 0x583A4, offset: 0x583A4, size: 0x8, addend: 0x0, symName: __ZN5boost10wrapexceptINS_6system12system_errorEED1Ev, symObjAddr: 0x381C, symBinAddr: 0x100006814, symSize: 0x2C }
  - { offsetInCU: 0x583D0, offset: 0x583D0, size: 0x8, addend: 0x0, symName: __ZN5boost10wrapexceptINS_6system12system_errorEEC2ERKS2_RKNS_15source_locationE, symObjAddr: 0x3848, symBinAddr: 0x100006840, symSize: 0x188 }
  - { offsetInCU: 0x58416, offset: 0x58416, size: 0x8, addend: 0x0, symName: __ZN5boost16exception_detail10clone_baseC2Ev, symObjAddr: 0x39D0, symBinAddr: 0x1000069C8, symSize: 0x24 }
  - { offsetInCU: 0x58443, offset: 0x58443, size: 0x8, addend: 0x0, symName: __ZN5boost6system12system_errorC2ERKS1_, symObjAddr: 0x39F4, symBinAddr: 0x1000069EC, symSize: 0x60 }
  - { offsetInCU: 0x58478, offset: 0x58478, size: 0x8, addend: 0x0, symName: __ZN5boost9exceptionC2Ev, symObjAddr: 0x3A54, symBinAddr: 0x100006A4C, symSize: 0x54 }
  - { offsetInCU: 0x584A2, offset: 0x584A2, size: 0x8, addend: 0x0, symName: __ZN5boost10wrapexceptINS_6system12system_errorEE9copy_fromEPKv, symObjAddr: 0x3AA8, symBinAddr: 0x100006AA0, symSize: 0x14 }
  - { offsetInCU: 0x584D2, offset: 0x584D2, size: 0x8, addend: 0x0, symName: __ZN5boost10error_infoINS_11throw_file_EPKcEC1ES3_, symObjAddr: 0x3AE4, symBinAddr: 0x100006ADC, symSize: 0x34 }
  - { offsetInCU: 0x5850A, offset: 0x5850A, size: 0x8, addend: 0x0, symName: __ZN5boost10error_infoINS_11throw_line_EiEC1Ei, symObjAddr: 0x3B40, symBinAddr: 0x100006B38, symSize: 0x34 }
  - { offsetInCU: 0x58542, offset: 0x58542, size: 0x8, addend: 0x0, symName: __ZN5boost10error_infoINS_15throw_function_EPKcEC1ES3_, symObjAddr: 0x3B9C, symBinAddr: 0x100006B94, symSize: 0x34 }
  - { offsetInCU: 0x5857A, offset: 0x5857A, size: 0x8, addend: 0x0, symName: __ZN5boost10error_infoINS_13throw_column_EiEC1Ei, symObjAddr: 0x3BF8, symBinAddr: 0x100006BF0, symSize: 0x34 }
  - { offsetInCU: 0x585B2, offset: 0x585B2, size: 0x8, addend: 0x0, symName: __ZN5boost9exceptionD2Ev, symObjAddr: 0x3C2C, symBinAddr: 0x100006C24, symSize: 0x40 }
  - { offsetInCU: 0x585DE, offset: 0x585DE, size: 0x8, addend: 0x0, symName: __ZN5boost6system12system_errorD2Ev, symObjAddr: 0x3C6C, symBinAddr: 0x100006C64, symSize: 0x2C }
  - { offsetInCU: 0x5860A, offset: 0x5860A, size: 0x8, addend: 0x0, symName: __ZN5boost16exception_detail10clone_baseD2Ev, symObjAddr: 0x3C98, symBinAddr: 0x100006C90, symSize: 0x14 }
  - { offsetInCU: 0x58634, offset: 0x58634, size: 0x8, addend: 0x0, symName: __ZNK5boost10wrapexceptINS_6system12system_errorEE5cloneEv, symObjAddr: 0x3CAC, symBinAddr: 0x100006CA4, symSize: 0xE4 }
  - { offsetInCU: 0x58676, offset: 0x58676, size: 0x8, addend: 0x0, symName: __ZNK5boost10wrapexceptINS_6system12system_errorEE7rethrowEv, symObjAddr: 0x3D90, symBinAddr: 0x100006D88, symSize: 0x6C }
  - { offsetInCU: 0x5869C, offset: 0x5869C, size: 0x8, addend: 0x0, symName: __ZN5boost10wrapexceptINS_6system12system_errorEED0Ev, symObjAddr: 0x3DFC, symBinAddr: 0x100006DF4, symSize: 0x30 }
  - { offsetInCU: 0x586C8, offset: 0x586C8, size: 0x8, addend: 0x0, symName: __ZThn8_N5boost10wrapexceptINS_6system12system_errorEED1Ev, symObjAddr: 0x3E2C, symBinAddr: 0x100006E24, symSize: 0x1C }
  - { offsetInCU: 0x586DE, offset: 0x586DE, size: 0x8, addend: 0x0, symName: __ZThn8_N5boost10wrapexceptINS_6system12system_errorEED0Ev, symObjAddr: 0x3E48, symBinAddr: 0x100006E40, symSize: 0x18 }
  - { offsetInCU: 0x586F4, offset: 0x586F4, size: 0x8, addend: 0x0, symName: __ZThn48_N5boost10wrapexceptINS_6system12system_errorEED1Ev, symObjAddr: 0x3E60, symBinAddr: 0x100006E58, symSize: 0x1C }
  - { offsetInCU: 0x5870A, offset: 0x5870A, size: 0x8, addend: 0x0, symName: __ZThn48_N5boost10wrapexceptINS_6system12system_errorEED0Ev, symObjAddr: 0x3E7C, symBinAddr: 0x100006E74, symSize: 0x18 }
  - { offsetInCU: 0x58720, offset: 0x58720, size: 0x8, addend: 0x0, symName: __ZN5boost16exception_detail10clone_baseD1Ev, symObjAddr: 0x3E94, symBinAddr: 0x100006E8C, symSize: 0x14 }
  - { offsetInCU: 0x5874A, offset: 0x5874A, size: 0x8, addend: 0x0, symName: __ZN5boost16exception_detail10clone_baseD0Ev, symObjAddr: 0x3EA8, symBinAddr: 0x100006EA0, symSize: 0xC }
  - { offsetInCU: 0x58774, offset: 0x58774, size: 0x8, addend: 0x0, symName: __ZN5boost16exception_detail12refcount_ptrINS0_20error_info_containerEEC1Ev, symObjAddr: 0x3EB4, symBinAddr: 0x100006EAC, symSize: 0x2C }
  - { offsetInCU: 0x5879E, offset: 0x5879E, size: 0x8, addend: 0x0, symName: __ZN5boost16exception_detail12refcount_ptrINS0_20error_info_containerEEC2Ev, symObjAddr: 0x3EE0, symBinAddr: 0x100006ED8, symSize: 0x18 }
  - { offsetInCU: 0x587C8, offset: 0x587C8, size: 0x8, addend: 0x0, symName: __ZN5boost10error_infoINS_11throw_file_EPKcEC2ES3_, symObjAddr: 0x3EF8, symBinAddr: 0x100006EF0, symSize: 0x20 }
  - { offsetInCU: 0x58800, offset: 0x58800, size: 0x8, addend: 0x0, symName: __ZN5boost10error_infoINS_11throw_line_EiEC2Ei, symObjAddr: 0x3F18, symBinAddr: 0x100006F10, symSize: 0x20 }
  - { offsetInCU: 0x58838, offset: 0x58838, size: 0x8, addend: 0x0, symName: __ZN5boost10error_infoINS_15throw_function_EPKcEC2ES3_, symObjAddr: 0x3F38, symBinAddr: 0x100006F30, symSize: 0x20 }
  - { offsetInCU: 0x58870, offset: 0x58870, size: 0x8, addend: 0x0, symName: __ZN5boost10error_infoINS_13throw_column_EiEC2Ei, symObjAddr: 0x3F58, symBinAddr: 0x100006F50, symSize: 0x20 }
  - { offsetInCU: 0x588A8, offset: 0x588A8, size: 0x8, addend: 0x0, symName: __ZN5boost16exception_detail12refcount_ptrINS0_20error_info_containerEED1Ev, symObjAddr: 0x3F78, symBinAddr: 0x100006F70, symSize: 0x2C }
  - { offsetInCU: 0x588D2, offset: 0x588D2, size: 0x8, addend: 0x0, symName: __ZN5boost16exception_detail12refcount_ptrINS0_20error_info_containerEED2Ev, symObjAddr: 0x3FA4, symBinAddr: 0x100006F9C, symSize: 0x34 }
  - { offsetInCU: 0x588FC, offset: 0x588FC, size: 0x8, addend: 0x0, symName: __ZN5boost16exception_detail12refcount_ptrINS0_20error_info_containerEE7releaseEv, symObjAddr: 0x3FD8, symBinAddr: 0x100006FD0, symSize: 0x60 }
  - { offsetInCU: 0x58928, offset: 0x58928, size: 0x8, addend: 0x0, symName: __ZN5boost10wrapexceptINS_6system12system_errorEEC1ERKS3_, symObjAddr: 0x4038, symBinAddr: 0x100007030, symSize: 0x34 }
  - { offsetInCU: 0x58969, offset: 0x58969, size: 0x8, addend: 0x0, symName: __ZN5boost10wrapexceptINS_6system12system_errorEE7deleterD1Ev, symObjAddr: 0x4190, symBinAddr: 0x100007188, symSize: 0x2C }
  - { offsetInCU: 0x58993, offset: 0x58993, size: 0x8, addend: 0x0, symName: __ZN5boost10wrapexceptINS_6system12system_errorEEC2ERKS3_, symObjAddr: 0x41BC, symBinAddr: 0x1000071B4, symSize: 0xC4 }
  - { offsetInCU: 0x589CE, offset: 0x589CE, size: 0x8, addend: 0x0, symName: __ZN5boost16exception_detail10clone_baseC2ERKS1_, symObjAddr: 0x4280, symBinAddr: 0x100007278, symSize: 0x28 }
  - { offsetInCU: 0x58A0A, offset: 0x58A0A, size: 0x8, addend: 0x0, symName: __ZN5boost9exceptionC2ERKS0_, symObjAddr: 0x42A8, symBinAddr: 0x1000072A0, symSize: 0x60 }
  - { offsetInCU: 0x58A3F, offset: 0x58A3F, size: 0x8, addend: 0x0, symName: __ZN5boost16exception_detail12refcount_ptrINS0_20error_info_containerEEC1ERKS3_, symObjAddr: 0x4308, symBinAddr: 0x100007300, symSize: 0x34 }
  - { offsetInCU: 0x58A77, offset: 0x58A77, size: 0x8, addend: 0x0, symName: __ZN5boost16exception_detail12refcount_ptrINS0_20error_info_containerEEC2ERKS3_, symObjAddr: 0x433C, symBinAddr: 0x100007334, symSize: 0x3C }
  - { offsetInCU: 0x58AAF, offset: 0x58AAF, size: 0x8, addend: 0x0, symName: __ZN5boost16exception_detail12refcount_ptrINS0_20error_info_containerEE7add_refEv, symObjAddr: 0x4378, symBinAddr: 0x100007370, symSize: 0x50 }
  - { offsetInCU: 0x58AD5, offset: 0x58AD5, size: 0x8, addend: 0x0, symName: __ZNK5boost16exception_detail12refcount_ptrINS0_20error_info_containerEE3getEv, symObjAddr: 0x43C8, symBinAddr: 0x1000073C0, symSize: 0x18 }
  - { offsetInCU: 0x58AFB, offset: 0x58AFB, size: 0x8, addend: 0x0, symName: __ZN5boost16exception_detail12refcount_ptrINS0_20error_info_containerEEaSERKS3_, symObjAddr: 0x43E0, symBinAddr: 0x1000073D8, symSize: 0x38 }
  - { offsetInCU: 0x58B2F, offset: 0x58B2F, size: 0x8, addend: 0x0, symName: __ZN5boost16exception_detail12refcount_ptrINS0_20error_info_containerEE5adoptEPS2_, symObjAddr: 0x4418, symBinAddr: 0x100007410, symSize: 0x3C }
  - { offsetInCU: 0x58B63, offset: 0x58B63, size: 0x8, addend: 0x0, symName: __ZN5boost10wrapexceptINS_6system12system_errorEE7deleterD2Ev, symObjAddr: 0x4454, symBinAddr: 0x10000744C, symSize: 0x58 }
  - { offsetInCU: 0x58B8D, offset: 0x58B8D, size: 0x8, addend: 0x0, symName: __ZN5boost10wrapexceptINS_6system12system_errorEED2Ev, symObjAddr: 0x44AC, symBinAddr: 0x1000074A4, symSize: 0x44 }
  - { offsetInCU: 0x58BB9, offset: 0x58BB9, size: 0x8, addend: 0x0, symName: __ZN5boost15source_locationC2EPKcjS2_j, symObjAddr: 0x44F0, symBinAddr: 0x1000074E8, symSize: 0x44 }
  - { offsetInCU: 0x58C1B, offset: 0x58C1B, size: 0x8, addend: 0x0, symName: __ZN5boost4asio6detail10scoped_ptrINS1_9schedulerEEC1EPS3_, symObjAddr: 0x4534, symBinAddr: 0x10000752C, symSize: 0x34 }
  - { offsetInCU: 0x58C53, offset: 0x58C53, size: 0x8, addend: 0x0, symName: __ZN5boost4asio6detail10scoped_ptrINS1_9schedulerEE3getEv, symObjAddr: 0x4598, symBinAddr: 0x100007590, symSize: 0x18 }
  - { offsetInCU: 0x58C79, offset: 0x58C79, size: 0x8, addend: 0x0, symName: __ZN5boost4asio6detail10scoped_ptrINS1_9schedulerEE7releaseEv, symObjAddr: 0x45B0, symBinAddr: 0x1000075A8, symSize: 0x24 }
  - { offsetInCU: 0x58CAD, offset: 0x58CAD, size: 0x8, addend: 0x0, symName: __ZN5boost4asio6detail10scoped_ptrINS1_9schedulerEED1Ev, symObjAddr: 0x45D4, symBinAddr: 0x1000075CC, symSize: 0x2C }
  - { offsetInCU: 0x58CD7, offset: 0x58CD7, size: 0x8, addend: 0x0, symName: __ZN5boost4asio6detail10scoped_ptrINS1_9schedulerEEC2EPS3_, symObjAddr: 0x4600, symBinAddr: 0x1000075F8, symSize: 0x20 }
  - { offsetInCU: 0x58D0F, offset: 0x58D0F, size: 0x8, addend: 0x0, symName: __ZN5boost4asio6detail16service_registry11add_serviceINS1_9schedulerEEEvPT_, symObjAddr: 0x4620, symBinAddr: 0x100007618, symSize: 0x54 }
  - { offsetInCU: 0x58D5C, offset: 0x58D5C, size: 0x8, addend: 0x0, symName: __ZN5boost4asio17execution_context7service3keyC1Ev, symObjAddr: 0x4674, symBinAddr: 0x10000766C, symSize: 0x2C }
  - { offsetInCU: 0x58D86, offset: 0x58D86, size: 0x8, addend: 0x0, symName: __ZN5boost4asio6detail16service_registry8init_keyINS1_9schedulerEEEvRNS0_17execution_context7service3keyEz, symObjAddr: 0x46A0, symBinAddr: 0x100007698, symSize: 0x2C }
  - { offsetInCU: 0x58DB6, offset: 0x58DB6, size: 0x8, addend: 0x0, symName: __ZN5boost4asio6detail16service_registry14do_add_serviceERKNS0_17execution_context7service3keyEPS4_, symObjAddr: 0x46CC, symBinAddr: 0x1000076C4, symSize: 0x174 }
  - { offsetInCU: 0x58E1B, offset: 0x58E1B, size: 0x8, addend: 0x0, symName: __ZN5boost4asio17execution_context7service3keyC2Ev, symObjAddr: 0x4840, symBinAddr: 0x100007838, symSize: 0x1C }
  - { offsetInCU: 0x58E51, offset: 0x58E51, size: 0x8, addend: 0x0, symName: __ZN5boost4asio6detail16service_registry16init_key_from_idINS1_9schedulerEEEvRNS0_17execution_context7service3keyERKNS1_10service_idIT_EE, symObjAddr: 0x485C, symBinAddr: 0x100007854, symSize: 0x2C }
  - { offsetInCU: 0x58E8A, offset: 0x58E8A, size: 0x8, addend: 0x0, symName: __ZN5boost4asio17execution_context7service7contextEv, symObjAddr: 0x4888, symBinAddr: 0x100007880, symSize: 0x18 }
  - { offsetInCU: 0x58EB3, offset: 0x58EB3, size: 0x8, addend: 0x0, symName: __ZN5boost4asio21invalid_service_ownerC1Ev, symObjAddr: 0x490C, symBinAddr: 0x100007904, symSize: 0x2C }
  - { offsetInCU: 0x58EDF, offset: 0x58EDF, size: 0x8, addend: 0x0, symName: __ZN5boost4asio21invalid_service_ownerD1Ev, symObjAddr: 0x4938, symBinAddr: 0x100007930, symSize: 0x2C }
  - { offsetInCU: 0x58F0C, offset: 0x58F0C, size: 0x8, addend: 0x0, symName: __ZN5boost4asio6detail11scoped_lockINS1_11posix_mutexEEC1ERS3_, symObjAddr: 0x4964, symBinAddr: 0x10000795C, symSize: 0x34 }
  - { offsetInCU: 0x58F44, offset: 0x58F44, size: 0x8, addend: 0x0, symName: __ZN5boost4asio6detail16service_registry10keys_matchERKNS0_17execution_context7service3keyES7_, symObjAddr: 0x4998, symBinAddr: 0x100007990, symSize: 0x108 }
  - { offsetInCU: 0x58F7A, offset: 0x58F7A, size: 0x8, addend: 0x0, symName: __ZN5boost4asio22service_already_existsC1Ev, symObjAddr: 0x4B0C, symBinAddr: 0x100007B04, symSize: 0x2C }
  - { offsetInCU: 0x58FA6, offset: 0x58FA6, size: 0x8, addend: 0x0, symName: __ZN5boost4asio22service_already_existsD1Ev, symObjAddr: 0x4B38, symBinAddr: 0x100007B30, symSize: 0x2C }
  - { offsetInCU: 0x58FD3, offset: 0x58FD3, size: 0x8, addend: 0x0, symName: __ZN5boost4asio6detail11scoped_lockINS1_11posix_mutexEED1Ev, symObjAddr: 0x4B64, symBinAddr: 0x100007B5C, symSize: 0x2C }
  - { offsetInCU: 0x58FFD, offset: 0x58FFD, size: 0x8, addend: 0x0, symName: __ZN5boost10wrapexceptINS_4asio21invalid_service_ownerEEC1ERKS2_, symObjAddr: 0x4B90, symBinAddr: 0x100007B88, symSize: 0x34 }
  - { offsetInCU: 0x59035, offset: 0x59035, size: 0x8, addend: 0x0, symName: __ZN5boost10wrapexceptINS_4asio21invalid_service_ownerEED1Ev, symObjAddr: 0x4BC4, symBinAddr: 0x100007BBC, symSize: 0x2C }
  - { offsetInCU: 0x59061, offset: 0x59061, size: 0x8, addend: 0x0, symName: __ZN5boost10wrapexceptINS_4asio21invalid_service_ownerEEC2ERKS2_, symObjAddr: 0x4BF0, symBinAddr: 0x100007BE8, symSize: 0xE4 }
  - { offsetInCU: 0x59099, offset: 0x59099, size: 0x8, addend: 0x0, symName: __ZN5boost4asio21invalid_service_ownerC2ERKS1_, symObjAddr: 0x4CD4, symBinAddr: 0x100007CCC, symSize: 0x4C }
  - { offsetInCU: 0x590CF, offset: 0x590CF, size: 0x8, addend: 0x0, symName: __ZN5boost10wrapexceptINS_4asio21invalid_service_ownerEE9copy_fromEPKv, symObjAddr: 0x4D20, symBinAddr: 0x100007D18, symSize: 0x14 }
  - { offsetInCU: 0x590FF, offset: 0x590FF, size: 0x8, addend: 0x0, symName: __ZN5boost4asio21invalid_service_ownerD2Ev, symObjAddr: 0x4D34, symBinAddr: 0x100007D2C, symSize: 0x2C }
  - { offsetInCU: 0x5912C, offset: 0x5912C, size: 0x8, addend: 0x0, symName: __ZNK5boost10wrapexceptINS_4asio21invalid_service_ownerEE5cloneEv, symObjAddr: 0x4D60, symBinAddr: 0x100007D58, symSize: 0xE4 }
  - { offsetInCU: 0x5916E, offset: 0x5916E, size: 0x8, addend: 0x0, symName: __ZNK5boost10wrapexceptINS_4asio21invalid_service_ownerEE7rethrowEv, symObjAddr: 0x4E44, symBinAddr: 0x100007E3C, symSize: 0x6C }
  - { offsetInCU: 0x59194, offset: 0x59194, size: 0x8, addend: 0x0, symName: __ZN5boost10wrapexceptINS_4asio21invalid_service_ownerEED0Ev, symObjAddr: 0x4EB0, symBinAddr: 0x100007EA8, symSize: 0x30 }
  - { offsetInCU: 0x591C0, offset: 0x591C0, size: 0x8, addend: 0x0, symName: __ZThn8_N5boost10wrapexceptINS_4asio21invalid_service_ownerEED1Ev, symObjAddr: 0x4EE0, symBinAddr: 0x100007ED8, symSize: 0x1C }
  - { offsetInCU: 0x591D6, offset: 0x591D6, size: 0x8, addend: 0x0, symName: __ZThn8_N5boost10wrapexceptINS_4asio21invalid_service_ownerEED0Ev, symObjAddr: 0x4EFC, symBinAddr: 0x100007EF4, symSize: 0x18 }
  - { offsetInCU: 0x591EC, offset: 0x591EC, size: 0x8, addend: 0x0, symName: __ZThn24_N5boost10wrapexceptINS_4asio21invalid_service_ownerEED1Ev, symObjAddr: 0x4F14, symBinAddr: 0x100007F0C, symSize: 0x1C }
  - { offsetInCU: 0x59202, offset: 0x59202, size: 0x8, addend: 0x0, symName: __ZThn24_N5boost10wrapexceptINS_4asio21invalid_service_ownerEED0Ev, symObjAddr: 0x4F30, symBinAddr: 0x100007F28, symSize: 0x18 }
  - { offsetInCU: 0x59218, offset: 0x59218, size: 0x8, addend: 0x0, symName: __ZN5boost4asio21invalid_service_ownerD0Ev, symObjAddr: 0x4F48, symBinAddr: 0x100007F40, symSize: 0x30 }
  - { offsetInCU: 0x5924B, offset: 0x5924B, size: 0x8, addend: 0x0, symName: __ZN5boost10wrapexceptINS_4asio21invalid_service_ownerEEC1ERKS3_, symObjAddr: 0x4F78, symBinAddr: 0x100007F70, symSize: 0x34 }
  - { offsetInCU: 0x5928C, offset: 0x5928C, size: 0x8, addend: 0x0, symName: __ZN5boost10wrapexceptINS_4asio21invalid_service_ownerEE7deleterD1Ev, symObjAddr: 0x4FAC, symBinAddr: 0x100007FA4, symSize: 0x2C }
  - { offsetInCU: 0x592B6, offset: 0x592B6, size: 0x8, addend: 0x0, symName: __ZN5boost10wrapexceptINS_4asio21invalid_service_ownerEEC2ERKS3_, symObjAddr: 0x4FD8, symBinAddr: 0x100007FD0, symSize: 0xC4 }
  - { offsetInCU: 0x592EB, offset: 0x592EB, size: 0x8, addend: 0x0, symName: __ZN5boost10wrapexceptINS_4asio21invalid_service_ownerEE7deleterD2Ev, symObjAddr: 0x509C, symBinAddr: 0x100008094, symSize: 0x58 }
  - { offsetInCU: 0x59315, offset: 0x59315, size: 0x8, addend: 0x0, symName: __ZN5boost10wrapexceptINS_4asio21invalid_service_ownerEED2Ev, symObjAddr: 0x50F4, symBinAddr: 0x1000080EC, symSize: 0x44 }
  - { offsetInCU: 0x59341, offset: 0x59341, size: 0x8, addend: 0x0, symName: __ZN5boost4asio21invalid_service_ownerC2Ev, symObjAddr: 0x5138, symBinAddr: 0x100008130, symSize: 0x4C }
  - { offsetInCU: 0x5936D, offset: 0x5936D, size: 0x8, addend: 0x0, symName: __ZN5boost4asio6detail11scoped_lockINS1_11posix_mutexEEC2ERS3_, symObjAddr: 0x5184, symBinAddr: 0x10000817C, symSize: 0x74 }
  - { offsetInCU: 0x593A5, offset: 0x593A5, size: 0x8, addend: 0x0, symName: __ZN5boost4asio6detail11posix_mutex4lockEv, symObjAddr: 0x51F8, symBinAddr: 0x1000081F0, symSize: 0x24 }
  - { offsetInCU: 0x59401, offset: 0x59401, size: 0x8, addend: 0x0, symName: __ZNKSt9type_infoeqB7v160006ERKS_, symObjAddr: 0x521C, symBinAddr: 0x100008214, symSize: 0xDC }
  - { offsetInCU: 0x5949F, offset: 0x5949F, size: 0x8, addend: 0x0, symName: __ZNSt27__type_info_implementations30__non_unique_arm_rtti_bit_impl21__is_type_name_uniqueB7v160006Em, symObjAddr: 0x52F8, symBinAddr: 0x1000082F0, symSize: 0x20 }
  - { offsetInCU: 0x594C3, offset: 0x594C3, size: 0x8, addend: 0x0, symName: __ZN5boost10wrapexceptINS_4asio22service_already_existsEEC1ERKS2_, symObjAddr: 0x5318, symBinAddr: 0x100008310, symSize: 0x34 }
  - { offsetInCU: 0x594FB, offset: 0x594FB, size: 0x8, addend: 0x0, symName: __ZN5boost10wrapexceptINS_4asio22service_already_existsEED1Ev, symObjAddr: 0x534C, symBinAddr: 0x100008344, symSize: 0x2C }
  - { offsetInCU: 0x59527, offset: 0x59527, size: 0x8, addend: 0x0, symName: __ZN5boost10wrapexceptINS_4asio22service_already_existsEEC2ERKS2_, symObjAddr: 0x5378, symBinAddr: 0x100008370, symSize: 0xE4 }
  - { offsetInCU: 0x5955F, offset: 0x5955F, size: 0x8, addend: 0x0, symName: __ZN5boost4asio22service_already_existsC2ERKS1_, symObjAddr: 0x545C, symBinAddr: 0x100008454, symSize: 0x4C }
  - { offsetInCU: 0x59595, offset: 0x59595, size: 0x8, addend: 0x0, symName: __ZN5boost10wrapexceptINS_4asio22service_already_existsEE9copy_fromEPKv, symObjAddr: 0x54A8, symBinAddr: 0x1000084A0, symSize: 0x14 }
  - { offsetInCU: 0x595C5, offset: 0x595C5, size: 0x8, addend: 0x0, symName: __ZN5boost4asio22service_already_existsD2Ev, symObjAddr: 0x54BC, symBinAddr: 0x1000084B4, symSize: 0x2C }
  - { offsetInCU: 0x595F2, offset: 0x595F2, size: 0x8, addend: 0x0, symName: __ZNK5boost10wrapexceptINS_4asio22service_already_existsEE5cloneEv, symObjAddr: 0x54E8, symBinAddr: 0x1000084E0, symSize: 0xE4 }
  - { offsetInCU: 0x59634, offset: 0x59634, size: 0x8, addend: 0x0, symName: __ZNK5boost10wrapexceptINS_4asio22service_already_existsEE7rethrowEv, symObjAddr: 0x55CC, symBinAddr: 0x1000085C4, symSize: 0x6C }
  - { offsetInCU: 0x5965A, offset: 0x5965A, size: 0x8, addend: 0x0, symName: __ZN5boost10wrapexceptINS_4asio22service_already_existsEED0Ev, symObjAddr: 0x5638, symBinAddr: 0x100008630, symSize: 0x30 }
  - { offsetInCU: 0x59686, offset: 0x59686, size: 0x8, addend: 0x0, symName: __ZThn8_N5boost10wrapexceptINS_4asio22service_already_existsEED1Ev, symObjAddr: 0x5668, symBinAddr: 0x100008660, symSize: 0x1C }
  - { offsetInCU: 0x5969C, offset: 0x5969C, size: 0x8, addend: 0x0, symName: __ZThn8_N5boost10wrapexceptINS_4asio22service_already_existsEED0Ev, symObjAddr: 0x5684, symBinAddr: 0x10000867C, symSize: 0x18 }
  - { offsetInCU: 0x596B2, offset: 0x596B2, size: 0x8, addend: 0x0, symName: __ZThn24_N5boost10wrapexceptINS_4asio22service_already_existsEED1Ev, symObjAddr: 0x569C, symBinAddr: 0x100008694, symSize: 0x1C }
  - { offsetInCU: 0x596C8, offset: 0x596C8, size: 0x8, addend: 0x0, symName: __ZThn24_N5boost10wrapexceptINS_4asio22service_already_existsEED0Ev, symObjAddr: 0x56B8, symBinAddr: 0x1000086B0, symSize: 0x18 }
  - { offsetInCU: 0x596DE, offset: 0x596DE, size: 0x8, addend: 0x0, symName: __ZN5boost4asio22service_already_existsD0Ev, symObjAddr: 0x56D0, symBinAddr: 0x1000086C8, symSize: 0x30 }
  - { offsetInCU: 0x59711, offset: 0x59711, size: 0x8, addend: 0x0, symName: __ZN5boost10wrapexceptINS_4asio22service_already_existsEEC1ERKS3_, symObjAddr: 0x5700, symBinAddr: 0x1000086F8, symSize: 0x34 }
  - { offsetInCU: 0x59752, offset: 0x59752, size: 0x8, addend: 0x0, symName: __ZN5boost10wrapexceptINS_4asio22service_already_existsEE7deleterD1Ev, symObjAddr: 0x5734, symBinAddr: 0x10000872C, symSize: 0x2C }
  - { offsetInCU: 0x5977C, offset: 0x5977C, size: 0x8, addend: 0x0, symName: __ZN5boost10wrapexceptINS_4asio22service_already_existsEEC2ERKS3_, symObjAddr: 0x5760, symBinAddr: 0x100008758, symSize: 0xC4 }
  - { offsetInCU: 0x597B1, offset: 0x597B1, size: 0x8, addend: 0x0, symName: __ZN5boost10wrapexceptINS_4asio22service_already_existsEE7deleterD2Ev, symObjAddr: 0x5824, symBinAddr: 0x10000881C, symSize: 0x58 }
  - { offsetInCU: 0x597DB, offset: 0x597DB, size: 0x8, addend: 0x0, symName: __ZN5boost10wrapexceptINS_4asio22service_already_existsEED2Ev, symObjAddr: 0x587C, symBinAddr: 0x100008874, symSize: 0x44 }
  - { offsetInCU: 0x59807, offset: 0x59807, size: 0x8, addend: 0x0, symName: __ZN5boost4asio22service_already_existsC2Ev, symObjAddr: 0x58C0, symBinAddr: 0x1000088B8, symSize: 0x4C }
  - { offsetInCU: 0x59833, offset: 0x59833, size: 0x8, addend: 0x0, symName: __ZN5boost4asio6detail11scoped_lockINS1_11posix_mutexEED2Ev, symObjAddr: 0x590C, symBinAddr: 0x100008904, symSize: 0x5C }
  - { offsetInCU: 0x5985D, offset: 0x5985D, size: 0x8, addend: 0x0, symName: __ZN5boost4asio6detail11posix_mutex6unlockEv, symObjAddr: 0x5968, symBinAddr: 0x100008960, symSize: 0x24 }
  - { offsetInCU: 0x59883, offset: 0x59883, size: 0x8, addend: 0x0, symName: __ZN5boost4asio6detail10scoped_ptrINS1_9schedulerEED2Ev, symObjAddr: 0x598C, symBinAddr: 0x100008984, symSize: 0x58 }
  - { offsetInCU: 0x598B3, offset: 0x598B3, size: 0x8, addend: 0x0, symName: __ZN5boost4asio6detail16service_registry11use_serviceINS1_14kqueue_reactorEEERT_v, symObjAddr: 0x5A0C, symBinAddr: 0x100008A04, symSize: 0x60 }
  - { offsetInCU: 0x59900, offset: 0x59900, size: 0x8, addend: 0x0, symName: __ZN5boost4asio6detail16service_registry8init_keyINS1_14kqueue_reactorEEEvRNS0_17execution_context7service3keyEz, symObjAddr: 0x5A6C, symBinAddr: 0x100008A64, symSize: 0x2C }
  - { offsetInCU: 0x59930, offset: 0x59930, size: 0x8, addend: 0x0, symName: __ZN5boost4asio6detail16service_registry6createINS1_14kqueue_reactorENS0_17execution_contextEEEPNS5_7serviceEPv, symObjAddr: 0x5A98, symBinAddr: 0x100008A90, symSize: 0x5C }
  - { offsetInCU: 0x59968, offset: 0x59968, size: 0x8, addend: 0x0, symName: __ZN5boost4asio6detail16service_registry14do_use_serviceERKNS0_17execution_context7service3keyEPFPS4_PvES9_, symObjAddr: 0x5AF4, symBinAddr: 0x100008AEC, symSize: 0x1C4 }
  - { offsetInCU: 0x599F7, offset: 0x599F7, size: 0x8, addend: 0x0, symName: __ZN5boost4asio6detail16service_registry16init_key_from_idINS1_14kqueue_reactorEEEvRNS0_17execution_context7service3keyERKNS1_10service_idIT_EE, symObjAddr: 0x5CB8, symBinAddr: 0x100008CB0, symSize: 0x2C }
  - { offsetInCU: 0x59A30, offset: 0x59A30, size: 0x8, addend: 0x0, symName: __ZN5boost4asio6detail14kqueue_reactorC1ERNS0_17execution_contextE, symObjAddr: 0x5CE4, symBinAddr: 0x100008CDC, symSize: 0x34 }
  - { offsetInCU: 0x59A6A, offset: 0x59A6A, size: 0x8, addend: 0x0, symName: __ZN5boost4asio6detail14kqueue_reactorC2ERNS0_17execution_contextE, symObjAddr: 0x5D18, symBinAddr: 0x100008D10, symSize: 0x350 }
  - { offsetInCU: 0x59AEE, offset: 0x59AEE, size: 0x8, addend: 0x0, symName: __ZN5boost4asio6detail30execution_context_service_baseINS1_14kqueue_reactorEEC2ERNS0_17execution_contextE, symObjAddr: 0x6068, symBinAddr: 0x100009060, symSize: 0x4C }
  - { offsetInCU: 0x59B27, offset: 0x59B27, size: 0x8, addend: 0x0, symName: __ZN5boost4asio6detail14scheduler_taskC2Ev, symObjAddr: 0x60B4, symBinAddr: 0x1000090AC, symSize: 0x24 }
  - { offsetInCU: 0x59B53, offset: 0x59B53, size: 0x8, addend: 0x0, symName: __ZNK5boost4asio6detail9scheduler16concurrency_hintEv, symObjAddr: 0x6100, symBinAddr: 0x1000090F8, symSize: 0x18 }
  - { offsetInCU: 0x59B79, offset: 0x59B79, size: 0x8, addend: 0x0, symName: __ZN5boost4asio6detail27conditionally_enabled_mutexC1Eb, symObjAddr: 0x6118, symBinAddr: 0x100009110, symSize: 0x40 }
  - { offsetInCU: 0x59BB1, offset: 0x59BB1, size: 0x8, addend: 0x0, symName: __ZN5boost4asio6detail14kqueue_reactor16do_kqueue_createEv, symObjAddr: 0x6158, symBinAddr: 0x100009150, symSize: 0x98 }
  - { offsetInCU: 0x59BF5, offset: 0x59BF5, size: 0x8, addend: 0x0, symName: __ZN5boost4asio6detail23pipe_select_interrupterC1Ev, symObjAddr: 0x61F0, symBinAddr: 0x1000091E8, symSize: 0x2C }
  - { offsetInCU: 0x59C21, offset: 0x59C21, size: 0x8, addend: 0x0, symName: __ZN5boost4asio6detail15timer_queue_setC1Ev, symObjAddr: 0x621C, symBinAddr: 0x100009214, symSize: 0x2C }
  - { offsetInCU: 0x59C4E, offset: 0x59C4E, size: 0x8, addend: 0x0, symName: __ZNK5boost4asio6detail27conditionally_enabled_mutex7enabledEv, symObjAddr: 0x6248, symBinAddr: 0x100009240, symSize: 0x1C }
  - { offsetInCU: 0x59C74, offset: 0x59C74, size: 0x8, addend: 0x0, symName: __ZN5boost4asio6detail11object_poolINS1_14kqueue_reactor16descriptor_stateEEC1Ev, symObjAddr: 0x6264, symBinAddr: 0x10000925C, symSize: 0x2C }
  - { offsetInCU: 0x59C9E, offset: 0x59C9E, size: 0x8, addend: 0x0, symName: __ZNK5boost4asio6detail23pipe_select_interrupter15read_descriptorEv, symObjAddr: 0x6290, symBinAddr: 0x100009288, symSize: 0x18 }
  - { offsetInCU: 0x59CC4, offset: 0x59CC4, size: 0x8, addend: 0x0, symName: __ZN5boost4asio6detail11object_poolINS1_14kqueue_reactor16descriptor_stateEED1Ev, symObjAddr: 0x62E8, symBinAddr: 0x1000092E0, symSize: 0x2C }
  - { offsetInCU: 0x59CEE, offset: 0x59CEE, size: 0x8, addend: 0x0, symName: __ZN5boost4asio6detail27conditionally_enabled_mutexD1Ev, symObjAddr: 0x6314, symBinAddr: 0x10000930C, symSize: 0x2C }
  - { offsetInCU: 0x59D18, offset: 0x59D18, size: 0x8, addend: 0x0, symName: __ZN5boost4asio6detail23pipe_select_interrupterD1Ev, symObjAddr: 0x6340, symBinAddr: 0x100009338, symSize: 0x2C }
  - { offsetInCU: 0x59D44, offset: 0x59D44, size: 0x8, addend: 0x0, symName: __ZN5boost4asio6detail14scheduler_taskD2Ev, symObjAddr: 0x636C, symBinAddr: 0x100009364, symSize: 0x14 }
  - { offsetInCU: 0x59D6E, offset: 0x59D6E, size: 0x8, addend: 0x0, symName: __ZN5boost4asio6detail30execution_context_service_baseINS1_14kqueue_reactorEED2Ev, symObjAddr: 0x6380, symBinAddr: 0x100009378, symSize: 0x2C }
  - { offsetInCU: 0x59D9B, offset: 0x59D9B, size: 0x8, addend: 0x0, symName: __ZN5boost4asio6detail14kqueue_reactorD1Ev, symObjAddr: 0x63AC, symBinAddr: 0x1000093A4, symSize: 0x2C }
  - { offsetInCU: 0x59DC7, offset: 0x59DC7, size: 0x8, addend: 0x0, symName: __ZN5boost4asio6detail14kqueue_reactorD0Ev, symObjAddr: 0x63D8, symBinAddr: 0x1000093D0, symSize: 0x30 }
  - { offsetInCU: 0x59DF3, offset: 0x59DF3, size: 0x8, addend: 0x0, symName: __ZN5boost4asio6detail14kqueue_reactor8shutdownEv, symObjAddr: 0x6408, symBinAddr: 0x100009400, symSize: 0x170 }
  - { offsetInCU: 0x59E61, offset: 0x59E61, size: 0x8, addend: 0x0, symName: __ZN5boost4asio6detail14kqueue_reactor11notify_forkENS0_17execution_context10fork_eventE, symObjAddr: 0x6578, symBinAddr: 0x100009570, symSize: 0x384 }
  - { offsetInCU: 0x59F65, offset: 0x59F65, size: 0x8, addend: 0x0, symName: __ZN5boost4asio6detail14kqueue_reactor9interruptEv, symObjAddr: 0x6DB8, symBinAddr: 0x100009DB0, symSize: 0x28 }
  - { offsetInCU: 0x59F8E, offset: 0x59F8E, size: 0x8, addend: 0x0, symName: __ZThn40_N5boost4asio6detail14kqueue_reactor3runElRNS1_8op_queueINS1_19scheduler_operationEEE, symObjAddr: 0x6DE0, symBinAddr: 0x100009DD8, symSize: 0x28 }
  - { offsetInCU: 0x59FA5, offset: 0x59FA5, size: 0x8, addend: 0x0, symName: __ZThn40_N5boost4asio6detail14kqueue_reactor9interruptEv, symObjAddr: 0x6E08, symBinAddr: 0x100009E00, symSize: 0x18 }
  - { offsetInCU: 0x59FBC, offset: 0x59FBC, size: 0x8, addend: 0x0, symName: __ZN5boost4asio17execution_context7serviceC2ERS1_, symObjAddr: 0x6E20, symBinAddr: 0x100009E18, symSize: 0x88 }
  - { offsetInCU: 0x59FF6, offset: 0x59FF6, size: 0x8, addend: 0x0, symName: __ZN5boost4asio6detail30execution_context_service_baseINS1_14kqueue_reactorEED1Ev, symObjAddr: 0x6EA8, symBinAddr: 0x100009EA0, symSize: 0x14 }
  - { offsetInCU: 0x5A023, offset: 0x5A023, size: 0x8, addend: 0x0, symName: __ZN5boost4asio6detail30execution_context_service_baseINS1_14kqueue_reactorEED0Ev, symObjAddr: 0x6EBC, symBinAddr: 0x100009EB4, symSize: 0xC }
  - { offsetInCU: 0x5A050, offset: 0x5A050, size: 0x8, addend: 0x0, symName: __ZN5boost4asio17execution_context7service11notify_forkENS1_10fork_eventE, symObjAddr: 0x6EC8, symBinAddr: 0x100009EC0, symSize: 0x14 }
  - { offsetInCU: 0x5A082, offset: 0x5A082, size: 0x8, addend: 0x0, symName: __ZN5boost4asio17execution_context7serviceD1Ev, symObjAddr: 0x6EDC, symBinAddr: 0x100009ED4, symSize: 0x14 }
  - { offsetInCU: 0x5A0AE, offset: 0x5A0AE, size: 0x8, addend: 0x0, symName: __ZN5boost4asio17execution_context7serviceD0Ev, symObjAddr: 0x6EF0, symBinAddr: 0x100009EE8, symSize: 0xC }
  - { offsetInCU: 0x5A0DA, offset: 0x5A0DA, size: 0x8, addend: 0x0, symName: __ZN5boost4asio6detail16service_registry11use_serviceINS1_9schedulerEEERT_v, symObjAddr: 0x6EFC, symBinAddr: 0x100009EF4, symSize: 0x60 }
  - { offsetInCU: 0x5A127, offset: 0x5A127, size: 0x8, addend: 0x0, symName: __ZN5boost4asio6detail16service_registry6createINS1_9schedulerENS0_17execution_contextEEEPNS5_7serviceEPv, symObjAddr: 0x6F5C, symBinAddr: 0x100009F54, symSize: 0x70 }
  - { offsetInCU: 0x5A15F, offset: 0x5A15F, size: 0x8, addend: 0x0, symName: __ZN5boost4asio6detail27conditionally_enabled_mutexC2Eb, symObjAddr: 0x6FCC, symBinAddr: 0x100009FC4, symSize: 0x74 }
  - { offsetInCU: 0x5A197, offset: 0x5A197, size: 0x8, addend: 0x0, symName: __ZN5boost4asio6detail23pipe_select_interrupterC2Ev, symObjAddr: 0x7040, symBinAddr: 0x10000A038, symSize: 0x2C }
  - { offsetInCU: 0x5A1C3, offset: 0x5A1C3, size: 0x8, addend: 0x0, symName: __ZN5boost4asio6detail23pipe_select_interrupter16open_descriptorsEv, symObjAddr: 0x706C, symBinAddr: 0x10000A064, symSize: 0x164 }
  - { offsetInCU: 0x5A215, offset: 0x5A215, size: 0x8, addend: 0x0, symName: __ZN5boost4asio6detail15timer_queue_setC2Ev, symObjAddr: 0x71D0, symBinAddr: 0x10000A1C8, symSize: 0x18 }
  - { offsetInCU: 0x5A242, offset: 0x5A242, size: 0x8, addend: 0x0, symName: __ZN5boost4asio6detail11object_poolINS1_14kqueue_reactor16descriptor_stateEEC2Ev, symObjAddr: 0x71E8, symBinAddr: 0x10000A1E0, symSize: 0x34 }
  - { offsetInCU: 0x5A26C, offset: 0x5A26C, size: 0x8, addend: 0x0, symName: __ZN5boost6system12system_errorC1ERKNS0_10error_codeE, symObjAddr: 0x7274, symBinAddr: 0x10000A26C, symSize: 0x34 }
  - { offsetInCU: 0x5A2A4, offset: 0x5A2A4, size: 0x8, addend: 0x0, symName: __ZN5boost6system12system_errorC2ERKNS0_10error_codeE, symObjAddr: 0x72A8, symBinAddr: 0x10000A2A0, symSize: 0xA0 }
  - { offsetInCU: 0x5A2DC, offset: 0x5A2DC, size: 0x8, addend: 0x0, symName: __ZN5boost4asio6detail11object_poolINS1_14kqueue_reactor16descriptor_stateEED2Ev, symObjAddr: 0x7348, symBinAddr: 0x10000A340, symSize: 0x50 }
  - { offsetInCU: 0x5A306, offset: 0x5A306, size: 0x8, addend: 0x0, symName: __ZN5boost4asio6detail11object_poolINS1_14kqueue_reactor16descriptor_stateEE12destroy_listEPS4_, symObjAddr: 0x7398, symBinAddr: 0x10000A390, symSize: 0x5C }
  - { offsetInCU: 0x5A35C, offset: 0x5A35C, size: 0x8, addend: 0x0, symName: __ZN5boost4asio6detail18object_pool_access4nextINS1_14kqueue_reactor16descriptor_stateEEERPT_S7_, symObjAddr: 0x73F4, symBinAddr: 0x10000A3EC, symSize: 0x14 }
  - { offsetInCU: 0x5A388, offset: 0x5A388, size: 0x8, addend: 0x0, symName: __ZN5boost4asio6detail18object_pool_access7destroyINS1_14kqueue_reactor16descriptor_stateEEEvPT_, symObjAddr: 0x7408, symBinAddr: 0x10000A400, symSize: 0x48 }
  - { offsetInCU: 0x5A3B4, offset: 0x5A3B4, size: 0x8, addend: 0x0, symName: __ZN5boost4asio6detail14kqueue_reactor16descriptor_stateD1Ev, symObjAddr: 0x7450, symBinAddr: 0x10000A448, symSize: 0x2C }
  - { offsetInCU: 0x5A3E0, offset: 0x5A3E0, size: 0x8, addend: 0x0, symName: __ZN5boost4asio6detail14kqueue_reactor16descriptor_stateD2Ev, symObjAddr: 0x747C, symBinAddr: 0x10000A474, symSize: 0x7C }
  - { offsetInCU: 0x5A40C, offset: 0x5A40C, size: 0x8, addend: 0x0, symName: __ZN5boost4asio6detail8op_queueINS1_10reactor_opEED1Ev, symObjAddr: 0x74F8, symBinAddr: 0x10000A4F0, symSize: 0x2C }
  - { offsetInCU: 0x5A436, offset: 0x5A436, size: 0x8, addend: 0x0, symName: __ZN5boost4asio6detail8op_queueINS1_10reactor_opEED2Ev, symObjAddr: 0x7524, symBinAddr: 0x10000A51C, symSize: 0x78 }
  - { offsetInCU: 0x5A475, offset: 0x5A475, size: 0x8, addend: 0x0, symName: __ZN5boost4asio6detail8op_queueINS1_10reactor_opEE3popEv, symObjAddr: 0x759C, symBinAddr: 0x10000A594, symSize: 0x84 }
  - { offsetInCU: 0x5A4B7, offset: 0x5A4B7, size: 0x8, addend: 0x0, symName: __ZN5boost4asio6detail15op_queue_access7destroyINS1_10reactor_opEEEvPT_, symObjAddr: 0x7620, symBinAddr: 0x10000A618, symSize: 0x24 }
  - { offsetInCU: 0x5A4E3, offset: 0x5A4E3, size: 0x8, addend: 0x0, symName: __ZN5boost4asio6detail15op_queue_access4nextINS1_10reactor_opEEEPT_S6_, symObjAddr: 0x7644, symBinAddr: 0x10000A63C, symSize: 0x18 }
  - { offsetInCU: 0x5A515, offset: 0x5A515, size: 0x8, addend: 0x0, symName: __ZN5boost4asio6detail15op_queue_access4nextINS1_10reactor_opES4_EEvRPT_PT0_, symObjAddr: 0x765C, symBinAddr: 0x10000A654, symSize: 0x24 }
  - { offsetInCU: 0x5A558, offset: 0x5A558, size: 0x8, addend: 0x0, symName: __ZN5boost4asio6detail19scheduler_operation7destroyEv, symObjAddr: 0x7680, symBinAddr: 0x10000A678, symSize: 0x50 }
  - { offsetInCU: 0x5A57E, offset: 0x5A57E, size: 0x8, addend: 0x0, symName: __ZN5boost4asio6detail27conditionally_enabled_mutexD2Ev, symObjAddr: 0x76D0, symBinAddr: 0x10000A6C8, symSize: 0x38 }
  - { offsetInCU: 0x5A5A8, offset: 0x5A5A8, size: 0x8, addend: 0x0, symName: __ZN5boost4asio6detail11posix_mutexD1Ev, symObjAddr: 0x7708, symBinAddr: 0x10000A700, symSize: 0x2C }
  - { offsetInCU: 0x5A5D2, offset: 0x5A5D2, size: 0x8, addend: 0x0, symName: __ZN5boost4asio6detail11posix_mutexD2Ev, symObjAddr: 0x7734, symBinAddr: 0x10000A72C, symSize: 0x3C }
  - { offsetInCU: 0x5A5FC, offset: 0x5A5FC, size: 0x8, addend: 0x0, symName: __ZN5boost4asio6detail23pipe_select_interrupterD2Ev, symObjAddr: 0x7770, symBinAddr: 0x10000A768, symSize: 0x34 }
  - { offsetInCU: 0x5A628, offset: 0x5A628, size: 0x8, addend: 0x0, symName: __ZN5boost4asio6detail23pipe_select_interrupter17close_descriptorsEv, symObjAddr: 0x77A4, symBinAddr: 0x10000A79C, symSize: 0x70 }
  - { offsetInCU: 0x5A650, offset: 0x5A650, size: 0x8, addend: 0x0, symName: __ZN5boost4asio17execution_context7serviceD2Ev, symObjAddr: 0x7814, symBinAddr: 0x10000A80C, symSize: 0x2C }
  - { offsetInCU: 0x5A67C, offset: 0x5A67C, size: 0x8, addend: 0x0, symName: __ZN5boost4asio6detail14kqueue_reactorD2Ev, symObjAddr: 0x7840, symBinAddr: 0x10000A838, symSize: 0x94 }
  - { offsetInCU: 0x5A6A8, offset: 0x5A6A8, size: 0x8, addend: 0x0, symName: __ZN5boost4asio6detail27conditionally_enabled_mutex11scoped_lockC1ERS2_, symObjAddr: 0x78D4, symBinAddr: 0x10000A8CC, symSize: 0x34 }
  - { offsetInCU: 0x5A6E0, offset: 0x5A6E0, size: 0x8, addend: 0x0, symName: __ZN5boost4asio6detail27conditionally_enabled_mutex11scoped_lock6unlockEv, symObjAddr: 0x7908, symBinAddr: 0x10000A900, symSize: 0x48 }
  - { offsetInCU: 0x5A706, offset: 0x5A706, size: 0x8, addend: 0x0, symName: __ZN5boost4asio6detail8op_queueINS1_19scheduler_operationEEC1Ev, symObjAddr: 0x7950, symBinAddr: 0x10000A948, symSize: 0x2C }
  - { offsetInCU: 0x5A730, offset: 0x5A730, size: 0x8, addend: 0x0, symName: __ZN5boost4asio6detail11object_poolINS1_14kqueue_reactor16descriptor_stateEE5firstEv, symObjAddr: 0x797C, symBinAddr: 0x10000A974, symSize: 0x18 }
  - { offsetInCU: 0x5A75C, offset: 0x5A75C, size: 0x8, addend: 0x0, symName: __ZN5boost4asio6detail8op_queueINS1_19scheduler_operationEE4pushINS1_10reactor_opEEEvRNS2_IT_EE, symObjAddr: 0x7994, symBinAddr: 0x10000A98C, symSize: 0xB8 }
  - { offsetInCU: 0x5A7AE, offset: 0x5A7AE, size: 0x8, addend: 0x0, symName: __ZN5boost4asio6detail11object_poolINS1_14kqueue_reactor16descriptor_stateEE4freeEPS4_, symObjAddr: 0x7A4C, symBinAddr: 0x10000AA44, symSize: 0x11C }
  - { offsetInCU: 0x5A7E2, offset: 0x5A7E2, size: 0x8, addend: 0x0, symName: __ZN5boost4asio6detail15timer_queue_set14get_all_timersERNS1_8op_queueINS1_19scheduler_operationEEE, symObjAddr: 0x7B68, symBinAddr: 0x10000AB60, symSize: 0x6C }
  - { offsetInCU: 0x5A837, offset: 0x5A837, size: 0x8, addend: 0x0, symName: __ZN5boost4asio6detail9scheduler18abandon_operationsERNS1_8op_queueINS1_19scheduler_operationEEE, symObjAddr: 0x7BD4, symBinAddr: 0x10000ABCC, symSize: 0x64 }
  - { offsetInCU: 0x5A87E, offset: 0x5A87E, size: 0x8, addend: 0x0, symName: __ZN5boost4asio6detail8op_queueINS1_19scheduler_operationEED1Ev, symObjAddr: 0x7C38, symBinAddr: 0x10000AC30, symSize: 0x2C }
  - { offsetInCU: 0x5A8A8, offset: 0x5A8A8, size: 0x8, addend: 0x0, symName: __ZN5boost4asio6detail27conditionally_enabled_mutex11scoped_lockD1Ev, symObjAddr: 0x7C64, symBinAddr: 0x10000AC5C, symSize: 0x2C }
  - { offsetInCU: 0x5A8D2, offset: 0x5A8D2, size: 0x8, addend: 0x0, symName: __ZN5boost4asio6detail27conditionally_enabled_mutex11scoped_lockC2ERS2_, symObjAddr: 0x7C90, symBinAddr: 0x10000AC88, symSize: 0xA8 }
  - { offsetInCU: 0x5A90A, offset: 0x5A90A, size: 0x8, addend: 0x0, symName: __ZN5boost4asio6detail27conditionally_enabled_mutex6unlockEv, symObjAddr: 0x7D38, symBinAddr: 0x10000AD30, symSize: 0x40 }
  - { offsetInCU: 0x5A930, offset: 0x5A930, size: 0x8, addend: 0x0, symName: __ZN5boost4asio6detail8op_queueINS1_19scheduler_operationEEC2Ev, symObjAddr: 0x7D78, symBinAddr: 0x10000AD70, symSize: 0x34 }
  - { offsetInCU: 0x5A95A, offset: 0x5A95A, size: 0x8, addend: 0x0, symName: __ZN5boost4asio6detail15op_queue_access5frontINS1_10reactor_opEEERPT_RNS1_8op_queueIS5_EE, symObjAddr: 0x7DAC, symBinAddr: 0x10000ADA4, symSize: 0x14 }
  - { offsetInCU: 0x5A98C, offset: 0x5A98C, size: 0x8, addend: 0x0, symName: __ZN5boost4asio6detail15op_queue_access4nextINS1_19scheduler_operationES4_EEvRPT_PT0_, symObjAddr: 0x7DC0, symBinAddr: 0x10000ADB8, symSize: 0x24 }
  - { offsetInCU: 0x5A9CF, offset: 0x5A9CF, size: 0x8, addend: 0x0, symName: __ZN5boost4asio6detail15op_queue_access4backINS1_10reactor_opEEERPT_RNS1_8op_queueIS5_EE, symObjAddr: 0x7DE4, symBinAddr: 0x10000ADDC, symSize: 0x18 }
  - { offsetInCU: 0x5A9FB, offset: 0x5A9FB, size: 0x8, addend: 0x0, symName: __ZN5boost4asio6detail18object_pool_access4prevINS1_14kqueue_reactor16descriptor_stateEEERPT_S7_, symObjAddr: 0x7DFC, symBinAddr: 0x10000ADF4, symSize: 0x18 }
  - { offsetInCU: 0x5AA27, offset: 0x5AA27, size: 0x8, addend: 0x0, symName: __ZN5boost4asio6detail8op_queueINS1_19scheduler_operationEE4pushIS3_EEvRNS2_IT_EE, symObjAddr: 0x7E14, symBinAddr: 0x10000AE0C, symSize: 0xB8 }
  - { offsetInCU: 0x5AA79, offset: 0x5AA79, size: 0x8, addend: 0x0, symName: __ZN5boost4asio6detail15op_queue_access5frontINS1_19scheduler_operationEEERPT_RNS1_8op_queueIS5_EE, symObjAddr: 0x7ECC, symBinAddr: 0x10000AEC4, symSize: 0x14 }
  - { offsetInCU: 0x5AAA5, offset: 0x5AAA5, size: 0x8, addend: 0x0, symName: __ZN5boost4asio6detail15op_queue_access4backINS1_19scheduler_operationEEERPT_RNS1_8op_queueIS5_EE, symObjAddr: 0x7EE0, symBinAddr: 0x10000AED8, symSize: 0x18 }
  - { offsetInCU: 0x5AAD1, offset: 0x5AAD1, size: 0x8, addend: 0x0, symName: __ZN5boost4asio6detail8op_queueINS1_19scheduler_operationEED2Ev, symObjAddr: 0x7EF8, symBinAddr: 0x10000AEF0, symSize: 0x78 }
  - { offsetInCU: 0x5AB10, offset: 0x5AB10, size: 0x8, addend: 0x0, symName: __ZN5boost4asio6detail8op_queueINS1_19scheduler_operationEE3popEv, symObjAddr: 0x7F70, symBinAddr: 0x10000AF68, symSize: 0x84 }
  - { offsetInCU: 0x5AB52, offset: 0x5AB52, size: 0x8, addend: 0x0, symName: __ZN5boost4asio6detail15op_queue_access7destroyINS1_19scheduler_operationEEEvPT_, symObjAddr: 0x7FF4, symBinAddr: 0x10000AFEC, symSize: 0x24 }
  - { offsetInCU: 0x5AB7E, offset: 0x5AB7E, size: 0x8, addend: 0x0, symName: __ZN5boost4asio6detail15op_queue_access4nextINS1_19scheduler_operationEEEPT_S6_, symObjAddr: 0x8018, symBinAddr: 0x10000B010, symSize: 0x18 }
  - { offsetInCU: 0x5ABAA, offset: 0x5ABAA, size: 0x8, addend: 0x0, symName: __ZN5boost4asio6detail27conditionally_enabled_mutex11scoped_lockD2Ev, symObjAddr: 0x8030, symBinAddr: 0x10000B028, symSize: 0x60 }
  - { offsetInCU: 0x5ABD4, offset: 0x5ABD4, size: 0x8, addend: 0x0, symName: __ZN5boost4asio6detail23pipe_select_interrupter8recreateEv, symObjAddr: 0x8090, symBinAddr: 0x10000B088, symSize: 0x3C }
  - { offsetInCU: 0x5ABFC, offset: 0x5ABFC, size: 0x8, addend: 0x0, symName: __ZN5boost4asio6detail14kqueue_reactor11get_timeoutElR8timespec, symObjAddr: 0x80CC, symBinAddr: 0x10000B0C4, symSize: 0xD8 }
  - { offsetInCU: 0x5AC52, offset: 0x5AC52, size: 0x8, addend: 0x0, symName: __ZN5boost4asio6detail23pipe_select_interrupter5resetEv, symObjAddr: 0x81A4, symBinAddr: 0x10000B19C, symSize: 0x168 }
  - { offsetInCU: 0x5ACA4, offset: 0x5ACA4, size: 0x8, addend: 0x0, symName: __ZNK5boost4asio6detail8op_queueINS1_10reactor_opEE5emptyEv, symObjAddr: 0x830C, symBinAddr: 0x10000B304, symSize: 0x24 }
  - { offsetInCU: 0x5ACCA, offset: 0x5ACCA, size: 0x8, addend: 0x0, symName: __ZN5boost4asio6detail8op_queueINS1_10reactor_opEE5frontEv, symObjAddr: 0x8330, symBinAddr: 0x10000B328, symSize: 0x18 }
  - { offsetInCU: 0x5ACF0, offset: 0x5ACF0, size: 0x8, addend: 0x0, symName: __ZN5boost4asio6detail8op_queueINS1_19scheduler_operationEE4pushEPS3_, symObjAddr: 0x8348, symBinAddr: 0x10000B340, symSize: 0x80 }
  - { offsetInCU: 0x5AD24, offset: 0x5AD24, size: 0x8, addend: 0x0, symName: __ZN5boost4asio6detail10reactor_op7performEv, symObjAddr: 0x83C8, symBinAddr: 0x10000B3C0, symSize: 0x28 }
  - { offsetInCU: 0x5AD4A, offset: 0x5AD4A, size: 0x8, addend: 0x0, symName: __ZN5boost4asio6detail27conditionally_enabled_mutex11scoped_lock4lockEv, symObjAddr: 0x83F0, symBinAddr: 0x10000B3E8, symSize: 0x64 }
  - { offsetInCU: 0x5AD70, offset: 0x5AD70, size: 0x8, addend: 0x0, symName: __ZN5boost4asio6detail15timer_queue_set16get_ready_timersERNS1_8op_queueINS1_19scheduler_operationEEE, symObjAddr: 0x8454, symBinAddr: 0x10000B44C, symSize: 0x6C }
  - { offsetInCU: 0x5ADC5, offset: 0x5ADC5, size: 0x8, addend: 0x0, symName: __ZNK5boost4asio6detail15timer_queue_set18wait_duration_usecEl, symObjAddr: 0x84C0, symBinAddr: 0x10000B4B8, symSize: 0x7C }
  - { offsetInCU: 0x5AE29, offset: 0x5AE29, size: 0x8, addend: 0x0, symName: __ZN5boost4asio6detail23pipe_select_interrupter9interruptEv, symObjAddr: 0x853C, symBinAddr: 0x10000B534, symSize: 0x38 }
  - { offsetInCU: 0x5AE6D, offset: 0x5AE6D, size: 0x8, addend: 0x0, symName: __ZN5boost4asio6detail11scoped_lockINS1_11posix_mutexEE6unlockEv, symObjAddr: 0x8574, symBinAddr: 0x10000B56C, symSize: 0x48 }
  - { offsetInCU: 0x5AE93, offset: 0x5AE93, size: 0x8, addend: 0x0, symName: __ZN5boost4asio6detail11scoped_lockINS1_11posix_mutexEE4lockEv, symObjAddr: 0x85BC, symBinAddr: 0x10000B5B4, symSize: 0x4C }
  - { offsetInCU: 0x5AEBF, offset: 0x5AEBF, size: 0x8, addend: 0x0, symName: __ZN5boost4asio6detail16service_registry16auto_service_ptrD1Ev, symObjAddr: 0x8608, symBinAddr: 0x10000B600, symSize: 0x2C }
  - { offsetInCU: 0x5AEE9, offset: 0x5AEE9, size: 0x8, addend: 0x0, symName: __ZN5boost4asio6detail16service_registry16auto_service_ptrD2Ev, symObjAddr: 0x8634, symBinAddr: 0x10000B62C, symSize: 0x38 }
  - { offsetInCU: 0x5AF13, offset: 0x5AF13, size: 0x8, addend: 0x0, symName: __ZN5boost4asio6detail16service_registry7destroyEPNS0_17execution_context7serviceE, symObjAddr: 0x866C, symBinAddr: 0x10000B664, symSize: 0x48 }
  - { offsetInCU: 0x5AF3A, offset: 0x5AF3A, size: 0x8, addend: 0x0, symName: __ZN5boost4asio6detail9schedulerC2ERNS0_17execution_contextEibPFPNS1_14scheduler_taskES4_E, symObjAddr: 0x86B4, symBinAddr: 0x10000B6AC, symSize: 0x2D0 }
  - { offsetInCU: 0x5AFB3, offset: 0x5AFB3, size: 0x8, addend: 0x0, symName: __ZN5boost4asio6detail30execution_context_service_baseINS1_9schedulerEEC2ERNS0_17execution_contextE, symObjAddr: 0x8984, symBinAddr: 0x10000B97C, symSize: 0x4C }
  - { offsetInCU: 0x5AFEC, offset: 0x5AFEC, size: 0x8, addend: 0x0, symName: __ZN5boost4asio6detail27conditionally_enabled_eventC1Ev, symObjAddr: 0x89D0, symBinAddr: 0x10000B9C8, symSize: 0x2C }
  - { offsetInCU: 0x5B016, offset: 0x5B016, size: 0x8, addend: 0x0, symName: __ZN5boost4asio6detail9scheduler14task_operationC1Ev, symObjAddr: 0x89FC, symBinAddr: 0x10000B9F4, symSize: 0x2C }
  - { offsetInCU: 0x5B040, offset: 0x5B040, size: 0x8, addend: 0x0, symName: __ZNSt3__16atomicIlEC1B7v160006El, symObjAddr: 0x8A28, symBinAddr: 0x10000BA20, symSize: 0x34 }
  - { offsetInCU: 0x5B079, offset: 0x5B079, size: 0x8, addend: 0x0, symName: __ZNSt3__113__atomic_baseIlLb1EEppB7v160006Ev, symObjAddr: 0x8A5C, symBinAddr: 0x10000BA54, symSize: 0x30 }
  - { offsetInCU: 0x5B0A5, offset: 0x5B0A5, size: 0x8, addend: 0x0, symName: __ZN5boost4asio6detail20posix_signal_blockerC1Ev, symObjAddr: 0x8A8C, symBinAddr: 0x10000BA84, symSize: 0x2C }
  - { offsetInCU: 0x5B0CF, offset: 0x5B0CF, size: 0x8, addend: 0x0, symName: __ZN5boost4asio6detail9scheduler15thread_functionC1EPS2_, symObjAddr: 0x8AB8, symBinAddr: 0x10000BAB0, symSize: 0x34 }
  - { offsetInCU: 0x5B107, offset: 0x5B107, size: 0x8, addend: 0x0, symName: __ZN5boost4asio6detail12posix_threadC1INS1_9scheduler15thread_functionEEET_j, symObjAddr: 0x8AEC, symBinAddr: 0x10000BAE4, symSize: 0x3C }
  - { offsetInCU: 0x5B152, offset: 0x5B152, size: 0x8, addend: 0x0, symName: __ZN5boost4asio6detail20posix_signal_blockerD1Ev, symObjAddr: 0x8B28, symBinAddr: 0x10000BB20, symSize: 0x2C }
  - { offsetInCU: 0x5B17C, offset: 0x5B17C, size: 0x8, addend: 0x0, symName: __ZN5boost4asio6detail9scheduler14task_operationD1Ev, symObjAddr: 0x8B54, symBinAddr: 0x10000BB4C, symSize: 0x2C }
  - { offsetInCU: 0x5B1A8, offset: 0x5B1A8, size: 0x8, addend: 0x0, symName: __ZN5boost4asio6detail27conditionally_enabled_eventD1Ev, symObjAddr: 0x8B80, symBinAddr: 0x10000BB78, symSize: 0x2C }
  - { offsetInCU: 0x5B1D2, offset: 0x5B1D2, size: 0x8, addend: 0x0, symName: __ZN5boost4asio6detail30execution_context_service_baseINS1_9schedulerEED2Ev, symObjAddr: 0x8BAC, symBinAddr: 0x10000BBA4, symSize: 0x2C }
  - { offsetInCU: 0x5B1FF, offset: 0x5B1FF, size: 0x8, addend: 0x0, symName: __ZN5boost4asio6detail9schedulerD1Ev, symObjAddr: 0x8BD8, symBinAddr: 0x10000BBD0, symSize: 0x2C }
  - { offsetInCU: 0x5B22B, offset: 0x5B22B, size: 0x8, addend: 0x0, symName: __ZN5boost4asio6detail9schedulerD0Ev, symObjAddr: 0x8C04, symBinAddr: 0x10000BBFC, symSize: 0x30 }
  - { offsetInCU: 0x5B257, offset: 0x5B257, size: 0x8, addend: 0x0, symName: __ZN5boost4asio6detail9scheduler8shutdownEv, symObjAddr: 0x8C34, symBinAddr: 0x10000BC2C, symSize: 0x16C }
  - { offsetInCU: 0x5B2A9, offset: 0x5B2A9, size: 0x8, addend: 0x0, symName: __ZN5boost4asio6detail30execution_context_service_baseINS1_9schedulerEED1Ev, symObjAddr: 0x8DA0, symBinAddr: 0x10000BD98, symSize: 0x14 }
  - { offsetInCU: 0x5B2D6, offset: 0x5B2D6, size: 0x8, addend: 0x0, symName: __ZN5boost4asio6detail30execution_context_service_baseINS1_9schedulerEED0Ev, symObjAddr: 0x8DB4, symBinAddr: 0x10000BDAC, symSize: 0xC }
  - { offsetInCU: 0x5B303, offset: 0x5B303, size: 0x8, addend: 0x0, symName: __ZN5boost4asio6detail27conditionally_enabled_eventC2Ev, symObjAddr: 0x8DC0, symBinAddr: 0x10000BDB8, symSize: 0x60 }
  - { offsetInCU: 0x5B32D, offset: 0x5B32D, size: 0x8, addend: 0x0, symName: __ZN5boost4asio6detail11posix_eventC1Ev, symObjAddr: 0x8E20, symBinAddr: 0x10000BE18, symSize: 0x2C }
  - { offsetInCU: 0x5B359, offset: 0x5B359, size: 0x8, addend: 0x0, symName: __ZN5boost4asio6detail11posix_eventC2Ev, symObjAddr: 0x8E4C, symBinAddr: 0x10000BE44, symSize: 0xCC }
  - { offsetInCU: 0x5B3A8, offset: 0x5B3A8, size: 0x8, addend: 0x0, symName: __ZN5boost4asio6detail9scheduler14task_operationC2Ev, symObjAddr: 0x8F18, symBinAddr: 0x10000BF10, symSize: 0x30 }
  - { offsetInCU: 0x5B3D2, offset: 0x5B3D2, size: 0x8, addend: 0x0, symName: __ZN5boost4asio6detail19scheduler_operationC2EPFvPvPS2_RKNS_6system10error_codeEmE, symObjAddr: 0x8F48, symBinAddr: 0x10000BF40, symSize: 0x28 }
  - { offsetInCU: 0x5B40A, offset: 0x5B40A, size: 0x8, addend: 0x0, symName: __ZNSt3__16atomicIlEC2B7v160006El, symObjAddr: 0x8F70, symBinAddr: 0x10000BF68, symSize: 0x34 }
  - { offsetInCU: 0x5B443, offset: 0x5B443, size: 0x8, addend: 0x0, symName: __ZNSt3__113__atomic_baseIlLb1EEC2B7v160006El, symObjAddr: 0x8FA4, symBinAddr: 0x10000BF9C, symSize: 0x34 }
  - { offsetInCU: 0x5B47C, offset: 0x5B47C, size: 0x8, addend: 0x0, symName: __ZNSt3__113__atomic_baseIlLb0EEC2B7v160006El, symObjAddr: 0x8FD8, symBinAddr: 0x10000BFD0, symSize: 0x34 }
  - { offsetInCU: 0x5B4B5, offset: 0x5B4B5, size: 0x8, addend: 0x0, symName: __ZNSt3__117__cxx_atomic_implIlNS_22__cxx_atomic_base_implIlEEEC1B7v160006El, symObjAddr: 0x900C, symBinAddr: 0x10000C004, symSize: 0x34 }
  - { offsetInCU: 0x5B4EE, offset: 0x5B4EE, size: 0x8, addend: 0x0, symName: __ZNSt3__117__cxx_atomic_implIlNS_22__cxx_atomic_base_implIlEEEC2B7v160006El, symObjAddr: 0x9040, symBinAddr: 0x10000C038, symSize: 0x34 }
  - { offsetInCU: 0x5B527, offset: 0x5B527, size: 0x8, addend: 0x0, symName: __ZNSt3__122__cxx_atomic_base_implIlEC2El, symObjAddr: 0x9074, symBinAddr: 0x10000C06C, symSize: 0x20 }
  - { offsetInCU: 0x5B560, offset: 0x5B560, size: 0x8, addend: 0x0, symName: __ZNSt3__113__atomic_baseIlLb1EE9fetch_addB7v160006ElNS_12memory_orderE, symObjAddr: 0x9094, symBinAddr: 0x10000C08C, symSize: 0x34 }
  - { offsetInCU: 0x5B5A4, offset: 0x5B5A4, size: 0x8, addend: 0x0, symName: __ZN5boost4asio6detail20posix_signal_blockerC2Ev, symObjAddr: 0x91A0, symBinAddr: 0x10000C198, symSize: 0x8C }
  - { offsetInCU: 0x5B5E4, offset: 0x5B5E4, size: 0x8, addend: 0x0, symName: __ZN5boost4asio6detail9scheduler15thread_functionC2EPS2_, symObjAddr: 0x922C, symBinAddr: 0x10000C224, symSize: 0x20 }
  - { offsetInCU: 0x5B61C, offset: 0x5B61C, size: 0x8, addend: 0x0, symName: __ZN5boost4asio6detail12posix_threadC2INS1_9scheduler15thread_functionEEET_j, symObjAddr: 0x924C, symBinAddr: 0x10000C244, symSize: 0xB4 }
  - { offsetInCU: 0x5B667, offset: 0x5B667, size: 0x8, addend: 0x0, symName: __ZN5boost4asio6detail12posix_thread12start_threadEPNS2_9func_baseE, symObjAddr: 0x9300, symBinAddr: 0x10000C2F8, symSize: 0xD8 }
  - { offsetInCU: 0x5B6CD, offset: 0x5B6CD, size: 0x8, addend: 0x0, symName: __ZN5boost4asio6detail12posix_thread4funcINS1_9scheduler15thread_functionEEC1ES5_, symObjAddr: 0x93D8, symBinAddr: 0x10000C3D0, symSize: 0x34 }
  - { offsetInCU: 0x5B705, offset: 0x5B705, size: 0x8, addend: 0x0, symName: _boost_asio_detail_posix_thread_function, symObjAddr: 0x940C, symBinAddr: 0x10000C404, symSize: 0x64 }
  - { offsetInCU: 0x5B742, offset: 0x5B742, size: 0x8, addend: 0x0, symName: __ZN5boost4asio6detail12posix_thread18auto_func_base_ptrD1Ev, symObjAddr: 0x9470, symBinAddr: 0x10000C468, symSize: 0x2C }
  - { offsetInCU: 0x5B76C, offset: 0x5B76C, size: 0x8, addend: 0x0, symName: __ZN5boost4asio6detail12posix_thread18auto_func_base_ptrD2Ev, symObjAddr: 0x949C, symBinAddr: 0x10000C494, symSize: 0x58 }
  - { offsetInCU: 0x5B796, offset: 0x5B796, size: 0x8, addend: 0x0, symName: __ZN5boost4asio6detail12posix_thread4funcINS1_9scheduler15thread_functionEEC2ES5_, symObjAddr: 0x94F4, symBinAddr: 0x10000C4EC, symSize: 0x50 }
  - { offsetInCU: 0x5B7CE, offset: 0x5B7CE, size: 0x8, addend: 0x0, symName: __ZN5boost4asio6detail12posix_thread9func_baseC2Ev, symObjAddr: 0x9544, symBinAddr: 0x10000C53C, symSize: 0x24 }
  - { offsetInCU: 0x5B7FA, offset: 0x5B7FA, size: 0x8, addend: 0x0, symName: __ZN5boost4asio6detail12posix_thread4funcINS1_9scheduler15thread_functionEED1Ev, symObjAddr: 0x9568, symBinAddr: 0x10000C560, symSize: 0x2C }
  - { offsetInCU: 0x5B826, offset: 0x5B826, size: 0x8, addend: 0x0, symName: __ZN5boost4asio6detail12posix_thread4funcINS1_9scheduler15thread_functionEED0Ev, symObjAddr: 0x9594, symBinAddr: 0x10000C58C, symSize: 0x30 }
  - { offsetInCU: 0x5B852, offset: 0x5B852, size: 0x8, addend: 0x0, symName: __ZN5boost4asio6detail12posix_thread4funcINS1_9scheduler15thread_functionEE3runEv, symObjAddr: 0x95C4, symBinAddr: 0x10000C5BC, symSize: 0x28 }
  - { offsetInCU: 0x5B878, offset: 0x5B878, size: 0x8, addend: 0x0, symName: __ZN5boost4asio6detail12posix_thread9func_baseD1Ev, symObjAddr: 0x95EC, symBinAddr: 0x10000C5E4, symSize: 0x14 }
  - { offsetInCU: 0x5B8A2, offset: 0x5B8A2, size: 0x8, addend: 0x0, symName: __ZN5boost4asio6detail12posix_thread9func_baseD0Ev, symObjAddr: 0x9600, symBinAddr: 0x10000C5F8, symSize: 0xC }
  - { offsetInCU: 0x5B8CC, offset: 0x5B8CC, size: 0x8, addend: 0x0, symName: __ZN5boost4asio6detail12posix_thread4funcINS1_9scheduler15thread_functionEED2Ev, symObjAddr: 0x960C, symBinAddr: 0x10000C604, symSize: 0x2C }
  - { offsetInCU: 0x5B8F8, offset: 0x5B8F8, size: 0x8, addend: 0x0, symName: __ZN5boost4asio6detail12posix_thread9func_baseD2Ev, symObjAddr: 0x9638, symBinAddr: 0x10000C630, symSize: 0x14 }
  - { offsetInCU: 0x5B922, offset: 0x5B922, size: 0x8, addend: 0x0, symName: __ZN5boost4asio6detail9scheduler15thread_functionclEv, symObjAddr: 0x964C, symBinAddr: 0x10000C644, symSize: 0x40 }
  - { offsetInCU: 0x5B956, offset: 0x5B956, size: 0x8, addend: 0x0, symName: __ZN5boost4asio6detail9scheduler3runERNS_6system10error_codeE, symObjAddr: 0x968C, symBinAddr: 0x10000C684, symSize: 0x1AC }
  - { offsetInCU: 0x5B9C6, offset: 0x5B9C6, size: 0x8, addend: 0x0, symName: __ZNKSt3__113__atomic_baseIlLb0EEcvlB7v160006Ev, symObjAddr: 0x9838, symBinAddr: 0x10000C830, symSize: 0x28 }
  - { offsetInCU: 0x5B9EC, offset: 0x5B9EC, size: 0x8, addend: 0x0, symName: __ZN5boost4asio6detail9scheduler4stopEv, symObjAddr: 0x9860, symBinAddr: 0x10000C858, symSize: 0x6C }
  - { offsetInCU: 0x5BA2A, offset: 0x5BA2A, size: 0x8, addend: 0x0, symName: __ZN5boost4asio6detail21scheduler_thread_infoC1Ev, symObjAddr: 0x98CC, symBinAddr: 0x10000C8C4, symSize: 0x2C }
  - { offsetInCU: 0x5BA56, offset: 0x5BA56, size: 0x8, addend: 0x0, symName: __ZN5boost4asio6detail10call_stackINS1_14thread_contextENS1_16thread_info_baseEE7contextC1EPS3_RS4_, symObjAddr: 0x98F8, symBinAddr: 0x10000C8F0, symSize: 0x3C }
  - { offsetInCU: 0x5BA9C, offset: 0x5BA9C, size: 0x8, addend: 0x0, symName: __ZN5boost4asio6detail9scheduler10do_run_oneERNS1_27conditionally_enabled_mutex11scoped_lockERNS1_21scheduler_thread_infoERKNS_6system10error_codeE, symObjAddr: 0x9934, symBinAddr: 0x10000C92C, symSize: 0x25C }
  - { offsetInCU: 0x5BB53, offset: 0x5BB53, size: 0x8, addend: 0x0, symName: __ZNSt3__114numeric_limitsImE3maxB7v160006Ev, symObjAddr: 0x9B90, symBinAddr: 0x10000CB88, symSize: 0x14 }
  - { offsetInCU: 0x5BB67, offset: 0x5BB67, size: 0x8, addend: 0x0, symName: __ZN5boost4asio6detail10call_stackINS1_14thread_contextENS1_16thread_info_baseEE7contextD1Ev, symObjAddr: 0x9BA4, symBinAddr: 0x10000CB9C, symSize: 0x2C }
  - { offsetInCU: 0x5BB91, offset: 0x5BB91, size: 0x8, addend: 0x0, symName: __ZN5boost4asio6detail21scheduler_thread_infoD1Ev, symObjAddr: 0x9BD0, symBinAddr: 0x10000CBC8, symSize: 0x2C }
  - { offsetInCU: 0x5BBBD, offset: 0x5BBBD, size: 0x8, addend: 0x0, symName: __ZNKSt3__113__atomic_baseIlLb0EE4loadB7v160006ENS_12memory_orderE, symObjAddr: 0x9BFC, symBinAddr: 0x10000CBF4, symSize: 0x2C }
  - { offsetInCU: 0x5BBF2, offset: 0x5BBF2, size: 0x8, addend: 0x0, symName: __ZN5boost4asio6detail9scheduler16stop_all_threadsERNS1_27conditionally_enabled_mutex11scoped_lockE, symObjAddr: 0x9CA8, symBinAddr: 0x10000CCA0, symSize: 0x84 }
  - { offsetInCU: 0x5BC2A, offset: 0x5BC2A, size: 0x8, addend: 0x0, symName: __ZN5boost4asio6detail27conditionally_enabled_event10signal_allERNS1_27conditionally_enabled_mutex11scoped_lockE, symObjAddr: 0x9D2C, symBinAddr: 0x10000CD24, symSize: 0x50 }
  - { offsetInCU: 0x5BC5E, offset: 0x5BC5E, size: 0x8, addend: 0x0, symName: __ZN5boost4asio6detail11posix_event10signal_allINS1_27conditionally_enabled_mutex11scoped_lockEEEvRT_, symObjAddr: 0x9D7C, symBinAddr: 0x10000CD74, symSize: 0x70 }
  - { offsetInCU: 0x5BC9B, offset: 0x5BC9B, size: 0x8, addend: 0x0, symName: __ZNK5boost4asio6detail27conditionally_enabled_mutex11scoped_lock6lockedEv, symObjAddr: 0x9DEC, symBinAddr: 0x10000CDE4, symSize: 0x1C }
  - { offsetInCU: 0x5BCC1, offset: 0x5BCC1, size: 0x8, addend: 0x0, symName: __ZN5boost4asio6detail21scheduler_thread_infoC2Ev, symObjAddr: 0x9E08, symBinAddr: 0x10000CE00, symSize: 0x60 }
  - { offsetInCU: 0x5BCED, offset: 0x5BCED, size: 0x8, addend: 0x0, symName: __ZN5boost4asio6detail16thread_info_baseC2Ev, symObjAddr: 0x9E68, symBinAddr: 0x10000CE60, symSize: 0x84 }
  - { offsetInCU: 0x5BD33, offset: 0x5BD33, size: 0x8, addend: 0x0, symName: __ZN5boost4asio6detail16thread_info_baseD2Ev, symObjAddr: 0x9EEC, symBinAddr: 0x10000CEE4, symSize: 0xA8 }
  - { offsetInCU: 0x5BD72, offset: 0x5BD72, size: 0x8, addend: 0x0, symName: __ZNSt13exception_ptrC1B7v160006Ev, symObjAddr: 0x9F94, symBinAddr: 0x10000CF8C, symSize: 0x2C }
  - { offsetInCU: 0x5BD9C, offset: 0x5BD9C, size: 0x8, addend: 0x0, symName: __ZNSt13exception_ptrC2B7v160006Ev, symObjAddr: 0x9FC0, symBinAddr: 0x10000CFB8, symSize: 0x18 }
  - { offsetInCU: 0x5BDC6, offset: 0x5BDC6, size: 0x8, addend: 0x0, symName: __ZN5boost4asio6detail10call_stackINS1_14thread_contextENS1_16thread_info_baseEE7contextC2EPS3_RS4_, symObjAddr: 0xA028, symBinAddr: 0x10000D020, symSize: 0x9C }
  - { offsetInCU: 0x5BE0C, offset: 0x5BE0C, size: 0x8, addend: 0x0, symName: __ZNK5boost4asio6detail13posix_tss_ptrINS1_10call_stackINS1_14thread_contextENS1_16thread_info_baseEE7contextEEcvPS7_Ev, symObjAddr: 0xA0C4, symBinAddr: 0x10000D0BC, symSize: 0x28 }
  - { offsetInCU: 0x5BE32, offset: 0x5BE32, size: 0x8, addend: 0x0, symName: __ZN5boost4asio6detail7tss_ptrINS1_10call_stackINS1_14thread_contextENS1_16thread_info_baseEE7contextEEaSEPS7_, symObjAddr: 0xA0EC, symBinAddr: 0x10000D0E4, symSize: 0x2C }
  - { offsetInCU: 0x5BE66, offset: 0x5BE66, size: 0x8, addend: 0x0, symName: __ZN5boost4asio6detail13posix_tss_ptrINS1_10call_stackINS1_14thread_contextENS1_16thread_info_baseEE7contextEEaSEPS7_, symObjAddr: 0xA118, symBinAddr: 0x10000D110, symSize: 0x30 }
  - { offsetInCU: 0x5BE9A, offset: 0x5BE9A, size: 0x8, addend: 0x0, symName: __ZNK5boost4asio6detail8op_queueINS1_19scheduler_operationEE5emptyEv, symObjAddr: 0xA148, symBinAddr: 0x10000D140, symSize: 0x24 }
  - { offsetInCU: 0x5BEC0, offset: 0x5BEC0, size: 0x8, addend: 0x0, symName: __ZN5boost4asio6detail8op_queueINS1_19scheduler_operationEE5frontEv, symObjAddr: 0xA16C, symBinAddr: 0x10000D164, symSize: 0x18 }
  - { offsetInCU: 0x5BEE6, offset: 0x5BEE6, size: 0x8, addend: 0x0, symName: __ZN5boost4asio6detail27conditionally_enabled_event21unlock_and_signal_oneERNS1_27conditionally_enabled_mutex11scoped_lockE, symObjAddr: 0xA184, symBinAddr: 0x10000D17C, symSize: 0x50 }
  - { offsetInCU: 0x5BF26, offset: 0x5BF26, size: 0x8, addend: 0x0, symName: __ZN5boost4asio6detail9scheduler12task_cleanupD1Ev, symObjAddr: 0xA1D4, symBinAddr: 0x10000D1CC, symSize: 0x2C }
  - { offsetInCU: 0x5BF50, offset: 0x5BF50, size: 0x8, addend: 0x0, symName: __ZN5boost4asio6detail9scheduler26wake_one_thread_and_unlockERNS1_27conditionally_enabled_mutex11scoped_lockE, symObjAddr: 0xA200, symBinAddr: 0x10000D1F8, symSize: 0x90 }
  - { offsetInCU: 0x5BF88, offset: 0x5BF88, size: 0x8, addend: 0x0, symName: __ZN5boost4asio6detail19scheduler_operation8completeEPvRKNS_6system10error_codeEm, symObjAddr: 0xA290, symBinAddr: 0x10000D288, symSize: 0x40 }
  - { offsetInCU: 0x5BFD8, offset: 0x5BFD8, size: 0x8, addend: 0x0, symName: __ZN5boost4asio6detail16thread_info_base25rethrow_pending_exceptionEv, symObjAddr: 0xA2D0, symBinAddr: 0x10000D2C8, symSize: 0x98 }
  - { offsetInCU: 0x5C020, offset: 0x5C020, size: 0x8, addend: 0x0, symName: __ZN5boost4asio6detail9scheduler12work_cleanupD1Ev, symObjAddr: 0xA368, symBinAddr: 0x10000D360, symSize: 0x2C }
  - { offsetInCU: 0x5C04A, offset: 0x5C04A, size: 0x8, addend: 0x0, symName: __ZN5boost4asio6detail27conditionally_enabled_event5clearERNS1_27conditionally_enabled_mutex11scoped_lockE, symObjAddr: 0xA394, symBinAddr: 0x10000D38C, symSize: 0x50 }
  - { offsetInCU: 0x5C07E, offset: 0x5C07E, size: 0x8, addend: 0x0, symName: __ZN5boost4asio6detail27conditionally_enabled_event4waitERNS1_27conditionally_enabled_mutex11scoped_lockE, symObjAddr: 0xA3E4, symBinAddr: 0x10000D3DC, symSize: 0x98 }
  - { offsetInCU: 0x5C0B2, offset: 0x5C0B2, size: 0x8, addend: 0x0, symName: __ZN5boost4asio6detail11posix_event21unlock_and_signal_oneINS1_27conditionally_enabled_mutex11scoped_lockEEEvRT_, symObjAddr: 0xA47C, symBinAddr: 0x10000D474, symSize: 0xA4 }
  - { offsetInCU: 0x5C0FD, offset: 0x5C0FD, size: 0x8, addend: 0x0, symName: __ZN5boost4asio6detail9scheduler12task_cleanupD2Ev, symObjAddr: 0xA520, symBinAddr: 0x10000D518, symSize: 0xC4 }
  - { offsetInCU: 0x5C127, offset: 0x5C127, size: 0x8, addend: 0x0, symName: __ZNSt3__113__atomic_baseIlLb1EEpLB7v160006El, symObjAddr: 0xA610, symBinAddr: 0x10000D608, symSize: 0x38 }
  - { offsetInCU: 0x5C15C, offset: 0x5C15C, size: 0x8, addend: 0x0, symName: __ZN5boost4asio6detail27conditionally_enabled_event27maybe_unlock_and_signal_oneERNS1_27conditionally_enabled_mutex11scoped_lockE, symObjAddr: 0xA648, symBinAddr: 0x10000D640, symSize: 0x78 }
  - { offsetInCU: 0x5C190, offset: 0x5C190, size: 0x8, addend: 0x0, symName: __ZN5boost4asio6detail11posix_event27maybe_unlock_and_signal_oneINS1_27conditionally_enabled_mutex11scoped_lockEEEbRT_, symObjAddr: 0xA6C0, symBinAddr: 0x10000D6B8, symSize: 0xC0 }
  - { offsetInCU: 0x5C1CD, offset: 0x5C1CD, size: 0x8, addend: 0x0, symName: __ZN5boost4asio6detail9scheduler12work_cleanupD2Ev, symObjAddr: 0xA780, symBinAddr: 0x10000D778, symSize: 0xF0 }
  - { offsetInCU: 0x5C1F7, offset: 0x5C1F7, size: 0x8, addend: 0x0, symName: __ZN5boost4asio6detail9scheduler13work_finishedEv, symObjAddr: 0xA870, symBinAddr: 0x10000D868, symSize: 0x48 }
  - { offsetInCU: 0x5C21D, offset: 0x5C21D, size: 0x8, addend: 0x0, symName: __ZNSt3__113__atomic_baseIlLb1EEmmB7v160006Ev, symObjAddr: 0xA8B8, symBinAddr: 0x10000D8B0, symSize: 0x30 }
  - { offsetInCU: 0x5C243, offset: 0x5C243, size: 0x8, addend: 0x0, symName: __ZNSt3__113__atomic_baseIlLb1EE9fetch_subB7v160006ElNS_12memory_orderE, symObjAddr: 0xA8E8, symBinAddr: 0x10000D8E0, symSize: 0x34 }
  - { offsetInCU: 0x5C287, offset: 0x5C287, size: 0x8, addend: 0x0, symName: __ZN5boost4asio6detail11posix_event5clearINS1_27conditionally_enabled_mutex11scoped_lockEEEvRT_, symObjAddr: 0xAA08, symBinAddr: 0x10000DA00, symSize: 0x6C }
  - { offsetInCU: 0x5C2C4, offset: 0x5C2C4, size: 0x8, addend: 0x0, symName: __ZN5boost4asio6detail11posix_event4waitINS1_27conditionally_enabled_mutex11scoped_lockEEEvRT_, symObjAddr: 0xAA74, symBinAddr: 0x10000DA6C, symSize: 0xB0 }
  - { offsetInCU: 0x5C307, offset: 0x5C307, size: 0x8, addend: 0x0, symName: __ZN5boost4asio6detail10null_eventC1Ev, symObjAddr: 0xAB24, symBinAddr: 0x10000DB1C, symSize: 0x2C }
  - { offsetInCU: 0x5C331, offset: 0x5C331, size: 0x8, addend: 0x0, symName: __ZN5boost4asio6detail10null_event4waitINS1_27conditionally_enabled_mutex11scoped_lockEEEvRT_, symObjAddr: 0xAB50, symBinAddr: 0x10000DB48, symSize: 0x24 }
  - { offsetInCU: 0x5C36C, offset: 0x5C36C, size: 0x8, addend: 0x0, symName: __ZN5boost4asio6detail10null_eventD1Ev, symObjAddr: 0xAB74, symBinAddr: 0x10000DB6C, symSize: 0x2C }
  - { offsetInCU: 0x5C396, offset: 0x5C396, size: 0x8, addend: 0x0, symName: __ZN5boost4asio6detail27conditionally_enabled_mutex11scoped_lock5mutexEv, symObjAddr: 0xABA0, symBinAddr: 0x10000DB98, symSize: 0x1C }
  - { offsetInCU: 0x5C3BC, offset: 0x5C3BC, size: 0x8, addend: 0x0, symName: __ZN5boost4asio6detail10null_eventC2Ev, symObjAddr: 0xABBC, symBinAddr: 0x10000DBB4, symSize: 0x2C }
  - { offsetInCU: 0x5C3E6, offset: 0x5C3E6, size: 0x8, addend: 0x0, symName: __ZN5boost4asio6detail10null_event7do_waitEv, symObjAddr: 0xABE8, symBinAddr: 0x10000DBE0, symSize: 0x14 }
  - { offsetInCU: 0x5C3FD, offset: 0x5C3FD, size: 0x8, addend: 0x0, symName: __ZN5boost4asio6detail10null_eventD2Ev, symObjAddr: 0xABFC, symBinAddr: 0x10000DBF4, symSize: 0x2C }
  - { offsetInCU: 0x5C427, offset: 0x5C427, size: 0x8, addend: 0x0, symName: __ZNSt3__123__libcpp_numeric_limitsImLb1EE3maxB7v160006Ev, symObjAddr: 0xAC28, symBinAddr: 0x10000DC20, symSize: 0x8 }
  - { offsetInCU: 0x5C43B, offset: 0x5C43B, size: 0x8, addend: 0x0, symName: __ZN5boost4asio6detail10call_stackINS1_14thread_contextENS1_16thread_info_baseEE7contextD2Ev, symObjAddr: 0xAC30, symBinAddr: 0x10000DC28, symSize: 0x48 }
  - { offsetInCU: 0x5C465, offset: 0x5C465, size: 0x8, addend: 0x0, symName: __ZN5boost4asio6detail21scheduler_thread_infoD2Ev, symObjAddr: 0xAC78, symBinAddr: 0x10000DC70, symSize: 0x38 }
  - { offsetInCU: 0x5C491, offset: 0x5C491, size: 0x8, addend: 0x0, symName: __ZN5boost4asio6detail20posix_signal_blockerD2Ev, symObjAddr: 0xACB0, symBinAddr: 0x10000DCA8, symSize: 0x64 }
  - { offsetInCU: 0x5C4BB, offset: 0x5C4BB, size: 0x8, addend: 0x0, symName: __ZN5boost4asio6detail9scheduler14task_operationD2Ev, symObjAddr: 0xAD14, symBinAddr: 0x10000DD0C, symSize: 0x2C }
  - { offsetInCU: 0x5C4E7, offset: 0x5C4E7, size: 0x8, addend: 0x0, symName: __ZN5boost4asio6detail19scheduler_operationD2Ev, symObjAddr: 0xAD40, symBinAddr: 0x10000DD38, symSize: 0x14 }
  - { offsetInCU: 0x5C511, offset: 0x5C511, size: 0x8, addend: 0x0, symName: __ZN5boost4asio6detail27conditionally_enabled_eventD2Ev, symObjAddr: 0xAD54, symBinAddr: 0x10000DD4C, symSize: 0x38 }
  - { offsetInCU: 0x5C53B, offset: 0x5C53B, size: 0x8, addend: 0x0, symName: __ZN5boost4asio6detail11posix_eventD1Ev, symObjAddr: 0xAD8C, symBinAddr: 0x10000DD84, symSize: 0x2C }
  - { offsetInCU: 0x5C565, offset: 0x5C565, size: 0x8, addend: 0x0, symName: __ZN5boost4asio6detail11posix_eventD2Ev, symObjAddr: 0xADB8, symBinAddr: 0x10000DDB0, symSize: 0x3C }
  - { offsetInCU: 0x5C58F, offset: 0x5C58F, size: 0x8, addend: 0x0, symName: __ZN5boost4asio6detail9schedulerD2Ev, symObjAddr: 0xADF4, symBinAddr: 0x10000DDEC, symSize: 0x114 }
  - { offsetInCU: 0x5C5D0, offset: 0x5C5D0, size: 0x8, addend: 0x0, symName: __ZN5boost4asio6detail12posix_thread4joinEv, symObjAddr: 0xAF08, symBinAddr: 0x10000DF00, symSize: 0x50 }
  - { offsetInCU: 0x5C5F8, offset: 0x5C5F8, size: 0x8, addend: 0x0, symName: __ZN5boost4asio6detail12posix_threadD1Ev, symObjAddr: 0xAF58, symBinAddr: 0x10000DF50, symSize: 0x2C }
  - { offsetInCU: 0x5C624, offset: 0x5C624, size: 0x8, addend: 0x0, symName: __ZN5boost4asio6detail12posix_threadD2Ev, symObjAddr: 0xAF84, symBinAddr: 0x10000DF7C, symSize: 0x5C }
  - { offsetInCU: 0x5C650, offset: 0x5C650, size: 0x8, addend: 0x0, symName: __ZN5boost4asio17execution_context8shutdownEv, symObjAddr: 0xAFE0, symBinAddr: 0x10000DFD8, symSize: 0x28 }
  - { offsetInCU: 0x5C678, offset: 0x5C678, size: 0x8, addend: 0x0, symName: __ZN5boost4asio17execution_context7destroyEv, symObjAddr: 0xB008, symBinAddr: 0x10000E000, symSize: 0x28 }
  - { offsetInCU: 0x5C6A0, offset: 0x5C6A0, size: 0x8, addend: 0x0, symName: __ZN5boost4asio6detail16service_registryD1Ev, symObjAddr: 0xB030, symBinAddr: 0x10000E028, symSize: 0x2C }
  - { offsetInCU: 0x5C6CD, offset: 0x5C6CD, size: 0x8, addend: 0x0, symName: __ZN5boost4asio6detail16service_registry17shutdown_servicesEv, symObjAddr: 0xB05C, symBinAddr: 0x10000E054, symSize: 0x60 }
  - { offsetInCU: 0x5C705, offset: 0x5C705, size: 0x8, addend: 0x0, symName: __ZN5boost4asio6detail16service_registry16destroy_servicesEv, symObjAddr: 0xB0BC, symBinAddr: 0x10000E0B4, symSize: 0x68 }
  - { offsetInCU: 0x5C74B, offset: 0x5C74B, size: 0x8, addend: 0x0, symName: __ZN5boost4asio6detail16service_registryD2Ev, symObjAddr: 0xB124, symBinAddr: 0x10000E11C, symSize: 0x38 }
  - { offsetInCU: 0x5C778, offset: 0x5C778, size: 0x8, addend: 0x0, symName: __ZNSt3__117basic_string_viewIcNS_11char_traitsIcEEEC2B7v160006EPKc, symObjAddr: 0xB15C, symBinAddr: 0x10000E154, symSize: 0x44 }
  - { offsetInCU: 0x5C7B1, offset: 0x5C7B1, size: 0x8, addend: 0x0, symName: __ZN5boost4asio2ip23basic_resolver_iteratorINS1_3tcpEED2Ev, symObjAddr: 0xB1C4, symBinAddr: 0x10000E1BC, symSize: 0x2C }
  - { offsetInCU: 0x5C7DD, offset: 0x5C7DD, size: 0x8, addend: 0x0, symName: __ZNSt3__110shared_ptrINS_6vectorIN5boost4asio2ip20basic_resolver_entryINS4_3tcpEEENS_9allocatorIS7_EEEEED1B7v160006Ev, symObjAddr: 0xB1F0, symBinAddr: 0x10000E1E8, symSize: 0x2C }
  - { offsetInCU: 0x5C807, offset: 0x5C807, size: 0x8, addend: 0x0, symName: __ZNSt3__110shared_ptrINS_6vectorIN5boost4asio2ip20basic_resolver_entryINS4_3tcpEEENS_9allocatorIS7_EEEEED2B7v160006Ev, symObjAddr: 0xB21C, symBinAddr: 0x10000E214, symSize: 0x54 }
  - { offsetInCU: 0x5C831, offset: 0x5C831, size: 0x8, addend: 0x0, symName: __ZNSt3__119__shared_weak_count16__release_sharedB7v160006Ev, symObjAddr: 0xB270, symBinAddr: 0x10000E268, symSize: 0x3C }
  - { offsetInCU: 0x5C857, offset: 0x5C857, size: 0x8, addend: 0x0, symName: __ZNSt3__114__shared_count16__release_sharedB7v160006Ev, symObjAddr: 0xB2AC, symBinAddr: 0x10000E2A4, symSize: 0x7C }
  - { offsetInCU: 0x5C87D, offset: 0x5C87D, size: 0x8, addend: 0x0, symName: __ZN5boost4core17basic_string_viewIcEC2EPKc, symObjAddr: 0xB358, symBinAddr: 0x10000E350, symSize: 0x44 }
  - { offsetInCU: 0x5C8B6, offset: 0x5C8B6, size: 0x8, addend: 0x0, symName: __ZN5boost5beast4http7messageILb0ENS1_18basic_dynamic_bodyINS0_18basic_multi_bufferINSt3__19allocatorIcEEEEEENS1_12basic_fieldsIS7_EEEC2Ev, symObjAddr: 0xB39C, symBinAddr: 0x10000E394, symSize: 0x38 }
  - { offsetInCU: 0x5C8E0, offset: 0x5C8E0, size: 0x8, addend: 0x0, symName: __ZN5boost5beast4http6headerILb0ENS1_12basic_fieldsINSt3__19allocatorIcEEEEEC2Ev, symObjAddr: 0xB3D4, symBinAddr: 0x10000E3CC, symSize: 0x3C }
  - { offsetInCU: 0x5C90A, offset: 0x5C90A, size: 0x8, addend: 0x0, symName: __ZN5boost6empty_11empty_valueINS_5beast18basic_multi_bufferINSt3__19allocatorIcEEEELj0ELb0EEC2Ev, symObjAddr: 0xB410, symBinAddr: 0x10000E408, symSize: 0x2C }
  - { offsetInCU: 0x5C934, offset: 0x5C934, size: 0x8, addend: 0x0, symName: __ZN5boost5beast4http12basic_fieldsINSt3__19allocatorIcEEEC2Ev, symObjAddr: 0xB43C, symBinAddr: 0x10000E434, symSize: 0x80 }
  - { offsetInCU: 0x5C95E, offset: 0x5C95E, size: 0x8, addend: 0x0, symName: __ZN5boost6empty_11empty_valueINSt3__19allocatorIcEELj0ELb1EEC2Ev, symObjAddr: 0xB4BC, symBinAddr: 0x10000E4B4, symSize: 0x2C }
  - { offsetInCU: 0x5C988, offset: 0x5C988, size: 0x8, addend: 0x0, symName: __ZN5boost9intrusive13multiset_implINS0_8bhtraitsINS_5beast4http12basic_fieldsINSt3__19allocatorIcEEE7elementENS0_18rbtree_node_traitsIPvLb0EEELNS0_14link_mode_typeE0ENS0_7dft_tagELj3EEEvNS9_11key_compareEmLb0EvEC1Ev, symObjAddr: 0xB4E8, symBinAddr: 0x10000E4E0, symSize: 0x2C }
  - { offsetInCU: 0x5C9B2, offset: 0x5C9B2, size: 0x8, addend: 0x0, symName: __ZN5boost9intrusive9list_implINS0_8bhtraitsINS_5beast4http12basic_fieldsINSt3__19allocatorIcEEE7elementENS0_16list_node_traitsIPvEELNS0_14link_mode_typeE0ENS0_7dft_tagELj1EEEmLb0EvEC1Ev, symObjAddr: 0xB514, symBinAddr: 0x10000E50C, symSize: 0x2C }
  - { offsetInCU: 0x5C9DC, offset: 0x5C9DC, size: 0x8, addend: 0x0, symName: __ZN5boost4core17basic_string_viewIcEC1Ev, symObjAddr: 0xB540, symBinAddr: 0x10000E538, symSize: 0x2C }
  - { offsetInCU: 0x5CA06, offset: 0x5CA06, size: 0x8, addend: 0x0, symName: __ZN5boost9intrusive13multiset_implINS0_8bhtraitsINS_5beast4http12basic_fieldsINSt3__19allocatorIcEEE7elementENS0_18rbtree_node_traitsIPvLb0EEELNS0_14link_mode_typeE0ENS0_7dft_tagELj3EEEvNS9_11key_compareEmLb0EvED1Ev, symObjAddr: 0xB56C, symBinAddr: 0x10000E564, symSize: 0x2C }
  - { offsetInCU: 0x5CA33, offset: 0x5CA33, size: 0x8, addend: 0x0, symName: __ZN5boost9intrusive13multiset_implINS0_8bhtraitsINS_5beast4http12basic_fieldsINSt3__19allocatorIcEEE7elementENS0_18rbtree_node_traitsIPvLb0EEELNS0_14link_mode_typeE0ENS0_7dft_tagELj3EEEvNS9_11key_compareEmLb0EvEC2Ev, symObjAddr: 0xB598, symBinAddr: 0x10000E590, symSize: 0x2C }
  - { offsetInCU: 0x5CAD1, offset: 0x5CAD1, size: 0x8, addend: 0x0, symName: __ZN5boost9intrusive11bstree_implINS0_8bhtraitsINS_5beast4http12basic_fieldsINSt3__19allocatorIcEEE7elementENS0_18rbtree_node_traitsIPvLb0EEELNS0_14link_mode_typeE0ENS0_7dft_tagELj3EEEvNS9_11key_compareEmLb0ELNS0_10algo_typesE5EvEC2Ev, symObjAddr: 0xB5C4, symBinAddr: 0x10000E5BC, symSize: 0x64 }
  - { offsetInCU: 0x5CCC8, offset: 0x5CCC8, size: 0x8, addend: 0x0, symName: __ZN5boost9intrusive8bstbase2INS0_8bhtraitsINS_5beast4http12basic_fieldsINSt3__19allocatorIcEEE7elementENS0_18rbtree_node_traitsIPvLb0EEELNS0_14link_mode_typeE0ENS0_7dft_tagELj3EEEvNS9_11key_compareELNS0_10algo_typesE5EvEC2ERKSH_RKSG_, symObjAddr: 0xB628, symBinAddr: 0x10000E620, symSize: 0x110 }
  - { offsetInCU: 0x5CEFB, offset: 0x5CEFB, size: 0x8, addend: 0x0, symName: __ZN5boost9intrusive17rbtree_algorithmsINS0_18rbtree_node_traitsIPvLb0EEEE11init_headerEPNS0_11rbtree_nodeIS3_EE, symObjAddr: 0xB738, symBinAddr: 0x10000E730, symSize: 0x4C }
  - { offsetInCU: 0x5CF5E, offset: 0x5CF5E, size: 0x8, addend: 0x0, symName: __ZN5boost9intrusive6detail21default_header_holderINS0_18rbtree_node_traitsIPvLb0EEEEC1Ev, symObjAddr: 0xB784, symBinAddr: 0x10000E77C, symSize: 0x2C }
  - { offsetInCU: 0x5CF88, offset: 0x5CF88, size: 0x8, addend: 0x0, symName: __ZN5boost9intrusive6detail21default_header_holderINS0_18rbtree_node_traitsIPvLb0EEEEC2Ev, symObjAddr: 0xB7B0, symBinAddr: 0x10000E7A8, symSize: 0x20 }
  - { offsetInCU: 0x5D012, offset: 0x5D012, size: 0x8, addend: 0x0, symName: __ZN5boost9intrusive17bstree_algorithmsINS0_18rbtree_node_traitsIPvLb0EEEE11init_headerEPNS0_11rbtree_nodeIS3_EE, symObjAddr: 0xB7D0, symBinAddr: 0x10000E7C8, symSize: 0x6C }
  - { offsetInCU: 0x5D14A, offset: 0x5D14A, size: 0x8, addend: 0x0, symName: __ZN5boost9intrusive9list_implINS0_8bhtraitsINS_5beast4http12basic_fieldsINSt3__19allocatorIcEEE7elementENS0_16list_node_traitsIPvEELNS0_14link_mode_typeE0ENS0_7dft_tagELj1EEEmLb0EvEC2Ev, symObjAddr: 0xB83C, symBinAddr: 0x10000E834, symSize: 0x84 }
  - { offsetInCU: 0x5D281, offset: 0x5D281, size: 0x8, addend: 0x0, symName: __ZN5boost9intrusive24circular_list_algorithmsINS0_16list_node_traitsIPvEEE11init_headerEPNS0_9list_nodeIS3_EE, symObjAddr: 0xB8C0, symBinAddr: 0x10000E8B8, symSize: 0x50 }
  - { offsetInCU: 0x5D2FA, offset: 0x5D2FA, size: 0x8, addend: 0x0, symName: __ZN5boost9intrusive9list_implINS0_8bhtraitsINS_5beast4http12basic_fieldsINSt3__19allocatorIcEEE7elementENS0_16list_node_traitsIPvEELNS0_14link_mode_typeE0ENS0_7dft_tagELj1EEEmLb0EvE14root_plus_sizeC1Ev, symObjAddr: 0xB910, symBinAddr: 0x10000E908, symSize: 0x2C }
  - { offsetInCU: 0x5D326, offset: 0x5D326, size: 0x8, addend: 0x0, symName: __ZN5boost9intrusive9list_implINS0_8bhtraitsINS_5beast4http12basic_fieldsINSt3__19allocatorIcEEE7elementENS0_16list_node_traitsIPvEELNS0_14link_mode_typeE0ENS0_7dft_tagELj1EEEmLb0EvE14root_plus_sizeC2Ev, symObjAddr: 0xB93C, symBinAddr: 0x10000E934, symSize: 0x2C }
  - { offsetInCU: 0x5D352, offset: 0x5D352, size: 0x8, addend: 0x0, symName: __ZN5boost9intrusive6detail21default_header_holderINS0_16list_node_traitsIPvEEEC1Ev, symObjAddr: 0xB968, symBinAddr: 0x10000E960, symSize: 0x2C }
  - { offsetInCU: 0x5D37C, offset: 0x5D37C, size: 0x8, addend: 0x0, symName: __ZN5boost9intrusive6detail21default_header_holderINS0_16list_node_traitsIPvEEEC2Ev, symObjAddr: 0xB994, symBinAddr: 0x10000E98C, symSize: 0x1C }
  - { offsetInCU: 0x5D3A6, offset: 0x5D3A6, size: 0x8, addend: 0x0, symName: __ZN5boost4core17basic_string_viewIcEC2Ev, symObjAddr: 0xB9B0, symBinAddr: 0x10000E9A8, symSize: 0x1C }
  - { offsetInCU: 0x5D3D0, offset: 0x5D3D0, size: 0x8, addend: 0x0, symName: __ZN5boost9intrusive13multiset_implINS0_8bhtraitsINS_5beast4http12basic_fieldsINSt3__19allocatorIcEEE7elementENS0_18rbtree_node_traitsIPvLb0EEELNS0_14link_mode_typeE0ENS0_7dft_tagELj3EEEvNS9_11key_compareEmLb0EvED2Ev, symObjAddr: 0xB9CC, symBinAddr: 0x10000E9C4, symSize: 0x2C }
  - { offsetInCU: 0x5D3FD, offset: 0x5D3FD, size: 0x8, addend: 0x0, symName: __ZN5boost9intrusive11bstree_implINS0_8bhtraitsINS_5beast4http12basic_fieldsINSt3__19allocatorIcEEE7elementENS0_18rbtree_node_traitsIPvLb0EEELNS0_14link_mode_typeE0ENS0_7dft_tagELj3EEEvNS9_11key_compareEmLb0ELNS0_10algo_typesE5EvED2Ev, symObjAddr: 0xB9F8, symBinAddr: 0x10000E9F0, symSize: 0x2C }
  - { offsetInCU: 0x5D42A, offset: 0x5D42A, size: 0x8, addend: 0x0, symName: __ZN5boost9intrusive7bstbaseINS0_8bhtraitsINS_5beast4http12basic_fieldsINSt3__19allocatorIcEEE7elementENS0_18rbtree_node_traitsIPvLb0EEELNS0_14link_mode_typeE0ENS0_7dft_tagELj3EEEvNS9_11key_compareELb0EmLNS0_10algo_typesE5EvED2Ev, symObjAddr: 0xBA24, symBinAddr: 0x10000EA1C, symSize: 0x14 }
  - { offsetInCU: 0x5D454, offset: 0x5D454, size: 0x8, addend: 0x0, symName: __ZN5boost5beast18basic_multi_bufferINSt3__19allocatorIcEEEC1Ev, symObjAddr: 0xBA38, symBinAddr: 0x10000EA30, symSize: 0x2C }
  - { offsetInCU: 0x5D5B6, offset: 0x5D5B6, size: 0x8, addend: 0x0, symName: __ZN5boost5beast18basic_multi_bufferINSt3__19allocatorIcEEEC2Ev, symObjAddr: 0xBA64, symBinAddr: 0x10000EA5C, symSize: 0x14C }
  - { offsetInCU: 0x5D7BC, offset: 0x5D7BC, size: 0x8, addend: 0x0, symName: __ZNSt3__116allocator_traitsINS_9allocatorIN5boost11tt_align_ns2a8EEEE8max_sizeB7v160006IS5_vEEmRKS5_, symObjAddr: 0xBBB0, symBinAddr: 0x10000EBA8, symSize: 0x24 }
  - { offsetInCU: 0x5D7EB, offset: 0x5D7EB, size: 0x8, addend: 0x0, symName: __ZN5boost6empty_11empty_valueINSt3__19allocatorIcEELj0ELb1EE3getEv, symObjAddr: 0xBBD4, symBinAddr: 0x10000EBCC, symSize: 0x14 }
  - { offsetInCU: 0x5D811, offset: 0x5D811, size: 0x8, addend: 0x0, symName: __ZNSt3__19allocatorIN5boost11tt_align_ns2a8EEC1B7v160006IcEERKNS0_IT_EE, symObjAddr: 0xBBE8, symBinAddr: 0x10000EBE0, symSize: 0x34 }
  - { offsetInCU: 0x5D84E, offset: 0x5D84E, size: 0x8, addend: 0x0, symName: __ZN5boost9intrusive9list_implINS0_8bhtraitsINS_5beast18basic_multi_bufferINSt3__19allocatorIcEEE7elementENS0_16list_node_traitsIPvEELNS0_14link_mode_typeE0ENS0_7dft_tagELj1EEEmLb0EvEC1Ev, symObjAddr: 0xBC1C, symBinAddr: 0x10000EC14, symSize: 0x2C }
  - { offsetInCU: 0x5D878, offset: 0x5D878, size: 0x8, addend: 0x0, symName: __ZNKSt3__19allocatorIN5boost11tt_align_ns2a8EE8max_sizeB7v160006Ev, symObjAddr: 0xBC48, symBinAddr: 0x10000EC40, symSize: 0x14 }
  - { offsetInCU: 0x5D89E, offset: 0x5D89E, size: 0x8, addend: 0x0, symName: __ZNSt3__19allocatorIN5boost11tt_align_ns2a8EEC2B7v160006IcEERKNS0_IT_EE, symObjAddr: 0xBC5C, symBinAddr: 0x10000EC54, symSize: 0x30 }
  - { offsetInCU: 0x5D8DB, offset: 0x5D8DB, size: 0x8, addend: 0x0, symName: __ZNSt3__116__non_trivial_ifILb1ENS_9allocatorIN5boost11tt_align_ns2a8EEEEC2B7v160006Ev, symObjAddr: 0xBC8C, symBinAddr: 0x10000EC84, symSize: 0x14 }
  - { offsetInCU: 0x5D957, offset: 0x5D957, size: 0x8, addend: 0x0, symName: __ZN5boost9intrusive9list_implINS0_8bhtraitsINS_5beast18basic_multi_bufferINSt3__19allocatorIcEEE7elementENS0_16list_node_traitsIPvEELNS0_14link_mode_typeE0ENS0_7dft_tagELj1EEEmLb0EvEC2Ev, symObjAddr: 0xBCA0, symBinAddr: 0x10000EC98, symSize: 0x84 }
  - { offsetInCU: 0x5DA54, offset: 0x5DA54, size: 0x8, addend: 0x0, symName: __ZN5boost9intrusive9list_implINS0_8bhtraitsINS_5beast18basic_multi_bufferINSt3__19allocatorIcEEE7elementENS0_16list_node_traitsIPvEELNS0_14link_mode_typeE0ENS0_7dft_tagELj1EEEmLb0EvE14root_plus_sizeC1Ev, symObjAddr: 0xBD24, symBinAddr: 0x10000ED1C, symSize: 0x2C }
  - { offsetInCU: 0x5DA80, offset: 0x5DA80, size: 0x8, addend: 0x0, symName: __ZN5boost9intrusive9list_implINS0_8bhtraitsINS_5beast18basic_multi_bufferINSt3__19allocatorIcEEE7elementENS0_16list_node_traitsIPvEELNS0_14link_mode_typeE0ENS0_7dft_tagELj1EEEmLb0EvE14root_plus_sizeC2Ev, symObjAddr: 0xBD50, symBinAddr: 0x10000ED48, symSize: 0x2C }
  - { offsetInCU: 0x5DAAC, offset: 0x5DAAC, size: 0x8, addend: 0x0, symName: __ZN5boost6system10error_codeC2Ev, symObjAddr: 0xBD7C, symBinAddr: 0x10000ED74, symSize: 0x20 }
  - { offsetInCU: 0x5DAD6, offset: 0x5DAD6, size: 0x8, addend: 0x0, symName: __ZN5boost5beast4http7messageILb0ENS1_18basic_dynamic_bodyINS0_18basic_multi_bufferINSt3__19allocatorIcEEEEEENS1_12basic_fieldsIS7_EEED2Ev, symObjAddr: 0xBD9C, symBinAddr: 0x10000ED94, symSize: 0x38 }
  - { offsetInCU: 0x5DB03, offset: 0x5DB03, size: 0x8, addend: 0x0, symName: __ZN5boost6empty_11empty_valueINS_5beast18basic_multi_bufferINSt3__19allocatorIcEEEELj0ELb0EED2Ev, symObjAddr: 0xBDD4, symBinAddr: 0x10000EDCC, symSize: 0x2C }
  - { offsetInCU: 0x5DB2F, offset: 0x5DB2F, size: 0x8, addend: 0x0, symName: __ZN5boost5beast4http6headerILb0ENS1_12basic_fieldsINSt3__19allocatorIcEEEEED2Ev, symObjAddr: 0xBE00, symBinAddr: 0x10000EDF8, symSize: 0x2C }
  - { offsetInCU: 0x5DB5B, offset: 0x5DB5B, size: 0x8, addend: 0x0, symName: __ZN5boost5beast18basic_multi_bufferINSt3__19allocatorIcEEED1Ev, symObjAddr: 0xBE2C, symBinAddr: 0x10000EE24, symSize: 0x2C }
  - { offsetInCU: 0x5DB88, offset: 0x5DB88, size: 0x8, addend: 0x0, symName: __ZN5boost5beast18basic_multi_bufferINSt3__19allocatorIcEEED2Ev, symObjAddr: 0xBE58, symBinAddr: 0x10000EE50, symSize: 0x40 }
  - { offsetInCU: 0x5DCFE, offset: 0x5DCFE, size: 0x8, addend: 0x0, symName: __ZN5boost5beast18basic_multi_bufferINSt3__19allocatorIcEEE7destroyERNS_9intrusive9list_implINS6_8bhtraitsINS5_7elementENS6_16list_node_traitsIPvEELNS6_14link_mode_typeE0ENS6_7dft_tagELj1EEEmLb0EvEE, symObjAddr: 0xBE98, symBinAddr: 0x10000EE90, symSize: 0x3B0 }
  - { offsetInCU: 0x5E3C9, offset: 0x5E3C9, size: 0x8, addend: 0x0, symName: __ZN5boost9intrusive9list_implINS0_8bhtraitsINS_5beast18basic_multi_bufferINSt3__19allocatorIcEEE7elementENS0_16list_node_traitsIPvEELNS0_14link_mode_typeE0ENS0_7dft_tagELj1EEEmLb0EvED1Ev, symObjAddr: 0xC248, symBinAddr: 0x10000F240, symSize: 0x2C }
  - { offsetInCU: 0x5E3F3, offset: 0x5E3F3, size: 0x8, addend: 0x0, symName: __ZN5boost5beast18basic_multi_bufferINSt3__19allocatorIcEEE7destroyERNS5_7elementE, symObjAddr: 0xC274, symBinAddr: 0x10000F26C, symSize: 0x70 }
  - { offsetInCU: 0x5E449, offset: 0x5E449, size: 0x8, addend: 0x0, symName: __ZNK5boost5beast18basic_multi_bufferINSt3__19allocatorIcEEE7element4sizeEv, symObjAddr: 0xC2E4, symBinAddr: 0x10000F2DC, symSize: 0x18 }
  - { offsetInCU: 0x5E46F, offset: 0x5E46F, size: 0x8, addend: 0x0, symName: __ZN5boost5beast18basic_multi_bufferINSt3__19allocatorIcEEE7elementD1Ev, symObjAddr: 0xC2FC, symBinAddr: 0x10000F2F4, symSize: 0x2C }
  - { offsetInCU: 0x5E49B, offset: 0x5E49B, size: 0x8, addend: 0x0, symName: __ZNSt3__116allocator_traitsINS_9allocatorIN5boost11tt_align_ns2a8EEEE10deallocateB7v160006ERS5_PS4_m, symObjAddr: 0xC328, symBinAddr: 0x10000F320, symSize: 0x34 }
  - { offsetInCU: 0x5E4DD, offset: 0x5E4DD, size: 0x8, addend: 0x0, symName: __ZN5boost5beast18basic_multi_bufferINSt3__19allocatorIcEEE7elementD2Ev, symObjAddr: 0xC35C, symBinAddr: 0x10000F354, symSize: 0x2C }
  - { offsetInCU: 0x5E52F, offset: 0x5E52F, size: 0x8, addend: 0x0, symName: __ZN5boost9intrusive14list_base_hookIJNS0_9link_modeILNS0_14link_mode_typeE0EEEEED2Ev, symObjAddr: 0xC388, symBinAddr: 0x10000F380, symSize: 0x2C }
  - { offsetInCU: 0x5E599, offset: 0x5E599, size: 0x8, addend: 0x0, symName: __ZNSt3__19allocatorIN5boost11tt_align_ns2a8EE10deallocateB7v160006EPS3_m, symObjAddr: 0xC3B4, symBinAddr: 0x10000F3AC, symSize: 0x40 }
  - { offsetInCU: 0x5E5DB, offset: 0x5E5DB, size: 0x8, addend: 0x0, symName: __ZN5boost9intrusive9list_implINS0_8bhtraitsINS_5beast18basic_multi_bufferINSt3__19allocatorIcEEE7elementENS0_16list_node_traitsIPvEELNS0_14link_mode_typeE0ENS0_7dft_tagELj1EEEmLb0EvED2Ev, symObjAddr: 0xC51C, symBinAddr: 0x10000F514, symSize: 0x14 }
  - { offsetInCU: 0x5E605, offset: 0x5E605, size: 0x8, addend: 0x0, symName: __ZN5boost5beast4http12basic_fieldsINSt3__19allocatorIcEEED2Ev, symObjAddr: 0xC530, symBinAddr: 0x10000F528, symSize: 0xA0 }
  - { offsetInCU: 0x5E86A, offset: 0x5E86A, size: 0x8, addend: 0x0, symName: __ZN5boost5beast4http12basic_fieldsINSt3__19allocatorIcEEE11delete_listEv, symObjAddr: 0xC5D0, symBinAddr: 0x10000F5C8, symSize: 0x354 }
  - { offsetInCU: 0x5EF08, offset: 0x5EF08, size: 0x8, addend: 0x0, symName: __ZN5boost5beast4http12basic_fieldsINSt3__19allocatorIcEEE14realloc_stringERNS_4core17basic_string_viewIcEES9_, symObjAddr: 0xC924, symBinAddr: 0x10000F91C, symSize: 0x14C }
  - { offsetInCU: 0x5EF6D, offset: 0x5EF6D, size: 0x8, addend: 0x0, symName: __ZN5boost9intrusive9list_implINS0_8bhtraitsINS_5beast4http12basic_fieldsINSt3__19allocatorIcEEE7elementENS0_16list_node_traitsIPvEELNS0_14link_mode_typeE0ENS0_7dft_tagELj1EEEmLb0EvED1Ev, symObjAddr: 0xCA70, symBinAddr: 0x10000FA68, symSize: 0x2C }
  - { offsetInCU: 0x5EF97, offset: 0x5EF97, size: 0x8, addend: 0x0, symName: __ZN5boost5beast4http12basic_fieldsINSt3__19allocatorIcEEE14delete_elementERNS6_7elementE, symObjAddr: 0xCA9C, symBinAddr: 0x10000FA94, symSize: 0x80 }
  - { offsetInCU: 0x5EFED, offset: 0x5EFED, size: 0x8, addend: 0x0, symName: __ZN5boost5beast4http12basic_fieldsINSt3__19allocatorIcEEE7elementD1Ev, symObjAddr: 0xCB1C, symBinAddr: 0x10000FB14, symSize: 0x2C }
  - { offsetInCU: 0x5F019, offset: 0x5F019, size: 0x8, addend: 0x0, symName: __ZN5boost5beast4http12basic_fieldsINSt3__19allocatorIcEEE7elementD2Ev, symObjAddr: 0xCB48, symBinAddr: 0x10000FB40, symSize: 0x38 }
  - { offsetInCU: 0x5F06B, offset: 0x5F06B, size: 0x8, addend: 0x0, symName: __ZN5boost9intrusive13set_base_hookIJNS0_9link_modeILNS0_14link_mode_typeE0EEEEED2Ev, symObjAddr: 0xCB80, symBinAddr: 0x10000FB78, symSize: 0x2C }
  - { offsetInCU: 0x5F0D5, offset: 0x5F0D5, size: 0x8, addend: 0x0, symName: __ZNK5boost4core17basic_string_viewIcE5emptyEv, symObjAddr: 0xCBAC, symBinAddr: 0x10000FBA4, symSize: 0x24 }
  - { offsetInCU: 0x5F0FB, offset: 0x5F0FB, size: 0x8, addend: 0x0, symName: __ZNSt3__19allocatorIcE8allocateB7v160006Em, symObjAddr: 0xCBD0, symBinAddr: 0x10000FBC8, symSize: 0x58 }
  - { offsetInCU: 0x5F12F, offset: 0x5F12F, size: 0x8, addend: 0x0, symName: __ZNK5boost4core17basic_string_viewIcE4sizeEv, symObjAddr: 0xCC28, symBinAddr: 0x10000FC20, symSize: 0x18 }
  - { offsetInCU: 0x5F155, offset: 0x5F155, size: 0x8, addend: 0x0, symName: __ZNK5boost4core17basic_string_viewIcE4copyEPcmm, symObjAddr: 0xCC40, symBinAddr: 0x10000FC38, symSize: 0x114 }
  - { offsetInCU: 0x5F1B7, offset: 0x5F1B7, size: 0x8, addend: 0x0, symName: __ZNSt3__19allocatorIcE10deallocateB7v160006EPcm, symObjAddr: 0xCD54, symBinAddr: 0x10000FD4C, symSize: 0x40 }
  - { offsetInCU: 0x5F1F9, offset: 0x5F1F9, size: 0x8, addend: 0x0, symName: __ZNK5boost4core17basic_string_viewIcE4dataEv, symObjAddr: 0xCD94, symBinAddr: 0x10000FD8C, symSize: 0x18 }
  - { offsetInCU: 0x5F21F, offset: 0x5F21F, size: 0x8, addend: 0x0, symName: __ZN5boost4core17basic_string_viewIcEC1EPKcm, symObjAddr: 0xCDAC, symBinAddr: 0x10000FDA4, symSize: 0x3C }
  - { offsetInCU: 0x5F273, offset: 0x5F273, size: 0x8, addend: 0x0, symName: __ZNSt3__116allocator_traitsINS_9allocatorIcEEE8max_sizeB7v160006IS2_vEEmRKS2_, symObjAddr: 0xCDE8, symBinAddr: 0x10000FDE0, symSize: 0x24 }
  - { offsetInCU: 0x5F2A2, offset: 0x5F2A2, size: 0x8, addend: 0x0, symName: __ZNKSt3__19allocatorIcE8max_sizeB7v160006Ev, symObjAddr: 0xCEA0, symBinAddr: 0x10000FE98, symSize: 0x14 }
  - { offsetInCU: 0x5F2C8, offset: 0x5F2C8, size: 0x8, addend: 0x0, symName: __ZNSt12out_of_rangeC1B7v160006EPKc, symObjAddr: 0xCF78, symBinAddr: 0x10000FF70, symSize: 0x34 }
  - { offsetInCU: 0x5F300, offset: 0x5F300, size: 0x8, addend: 0x0, symName: __ZNSt3__111char_traitsIcE4copyEPcPKcm, symObjAddr: 0xCFD8, symBinAddr: 0x10000FFD0, symSize: 0x5C }
  - { offsetInCU: 0x5F351, offset: 0x5F351, size: 0x8, addend: 0x0, symName: __ZN5boost10wrapexceptISt12out_of_rangeEC1ERKS1_RKNS_15source_locationE, symObjAddr: 0xD034, symBinAddr: 0x10001002C, symSize: 0x3C }
  - { offsetInCU: 0x5F397, offset: 0x5F397, size: 0x8, addend: 0x0, symName: __ZN5boost10wrapexceptISt12out_of_rangeED1Ev, symObjAddr: 0xD070, symBinAddr: 0x100010068, symSize: 0x2C }
  - { offsetInCU: 0x5F3C3, offset: 0x5F3C3, size: 0x8, addend: 0x0, symName: __ZN5boost10wrapexceptISt12out_of_rangeEC2ERKS1_RKNS_15source_locationE, symObjAddr: 0xD09C, symBinAddr: 0x100010094, symSize: 0x188 }
  - { offsetInCU: 0x5F409, offset: 0x5F409, size: 0x8, addend: 0x0, symName: __ZNSt12out_of_rangeC2ERKS_, symObjAddr: 0xD224, symBinAddr: 0x10001021C, symSize: 0x4C }
  - { offsetInCU: 0x5F43D, offset: 0x5F43D, size: 0x8, addend: 0x0, symName: __ZN5boost10wrapexceptISt12out_of_rangeE9copy_fromEPKv, symObjAddr: 0xD270, symBinAddr: 0x100010268, symSize: 0x14 }
  - { offsetInCU: 0x5F46D, offset: 0x5F46D, size: 0x8, addend: 0x0, symName: __ZNK5boost10wrapexceptISt12out_of_rangeE5cloneEv, symObjAddr: 0xD324, symBinAddr: 0x10001031C, symSize: 0xE4 }
  - { offsetInCU: 0x5F4AF, offset: 0x5F4AF, size: 0x8, addend: 0x0, symName: __ZNK5boost10wrapexceptISt12out_of_rangeE7rethrowEv, symObjAddr: 0xD408, symBinAddr: 0x100010400, symSize: 0x6C }
  - { offsetInCU: 0x5F4D5, offset: 0x5F4D5, size: 0x8, addend: 0x0, symName: __ZN5boost10wrapexceptISt12out_of_rangeED0Ev, symObjAddr: 0xD474, symBinAddr: 0x10001046C, symSize: 0x30 }
  - { offsetInCU: 0x5F501, offset: 0x5F501, size: 0x8, addend: 0x0, symName: __ZThn8_N5boost10wrapexceptISt12out_of_rangeED1Ev, symObjAddr: 0xD4A4, symBinAddr: 0x10001049C, symSize: 0x1C }
  - { offsetInCU: 0x5F517, offset: 0x5F517, size: 0x8, addend: 0x0, symName: __ZThn8_N5boost10wrapexceptISt12out_of_rangeED0Ev, symObjAddr: 0xD4C0, symBinAddr: 0x1000104B8, symSize: 0x18 }
  - { offsetInCU: 0x5F52D, offset: 0x5F52D, size: 0x8, addend: 0x0, symName: __ZThn24_N5boost10wrapexceptISt12out_of_rangeED1Ev, symObjAddr: 0xD4D8, symBinAddr: 0x1000104D0, symSize: 0x1C }
  - { offsetInCU: 0x5F543, offset: 0x5F543, size: 0x8, addend: 0x0, symName: __ZThn24_N5boost10wrapexceptISt12out_of_rangeED0Ev, symObjAddr: 0xD4F4, symBinAddr: 0x1000104EC, symSize: 0x18 }
  - { offsetInCU: 0x5F55F, offset: 0x5F55F, size: 0x8, addend: 0x0, symName: __ZN5boost10wrapexceptISt12out_of_rangeEC1ERKS2_, symObjAddr: 0xD50C, symBinAddr: 0x100010504, symSize: 0x34 }
  - { offsetInCU: 0x5F5A0, offset: 0x5F5A0, size: 0x8, addend: 0x0, symName: __ZN5boost10wrapexceptISt12out_of_rangeE7deleterD1Ev, symObjAddr: 0xD540, symBinAddr: 0x100010538, symSize: 0x2C }
  - { offsetInCU: 0x5F5CA, offset: 0x5F5CA, size: 0x8, addend: 0x0, symName: __ZN5boost10wrapexceptISt12out_of_rangeEC2ERKS2_, symObjAddr: 0xD56C, symBinAddr: 0x100010564, symSize: 0xC4 }
  - { offsetInCU: 0x5F5FF, offset: 0x5F5FF, size: 0x8, addend: 0x0, symName: __ZN5boost10wrapexceptISt12out_of_rangeE7deleterD2Ev, symObjAddr: 0xD630, symBinAddr: 0x100010628, symSize: 0x58 }
  - { offsetInCU: 0x5F629, offset: 0x5F629, size: 0x8, addend: 0x0, symName: __ZN5boost10wrapexceptISt12out_of_rangeED2Ev, symObjAddr: 0xD688, symBinAddr: 0x100010680, symSize: 0x44 }
  - { offsetInCU: 0x5F655, offset: 0x5F655, size: 0x8, addend: 0x0, symName: __ZNSt12out_of_rangeC2B7v160006EPKc, symObjAddr: 0xD6CC, symBinAddr: 0x1000106C4, symSize: 0x4C }
  - { offsetInCU: 0x5F69F, offset: 0x5F69F, size: 0x8, addend: 0x0, symName: __ZNKSt3__16__lessImmEclB7v160006ERKmS3_, symObjAddr: 0xD76C, symBinAddr: 0x100010764, symSize: 0x34 }
  - { offsetInCU: 0x5F70D, offset: 0x5F70D, size: 0x8, addend: 0x0, symName: __ZNKSt3__114__copy_trivialclB7v160006IKccLi0EEENS_4pairIPT_PT0_EES5_S5_S7_, symObjAddr: 0xD9C0, symBinAddr: 0x1000109B8, symSize: 0x48 }
  - { offsetInCU: 0x5F79D, offset: 0x5F79D, size: 0x8, addend: 0x0, symName: __ZNSt3__14pairIPKcS2_EC1B7v160006IS2_S2_LPv0EEEOT_OT0_, symObjAddr: 0xDB28, symBinAddr: 0x100010B20, symSize: 0x3C }
  - { offsetInCU: 0x5F7FC, offset: 0x5F7FC, size: 0x8, addend: 0x0, symName: __ZNSt3__14pairIPKcS2_EC2B7v160006IS2_S2_LPv0EEEOT_OT0_, symObjAddr: 0xDB64, symBinAddr: 0x100010B5C, symSize: 0x34 }
  - { offsetInCU: 0x5F85B, offset: 0x5F85B, size: 0x8, addend: 0x0, symName: __ZNSt3__118__unwrap_iter_implIPKcLb1EE8__unwrapB7v160006ES2_, symObjAddr: 0xDB98, symBinAddr: 0x100010B90, symSize: 0x24 }
  - { offsetInCU: 0x5F885, offset: 0x5F885, size: 0x8, addend: 0x0, symName: __ZNSt3__14pairIPKcPcEC1B7v160006IRS2_S3_LPv0EEEOT_OT0_, symObjAddr: 0xDC70, symBinAddr: 0x100010C68, symSize: 0x3C }
  - { offsetInCU: 0x5F8E4, offset: 0x5F8E4, size: 0x8, addend: 0x0, symName: __ZNSt3__14pairIPKcPcEC2B7v160006IRS2_S3_LPv0EEEOT_OT0_, symObjAddr: 0xDCAC, symBinAddr: 0x100010CA4, symSize: 0x34 }
  - { offsetInCU: 0x5F943, offset: 0x5F943, size: 0x8, addend: 0x0, symName: __ZNSt3__118__unwrap_iter_implIPcLb1EE8__unwrapB7v160006ES1_, symObjAddr: 0xDCE0, symBinAddr: 0x100010CD8, symSize: 0x24 }
  - { offsetInCU: 0x5F967, offset: 0x5F967, size: 0x8, addend: 0x0, symName: __ZNSt3__14pairIPKcPcEC1B7v160006IS2_S3_LPv0EEEOT_OT0_, symObjAddr: 0xDD18, symBinAddr: 0x100010D10, symSize: 0x3C }
  - { offsetInCU: 0x5F9C6, offset: 0x5F9C6, size: 0x8, addend: 0x0, symName: __ZNSt3__14pairIPKcPcEC2B7v160006IS2_S3_LPv0EEEOT_OT0_, symObjAddr: 0xDD54, symBinAddr: 0x100010D4C, symSize: 0x34 }
  - { offsetInCU: 0x5FA25, offset: 0x5FA25, size: 0x8, addend: 0x0, symName: __ZNSt3__118__unwrap_iter_implIPKcLb1EE8__rewrapB7v160006ES2_S2_, symObjAddr: 0xDDC4, symBinAddr: 0x100010DBC, symSize: 0x48 }
  - { offsetInCU: 0x5FA58, offset: 0x5FA58, size: 0x8, addend: 0x0, symName: __ZNSt3__118__unwrap_iter_implIPcLb1EE8__rewrapB7v160006ES1_S1_, symObjAddr: 0xDE0C, symBinAddr: 0x100010E04, symSize: 0x48 }
  - { offsetInCU: 0x5FA8B, offset: 0x5FA8B, size: 0x8, addend: 0x0, symName: __ZN5boost4core17basic_string_viewIcEC2EPKcm, symObjAddr: 0xDE54, symBinAddr: 0x100010E4C, symSize: 0x2C }
  - { offsetInCU: 0x5FAD3, offset: 0x5FAD3, size: 0x8, addend: 0x0, symName: __ZN5boost9intrusive9list_implINS0_8bhtraitsINS_5beast4http12basic_fieldsINSt3__19allocatorIcEEE7elementENS0_16list_node_traitsIPvEELNS0_14link_mode_typeE0ENS0_7dft_tagELj1EEEmLb0EvED2Ev, symObjAddr: 0xDE80, symBinAddr: 0x100010E78, symSize: 0x14 }
  - { offsetInCU: 0x5FAFD, offset: 0x5FAFD, size: 0x8, addend: 0x0, symName: __ZN5boost5beast4http7messageILb1ENS1_17basic_string_bodyIcNSt3__111char_traitsIcEENS4_9allocatorIcEEEENS1_12basic_fieldsIS8_EEED2Ev, symObjAddr: 0xDE94, symBinAddr: 0x100010E8C, symSize: 0x38 }
  - { offsetInCU: 0x5FB2A, offset: 0x5FB2A, size: 0x8, addend: 0x0, symName: __ZN5boost6empty_11empty_valueINSt3__112basic_stringIcNS2_11char_traitsIcEENS2_9allocatorIcEEEELj0ELb0EED2Ev, symObjAddr: 0xDECC, symBinAddr: 0x100010EC4, symSize: 0x2C }
  - { offsetInCU: 0x5FB56, offset: 0x5FB56, size: 0x8, addend: 0x0, symName: __ZN5boost5beast4http6headerILb1ENS1_12basic_fieldsINSt3__19allocatorIcEEEEED2Ev, symObjAddr: 0xDEF8, symBinAddr: 0x100010EF0, symSize: 0x2C }
  - { offsetInCU: 0x5FB82, offset: 0x5FB82, size: 0x8, addend: 0x0, symName: __ZN5boost4asio2ip22basic_resolver_resultsINS1_3tcpEED2Ev, symObjAddr: 0xDF24, symBinAddr: 0x100010F1C, symSize: 0x2C }
  - { offsetInCU: 0x5FBAE, offset: 0x5FBAE, size: 0x8, addend: 0x0, symName: __ZN5boost4asio10io_contextD2Ev, symObjAddr: 0xDF50, symBinAddr: 0x100010F48, symSize: 0x3C }
  - { offsetInCU: 0x5FBDB, offset: 0x5FBDB, size: 0x8, addend: 0x0, symName: __ZN5boost4asio6detail7tss_ptrINS1_10call_stackINS1_14thread_contextENS1_16thread_info_baseEE7contextEEC2Ev, symObjAddr: 0xDF8C, symBinAddr: 0x100010F84, symSize: 0x2C }
  - { offsetInCU: 0x5FC07, offset: 0x5FC07, size: 0x8, addend: 0x0, symName: __ZN5boost4asio6detail13posix_tss_ptrINS1_10call_stackINS1_14thread_contextENS1_16thread_info_baseEE7contextEEC2Ev, symObjAddr: 0xDFB8, symBinAddr: 0x100010FB0, symSize: 0x5C }
  - { offsetInCU: 0x5FC31, offset: 0x5FC31, size: 0x8, addend: 0x0, symName: __ZN5boost4asio6detail7tss_ptrINS1_10call_stackINS1_14thread_contextENS1_16thread_info_baseEE7contextEED2Ev, symObjAddr: 0xE098, symBinAddr: 0x100011090, symSize: 0x2C }
  - { offsetInCU: 0x5FC5D, offset: 0x5FC5D, size: 0x8, addend: 0x0, symName: __ZN5boost4asio6detail13posix_tss_ptrINS1_10call_stackINS1_14thread_contextENS1_16thread_info_baseEE7contextEED2Ev, symObjAddr: 0xE0C4, symBinAddr: 0x1000110BC, symSize: 0x40 }
  - { offsetInCU: 0x5FC87, offset: 0x5FC87, size: 0x8, addend: 0x0, symName: __ZN5boost4asio6detail10service_idINS1_9schedulerEEC2Ev, symObjAddr: 0xE104, symBinAddr: 0x1000110FC, symSize: 0x2C }
  - { offsetInCU: 0x5FCB4, offset: 0x5FCB4, size: 0x8, addend: 0x0, symName: __ZN5boost4asio17execution_context2idC2Ev, symObjAddr: 0xE130, symBinAddr: 0x100011128, symSize: 0x2C }
  - { offsetInCU: 0x5FCDE, offset: 0x5FCDE, size: 0x8, addend: 0x0, symName: __ZN5boost4asio6detail10service_idINS1_9schedulerEED2Ev, symObjAddr: 0xE15C, symBinAddr: 0x100011154, symSize: 0x2C }
  - { offsetInCU: 0x5FD0B, offset: 0x5FD0B, size: 0x8, addend: 0x0, symName: __ZN5boost4asio17execution_context2idD2Ev, symObjAddr: 0xE188, symBinAddr: 0x100011180, symSize: 0x2C }
  - { offsetInCU: 0x5FD38, offset: 0x5FD38, size: 0x8, addend: 0x0, symName: __ZN5boost4asio6detail10service_idINS1_14kqueue_reactorEEC2Ev, symObjAddr: 0xE1B4, symBinAddr: 0x1000111AC, symSize: 0x2C }
  - { offsetInCU: 0x5FD65, offset: 0x5FD65, size: 0x8, addend: 0x0, symName: __ZN5boost4asio6detail10service_idINS1_14kqueue_reactorEED2Ev, symObjAddr: 0xE1E0, symBinAddr: 0x1000111D8, symSize: 0x2C }
  - { offsetInCU: 0x5FD92, offset: 0x5FD92, size: 0x8, addend: 0x0, symName: __ZN5boost4asio2ip14basic_resolverINS1_3tcpENS0_15any_io_executorEEC2INS0_10io_contextEEERT_NS0_10constraintIXsr14is_convertibleIS9_RNS0_17execution_contextEEE5valueEiE4typeE, symObjAddr: 0xE20C, symBinAddr: 0x100011204, symSize: 0x68 }
  - { offsetInCU: 0x5FDDD, offset: 0x5FDDD, size: 0x8, addend: 0x0, symName: __ZN5boost4asio6detail14io_object_implINS1_16resolver_serviceINS0_2ip3tcpEEENS0_15any_io_executorEEC1INS0_10io_contextEEEiiRT_, symObjAddr: 0xE274, symBinAddr: 0x10001126C, symSize: 0x44 }
  - { offsetInCU: 0x5FE37, offset: 0x5FE37, size: 0x8, addend: 0x0, symName: __ZN5boost4asio2ip13resolver_baseD2Ev, symObjAddr: 0xE2B8, symBinAddr: 0x1000112B0, symSize: 0x14 }
  - { offsetInCU: 0x5FE61, offset: 0x5FE61, size: 0x8, addend: 0x0, symName: __ZN5boost4asio6detail14io_object_implINS1_16resolver_serviceINS0_2ip3tcpEEENS0_15any_io_executorEEC2INS0_10io_contextEEEiiRT_, symObjAddr: 0xE2CC, symBinAddr: 0x1000112C4, symSize: 0xE8 }
  - { offsetInCU: 0x5FEBB, offset: 0x5FEBB, size: 0x8, addend: 0x0, symName: __ZNSt3__110shared_ptrIvEC1B7v160006Ev, symObjAddr: 0xE3E0, symBinAddr: 0x1000113D8, symSize: 0x2C }
  - { offsetInCU: 0x5FEE5, offset: 0x5FEE5, size: 0x8, addend: 0x0, symName: __ZN5boost4asio10io_context12get_executorEv, symObjAddr: 0xE40C, symBinAddr: 0x100011404, symSize: 0x38 }
  - { offsetInCU: 0x5FF0E, offset: 0x5FF0E, size: 0x8, addend: 0x0, symName: __ZN5boost4asio15any_io_executorC1INS0_10io_context19basic_executor_typeINSt3__19allocatorIvEELm0EEEEET_NS0_10constraintIXsr11conditionalIXaantsr7is_sameIS9_S1_EE5valuentsr10is_base_ofINS0_9execution6detail17any_executor_baseES9_EE5valueENSC_24is_valid_target_executorIS9_FvNSB_12context_as_tIRNS0_17execution_contextEEENSC_8blocking7never_tILi0EEENSB_11prefer_onlyINSJ_10possibly_tILi0EEEEENSM_INSC_16outstanding_work9tracked_tILi0EEEEENSM_INSQ_11untracked_tILi0EEEEENSM_INSC_12relationship6fork_tILi0EEEEENSM_INSX_14continuation_tILi0EEEEEEEENS5_17integral_constantIbLb0EEEE4typeE5valueEiE4typeE, symObjAddr: 0xE444, symBinAddr: 0x10001143C, symSize: 0x3C }
  - { offsetInCU: 0x5FF5D, offset: 0x5FF5D, size: 0x8, addend: 0x0, symName: __ZN5boost4asio10io_context19basic_executor_typeINSt3__19allocatorIvEELm0EED1Ev, symObjAddr: 0xE480, symBinAddr: 0x100011478, symSize: 0x2C }
  - { offsetInCU: 0x5FF87, offset: 0x5FF87, size: 0x8, addend: 0x0, symName: __ZN5boost4asio6detail21resolver_service_base9constructERNSt3__110shared_ptrIvEE, symObjAddr: 0xE4AC, symBinAddr: 0x1000114A4, symSize: 0x2C }
  - { offsetInCU: 0x5FFBF, offset: 0x5FFBF, size: 0x8, addend: 0x0, symName: __ZN5boost4asio15any_io_executorD1Ev, symObjAddr: 0xE4D8, symBinAddr: 0x1000114D0, symSize: 0x2C }
  - { offsetInCU: 0x5FFEC, offset: 0x5FFEC, size: 0x8, addend: 0x0, symName: __ZNSt3__110shared_ptrIvED1B7v160006Ev, symObjAddr: 0xE504, symBinAddr: 0x1000114FC, symSize: 0x2C }
  - { offsetInCU: 0x6001C, offset: 0x6001C, size: 0x8, addend: 0x0, symName: __ZN5boost4asio6detail16service_registry11use_serviceINS1_16resolver_serviceINS0_2ip3tcpEEEEERT_RNS0_10io_contextE, symObjAddr: 0xE530, symBinAddr: 0x100011528, symSize: 0x64 }
  - { offsetInCU: 0x60078, offset: 0x60078, size: 0x8, addend: 0x0, symName: __ZN5boost4asio6detail16service_registry8init_keyINS1_16resolver_serviceINS0_2ip3tcpEEEEEvRNS0_17execution_context7service3keyEz, symObjAddr: 0xE594, symBinAddr: 0x10001158C, symSize: 0x2C }
  - { offsetInCU: 0x600A8, offset: 0x600A8, size: 0x8, addend: 0x0, symName: __ZN5boost4asio6detail16service_registry6createINS1_16resolver_serviceINS0_2ip3tcpEEENS0_10io_contextEEEPNS0_17execution_context7serviceEPv, symObjAddr: 0xE5C0, symBinAddr: 0x1000115B8, symSize: 0x5C }
  - { offsetInCU: 0x600EC, offset: 0x600EC, size: 0x8, addend: 0x0, symName: __ZN5boost4asio6detail16service_registry16init_key_from_idINS1_16resolver_serviceINS0_2ip3tcpEEEEEvRNS0_17execution_context7service3keyERKNS1_10service_idIT_EE, symObjAddr: 0xE61C, symBinAddr: 0x100011614, symSize: 0x2C }
  - { offsetInCU: 0x60125, offset: 0x60125, size: 0x8, addend: 0x0, symName: __ZN5boost4asio6detail16resolver_serviceINS0_2ip3tcpEEC1ERNS0_17execution_contextE, symObjAddr: 0xE648, symBinAddr: 0x100011640, symSize: 0x34 }
  - { offsetInCU: 0x6015D, offset: 0x6015D, size: 0x8, addend: 0x0, symName: __ZN5boost4asio6detail16resolver_serviceINS0_2ip3tcpEEC2ERNS0_17execution_contextE, symObjAddr: 0xE67C, symBinAddr: 0x100011674, symSize: 0x84 }
  - { offsetInCU: 0x60195, offset: 0x60195, size: 0x8, addend: 0x0, symName: __ZN5boost4asio6detail30execution_context_service_baseINS1_16resolver_serviceINS0_2ip3tcpEEEEC2ERNS0_17execution_contextE, symObjAddr: 0xE700, symBinAddr: 0x1000116F8, symSize: 0x4C }
  - { offsetInCU: 0x601CE, offset: 0x601CE, size: 0x8, addend: 0x0, symName: __ZN5boost4asio6detail21resolver_service_baseC2ERNS0_17execution_contextE, symObjAddr: 0xE74C, symBinAddr: 0x100011744, symSize: 0x148 }
  - { offsetInCU: 0x6020A, offset: 0x6020A, size: 0x8, addend: 0x0, symName: __ZN5boost4asio6detail30execution_context_service_baseINS1_16resolver_serviceINS0_2ip3tcpEEEED2Ev, symObjAddr: 0xE894, symBinAddr: 0x10001188C, symSize: 0x2C }
  - { offsetInCU: 0x60237, offset: 0x60237, size: 0x8, addend: 0x0, symName: __ZN5boost4asio6detail16resolver_serviceINS0_2ip3tcpEED1Ev, symObjAddr: 0xE8C0, symBinAddr: 0x1000118B8, symSize: 0x2C }
  - { offsetInCU: 0x60263, offset: 0x60263, size: 0x8, addend: 0x0, symName: __ZN5boost4asio6detail16resolver_serviceINS0_2ip3tcpEED0Ev, symObjAddr: 0xE8EC, symBinAddr: 0x1000118E4, symSize: 0x30 }
  - { offsetInCU: 0x6028F, offset: 0x6028F, size: 0x8, addend: 0x0, symName: __ZN5boost4asio6detail16resolver_serviceINS0_2ip3tcpEE8shutdownEv, symObjAddr: 0xE91C, symBinAddr: 0x100011914, symSize: 0x28 }
  - { offsetInCU: 0x602B5, offset: 0x602B5, size: 0x8, addend: 0x0, symName: __ZN5boost4asio6detail16resolver_serviceINS0_2ip3tcpEE11notify_forkENS0_17execution_context10fork_eventE, symObjAddr: 0xE944, symBinAddr: 0x10001193C, symSize: 0x30 }
  - { offsetInCU: 0x602E9, offset: 0x602E9, size: 0x8, addend: 0x0, symName: __ZN5boost4asio6detail30execution_context_service_baseINS1_16resolver_serviceINS0_2ip3tcpEEEED1Ev, symObjAddr: 0xE974, symBinAddr: 0x10001196C, symSize: 0x14 }
  - { offsetInCU: 0x60316, offset: 0x60316, size: 0x8, addend: 0x0, symName: __ZN5boost4asio6detail30execution_context_service_baseINS1_16resolver_serviceINS0_2ip3tcpEEEED0Ev, symObjAddr: 0xE988, symBinAddr: 0x100011980, symSize: 0xC }
  - { offsetInCU: 0x60343, offset: 0x60343, size: 0x8, addend: 0x0, symName: __ZN5boost4asio6detail10scoped_ptrINS1_12posix_threadEEC1EPS3_, symObjAddr: 0xE994, symBinAddr: 0x10001198C, symSize: 0x34 }
  - { offsetInCU: 0x6037B, offset: 0x6037B, size: 0x8, addend: 0x0, symName: __ZN5boost4asio6detail10scoped_ptrINS1_9schedulerEEptEv, symObjAddr: 0xE9C8, symBinAddr: 0x1000119C0, symSize: 0x18 }
  - { offsetInCU: 0x603A1, offset: 0x603A1, size: 0x8, addend: 0x0, symName: __ZN5boost4asio6detail9scheduler12work_startedEv, symObjAddr: 0xE9E0, symBinAddr: 0x1000119D8, symSize: 0x28 }
  - { offsetInCU: 0x603C7, offset: 0x603C7, size: 0x8, addend: 0x0, symName: __ZN5boost4asio6detail10scoped_ptrINS1_12posix_threadEED1Ev, symObjAddr: 0xEA08, symBinAddr: 0x100011A00, symSize: 0x2C }
  - { offsetInCU: 0x603F1, offset: 0x603F1, size: 0x8, addend: 0x0, symName: __ZN5boost4asio6detail10scoped_ptrINS1_12posix_threadEEC2EPS3_, symObjAddr: 0xEA34, symBinAddr: 0x100011A2C, symSize: 0x20 }
  - { offsetInCU: 0x60429, offset: 0x60429, size: 0x8, addend: 0x0, symName: __ZN5boost4asio6detail10scoped_ptrINS1_12posix_threadEED2Ev, symObjAddr: 0xEA54, symBinAddr: 0x100011A4C, symSize: 0x58 }
  - { offsetInCU: 0x60453, offset: 0x60453, size: 0x8, addend: 0x0, symName: __ZN5boost4asio6detail16resolver_serviceINS0_2ip3tcpEED2Ev, symObjAddr: 0xEAAC, symBinAddr: 0x100011AA4, symSize: 0x38 }
  - { offsetInCU: 0x6047F, offset: 0x6047F, size: 0x8, addend: 0x0, symName: __ZN5boost4asio6detail21resolver_service_baseD2Ev, symObjAddr: 0xEAE4, symBinAddr: 0x100011ADC, symSize: 0x58 }
  - { offsetInCU: 0x604AC, offset: 0x604AC, size: 0x8, addend: 0x0, symName: __ZN5boost4asio6detail21resolver_service_base13base_shutdownEv, symObjAddr: 0xEB3C, symBinAddr: 0x100011B34, symSize: 0xB0 }
  - { offsetInCU: 0x604D5, offset: 0x604D5, size: 0x8, addend: 0x0, symName: __ZN5boost4asio6detail10scoped_ptrINS1_12posix_threadEE3getEv, symObjAddr: 0xEBEC, symBinAddr: 0x100011BE4, symSize: 0x18 }
  - { offsetInCU: 0x604FB, offset: 0x604FB, size: 0x8, addend: 0x0, symName: __ZN5boost4asio6detail10scoped_ptrINS1_12posix_threadEEptEv, symObjAddr: 0xEC04, symBinAddr: 0x100011BFC, symSize: 0x18 }
  - { offsetInCU: 0x60521, offset: 0x60521, size: 0x8, addend: 0x0, symName: __ZN5boost4asio6detail10scoped_ptrINS1_12posix_threadEE5resetEPS3_, symObjAddr: 0xEC1C, symBinAddr: 0x100011C14, symSize: 0x60 }
  - { offsetInCU: 0x60555, offset: 0x60555, size: 0x8, addend: 0x0, symName: __ZN5boost4asio6detail10scoped_ptrINS1_9schedulerEE5resetEPS3_, symObjAddr: 0xEC7C, symBinAddr: 0x100011C74, symSize: 0x60 }
  - { offsetInCU: 0x60589, offset: 0x60589, size: 0x8, addend: 0x0, symName: __ZN5boost4asio6detail21resolver_service_base16base_notify_forkENS0_17execution_context10fork_eventE, symObjAddr: 0xECDC, symBinAddr: 0x100011CD4, symSize: 0xB8 }
  - { offsetInCU: 0x605C1, offset: 0x605C1, size: 0x8, addend: 0x0, symName: __ZN5boost4asio6detail9scheduler7restartEv, symObjAddr: 0xED94, symBinAddr: 0x100011D8C, symSize: 0x44 }
  - { offsetInCU: 0x605F9, offset: 0x605F9, size: 0x8, addend: 0x0, symName: __ZNSt3__110shared_ptrIvEC2B7v160006Ev, symObjAddr: 0xEDD8, symBinAddr: 0x100011DD0, symSize: 0x1C }
  - { offsetInCU: 0x60623, offset: 0x60623, size: 0x8, addend: 0x0, symName: __ZN5boost4asio10io_context19basic_executor_typeINSt3__19allocatorIvEELm0EEC1ERS1_, symObjAddr: 0xEDF4, symBinAddr: 0x100011DEC, symSize: 0x34 }
  - { offsetInCU: 0x6065C, offset: 0x6065C, size: 0x8, addend: 0x0, symName: __ZN5boost4asio10io_context19basic_executor_typeINSt3__19allocatorIvEELm0EEC2ERS1_, symObjAddr: 0xEE28, symBinAddr: 0x100011E20, symSize: 0x20 }
  - { offsetInCU: 0x60695, offset: 0x60695, size: 0x8, addend: 0x0, symName: __ZN5boost4asio15any_io_executorC2INS0_10io_context19basic_executor_typeINSt3__19allocatorIvEELm0EEEEET_NS0_10constraintIXsr11conditionalIXaantsr7is_sameIS9_S1_EE5valuentsr10is_base_ofINS0_9execution6detail17any_executor_baseES9_EE5valueENSC_24is_valid_target_executorIS9_FvNSB_12context_as_tIRNS0_17execution_contextEEENSC_8blocking7never_tILi0EEENSB_11prefer_onlyINSJ_10possibly_tILi0EEEEENSM_INSC_16outstanding_work9tracked_tILi0EEEEENSM_INSQ_11untracked_tILi0EEEEENSM_INSC_12relationship6fork_tILi0EEEEENSM_INSX_14continuation_tILi0EEEEEEEENS5_17integral_constantIbLb0EEEE4typeE5valueEiE4typeE, symObjAddr: 0xEE48, symBinAddr: 0x100011E40, symSize: 0x7C }
  - { offsetInCU: 0x606E4, offset: 0x606E4, size: 0x8, addend: 0x0, symName: __ZN5boost4asio10io_context19basic_executor_typeINSt3__19allocatorIvEELm0EEC1EOS6_, symObjAddr: 0xEEC4, symBinAddr: 0x100011EBC, symSize: 0x34 }
  - { offsetInCU: 0x6071D, offset: 0x6071D, size: 0x8, addend: 0x0, symName: __ZN5boost4asio9execution12any_executorIJNS1_12context_as_tIRNS0_17execution_contextEEENS1_6detail8blocking7never_tILi0EEENS1_11prefer_onlyINS8_10possibly_tILi0EEEEENSB_INS7_16outstanding_work9tracked_tILi0EEEEENSB_INSF_11untracked_tILi0EEEEENSB_INS7_12relationship6fork_tILi0EEEEENSB_INSM_14continuation_tILi0EEEEEEEC2INS0_10io_context19basic_executor_typeINSt3__19allocatorIvEELm0EEEEET_PNSX_9enable_ifIXsr11conditionalIXaantsr7is_sameIS11_ST_EE5valuentsr10is_base_ofINS7_17any_executor_baseES11_EE5valueENS7_24is_valid_target_executorIS11_FvS6_SA_SE_SI_SL_SP_SS_EEENSX_17integral_constantIbLb0EEEE4typeE5valueEvE4typeE, symObjAddr: 0xEEF8, symBinAddr: 0x100011EF0, symSize: 0xA8 }
  - { offsetInCU: 0x6076B, offset: 0x6076B, size: 0x8, addend: 0x0, symName: __ZN5boost4asio10io_context19basic_executor_typeINSt3__19allocatorIvEELm0EEC2EOS6_, symObjAddr: 0xEFA0, symBinAddr: 0x100011F98, symSize: 0x24 }
  - { offsetInCU: 0x607A4, offset: 0x607A4, size: 0x8, addend: 0x0, symName: __ZN5boost4asio9execution6detail17any_executor_baseC2INS0_10io_context19basic_executor_typeINSt3__19allocatorIvEELm0EEEEET_NS7_17integral_constantIbLb0EEE, symObjAddr: 0xEFC4, symBinAddr: 0x100011FBC, symSize: 0x84 }
  - { offsetInCU: 0x607F2, offset: 0x607F2, size: 0x8, addend: 0x0, symName: __ZN5boost4asio9execution6detail17any_executor_baseD2Ev, symObjAddr: 0xF054, symBinAddr: 0x10001204C, symSize: 0x58 }
  - { offsetInCU: 0x6081C, offset: 0x6081C, size: 0x8, addend: 0x0, symName: __ZN5boost4asio9execution6detail17any_executor_base14query_blockingINS0_10io_context19basic_executor_typeINSt3__19allocatorIvEELm0EEEEENS2_10blocking_tILi0EEERKT_NS7_17integral_constantIbLb1EEE, symObjAddr: 0xF118, symBinAddr: 0x100012110, symSize: 0x3C }
  - { offsetInCU: 0x60854, offset: 0x60854, size: 0x8, addend: 0x0, symName: __ZN5boost4asio9execution6detail10blocking_tILi0EEC1ENS2_8blocking8always_tILi0EEE, symObjAddr: 0xF154, symBinAddr: 0x10001214C, symSize: 0x2C }
  - { offsetInCU: 0x60888, offset: 0x60888, size: 0x8, addend: 0x0, symName: __ZN5boost4asio9execution6detail17any_executor_base16construct_objectINS0_10io_context19basic_executor_typeINSt3__19allocatorIvEELm0EEEEEvRT_NS7_17integral_constantIbLb1EEE, symObjAddr: 0xF180, symBinAddr: 0x100012178, symSize: 0x50 }
  - { offsetInCU: 0x608D1, offset: 0x608D1, size: 0x8, addend: 0x0, symName: __ZN5boost4asio9execution6detail17any_executor_base14target_type_exINS0_10io_context19basic_executor_typeINSt3__19allocatorIvEELm0EEEEERKSt9type_infov, symObjAddr: 0xF1D0, symBinAddr: 0x1000121C8, symSize: 0xC }
  - { offsetInCU: 0x608EF, offset: 0x608EF, size: 0x8, addend: 0x0, symName: __ZN5boost4asio9execution6detail17any_executor_base8equal_exINS0_10io_context19basic_executor_typeINSt3__19allocatorIvEELm0EEEEEbRKS3_SC_, symObjAddr: 0xF1DC, symBinAddr: 0x1000121D4, symSize: 0x60 }
  - { offsetInCU: 0x60949, offset: 0x60949, size: 0x8, addend: 0x0, symName: __ZN5boost4asio9execution6detail17any_executor_base10execute_exINS0_10io_context19basic_executor_typeINSt3__19allocatorIvEELm0EEEEEvRKS3_ONS0_6detail17executor_functionE, symObjAddr: 0xF23C, symBinAddr: 0x100012234, symSize: 0x40 }
  - { offsetInCU: 0x60994, offset: 0x60994, size: 0x8, addend: 0x0, symName: __ZN5boost4asio9execution6detail17any_executor_base19blocking_execute_exINS0_10io_context19basic_executor_typeINSt3__19allocatorIvEELm0EEEEEvRKS3_NS0_6detail22executor_function_viewE, symObjAddr: 0xF27C, symBinAddr: 0x100012274, symSize: 0x4C }
  - { offsetInCU: 0x609DF, offset: 0x609DF, size: 0x8, addend: 0x0, symName: __ZNK5boost4asio9execution6detail17any_executor_base6targetINS0_10io_context19basic_executor_typeINSt3__19allocatorIvEELm0EEEEEPKT_v, symObjAddr: 0xF2C8, symBinAddr: 0x1000122C0, symSize: 0x84 }
  - { offsetInCU: 0x60A14, offset: 0x60A14, size: 0x8, addend: 0x0, symName: __ZNK31boost_asio_execution_execute_fn4implclIRKN5boost4asio10io_context19basic_executor_typeINSt3__19allocatorIvEELm0EEENS3_6detail17executor_functionEEENS6_9enable_ifIXeqsr11call_traitsIS0_T_FvT0_EEE8overloadLNS_13overload_typeE0EENS_11call_traitsIS0_SF_SH_vvvvvE11result_typeEE4typeEOSF_OSG_, symObjAddr: 0xF3CC, symBinAddr: 0x1000123C4, symSize: 0x30 }
  - { offsetInCU: 0x60A68, offset: 0x60A68, size: 0x8, addend: 0x0, symName: __ZNK5boost4asio10io_context19basic_executor_typeINSt3__19allocatorIvEELm0EE7executeINS0_6detail17executor_functionEEEvOT_, symObjAddr: 0xF3FC, symBinAddr: 0x1000123F4, symSize: 0x1F4 }
  - { offsetInCU: 0x60AF5, offset: 0x60AF5, size: 0x8, addend: 0x0, symName: __ZNK5boost4asio10io_context19basic_executor_typeINSt3__19allocatorIvEELm0EE4bitsEv, symObjAddr: 0xF5F0, symBinAddr: 0x1000125E8, symSize: 0x1C }
  - { offsetInCU: 0x60B1B, offset: 0x60B1B, size: 0x8, addend: 0x0, symName: __ZNK5boost4asio10io_context19basic_executor_typeINSt3__19allocatorIvEELm0EE11context_ptrEv, symObjAddr: 0xF60C, symBinAddr: 0x100012604, symSize: 0x1C }
  - { offsetInCU: 0x60B41, offset: 0x60B41, size: 0x8, addend: 0x0, symName: __ZN5boost4asio6detail9scheduler12can_dispatchEv, symObjAddr: 0xF628, symBinAddr: 0x100012620, symSize: 0x30 }
  - { offsetInCU: 0x60B6A, offset: 0x60B6A, size: 0x8, addend: 0x0, symName: __ZN5boost4asio6detail17executor_functionC1EOS2_, symObjAddr: 0xF658, symBinAddr: 0x100012650, symSize: 0x34 }
  - { offsetInCU: 0x60BA2, offset: 0x60BA2, size: 0x8, addend: 0x0, symName: __ZN5boost4asio6detail16std_fenced_blockC1ENS2_6full_tE, symObjAddr: 0xF68C, symBinAddr: 0x100012684, symSize: 0x34 }
  - { offsetInCU: 0x60BDA, offset: 0x60BDA, size: 0x8, addend: 0x0, symName: __ZN33boost_asio_handler_invoke_helpers6invokeIN5boost4asio6detail17executor_functionES4_EEvRT_RT0_, symObjAddr: 0xF6C0, symBinAddr: 0x1000126B8, symSize: 0x34 }
  - { offsetInCU: 0x60C25, offset: 0x60C25, size: 0x8, addend: 0x0, symName: __ZN33boost_asio_handler_invoke_helpers6invokeIN5boost4asio6detail22executor_function_viewES4_EEvRT_RT0_, symObjAddr: 0x110F4, symBinAddr: 0x1000140EC, symSize: 0x34 }
  - { offsetInCU: 0x60C72, offset: 0x60C72, size: 0x8, addend: 0x0, symName: __ZN5boost4asio6detail16std_fenced_blockD1Ev, symObjAddr: 0xF6F4, symBinAddr: 0x1000126EC, symSize: 0x2C }
  - { offsetInCU: 0x60C9C, offset: 0x60C9C, size: 0x8, addend: 0x0, symName: __ZN5boost4asio6detail9scheduler25capture_current_exceptionEv, symObjAddr: 0xF720, symBinAddr: 0x100012718, symSize: 0x48 }
  - { offsetInCU: 0x60CDB, offset: 0x60CDB, size: 0x8, addend: 0x0, symName: __ZN5boost4asio6detail17executor_functionD1Ev, symObjAddr: 0xF768, symBinAddr: 0x100012760, symSize: 0x2C }
  - { offsetInCU: 0x60D11, offset: 0x60D11, size: 0x8, addend: 0x0, symName: __ZN5boost4asio6detail11executor_opINS1_17executor_functionENSt3__19allocatorIvEENS1_19scheduler_operationEE3ptr8allocateERKS6_, symObjAddr: 0xF794, symBinAddr: 0x10001278C, symSize: 0x40 }
  - { offsetInCU: 0x60D4A, offset: 0x60D4A, size: 0x8, addend: 0x0, symName: __ZN5boost4asio6detail11executor_opINS1_17executor_functionENSt3__19allocatorIvEENS1_19scheduler_operationEEC1IS3_EEOT_RKS6_, symObjAddr: 0xF7D4, symBinAddr: 0x1000127CC, symSize: 0x3C }
  - { offsetInCU: 0x60D9B, offset: 0x60D9B, size: 0x8, addend: 0x0, symName: __ZN5boost4asio6detail9scheduler25post_immediate_completionEPNS1_19scheduler_operationEb, symObjAddr: 0xF810, symBinAddr: 0x100012808, symSize: 0xFC }
  - { offsetInCU: 0x60E07, offset: 0x60E07, size: 0x8, addend: 0x0, symName: __ZN5boost4asio6detail11executor_opINS1_17executor_functionENSt3__19allocatorIvEENS1_19scheduler_operationEE3ptrD1Ev, symObjAddr: 0xF90C, symBinAddr: 0x100012904, symSize: 0x2C }
  - { offsetInCU: 0x60E31, offset: 0x60E31, size: 0x8, addend: 0x0, symName: __ZN5boost4asio6detail10call_stackINS1_14thread_contextENS1_16thread_info_baseEE8containsEPS3_, symObjAddr: 0xF938, symBinAddr: 0x100012930, symSize: 0x8C }
  - { offsetInCU: 0x60E62, offset: 0x60E62, size: 0x8, addend: 0x0, symName: __ZN5boost4asio6detail17executor_functionC2EOS2_, symObjAddr: 0xF9C4, symBinAddr: 0x1000129BC, symSize: 0x2C }
  - { offsetInCU: 0x60E9A, offset: 0x60E9A, size: 0x8, addend: 0x0, symName: __ZN5boost4asio6detail16std_fenced_blockC2ENS2_6full_tE, symObjAddr: 0xF9F0, symBinAddr: 0x1000129E8, symSize: 0x38 }
  - { offsetInCU: 0x60ECE, offset: 0x60ECE, size: 0x8, addend: 0x0, symName: __ZN5boost4asio6detail17executor_functionclEv, symObjAddr: 0xFAE8, symBinAddr: 0x100012AE0, symSize: 0x64 }
  - { offsetInCU: 0x60F10, offset: 0x60F10, size: 0x8, addend: 0x0, symName: __ZN5boost4asio6detail16std_fenced_blockD2Ev, symObjAddr: 0xFB4C, symBinAddr: 0x100012B44, symSize: 0x38 }
  - { offsetInCU: 0x60F3A, offset: 0x60F3A, size: 0x8, addend: 0x0, symName: __ZN5boost4asio6detail16thread_info_base25capture_current_exceptionEv, symObjAddr: 0xFB84, symBinAddr: 0x100012B7C, symSize: 0xF0 }
  - { offsetInCU: 0x60F60, offset: 0x60F60, size: 0x8, addend: 0x0, symName: __ZN5boost4asio19multiple_exceptionsC1ESt13exception_ptr, symObjAddr: 0xFCFC, symBinAddr: 0x100012CF4, symSize: 0x34 }
  - { offsetInCU: 0x60F9B, offset: 0x60F9B, size: 0x8, addend: 0x0, symName: __ZN5boost4asio19multiple_exceptionsD1Ev, symObjAddr: 0xFD30, symBinAddr: 0x100012D28, symSize: 0x2C }
  - { offsetInCU: 0x60FCE, offset: 0x60FCE, size: 0x8, addend: 0x0, symName: __ZN5boost4asio19multiple_exceptionsC1ERKS1_, symObjAddr: 0xFD5C, symBinAddr: 0x100012D54, symSize: 0x34 }
  - { offsetInCU: 0x61004, offset: 0x61004, size: 0x8, addend: 0x0, symName: __ZN5boost4asio19multiple_exceptionsC2ERKS1_, symObjAddr: 0xFD90, symBinAddr: 0x100012D88, symSize: 0x60 }
  - { offsetInCU: 0x6103A, offset: 0x6103A, size: 0x8, addend: 0x0, symName: __ZNSt9exceptionC2B7v160006ERKS_, symObjAddr: 0xFDF0, symBinAddr: 0x100012DE8, symSize: 0x28 }
  - { offsetInCU: 0x6106E, offset: 0x6106E, size: 0x8, addend: 0x0, symName: __ZN5boost4asio19multiple_exceptionsD0Ev, symObjAddr: 0xFE18, symBinAddr: 0x100012E10, symSize: 0x30 }
  - { offsetInCU: 0x6109B, offset: 0x6109B, size: 0x8, addend: 0x0, symName: __ZNK5boost4asio19multiple_exceptions4whatEv, symObjAddr: 0xFE48, symBinAddr: 0x100012E40, symSize: 0x18 }
  - { offsetInCU: 0x610C3, offset: 0x610C3, size: 0x8, addend: 0x0, symName: __ZN5boost4asio19multiple_exceptionsC2ESt13exception_ptr, symObjAddr: 0xFE60, symBinAddr: 0x100012E58, symSize: 0x5C }
  - { offsetInCU: 0x610FE, offset: 0x610FE, size: 0x8, addend: 0x0, symName: __ZNSt9exceptionC2B7v160006Ev, symObjAddr: 0xFEBC, symBinAddr: 0x100012EB4, symSize: 0x24 }
  - { offsetInCU: 0x61128, offset: 0x61128, size: 0x8, addend: 0x0, symName: __ZN5boost4asio19multiple_exceptionsD2Ev, symObjAddr: 0xFEE0, symBinAddr: 0x100012ED8, symSize: 0x48 }
  - { offsetInCU: 0x61155, offset: 0x61155, size: 0x8, addend: 0x0, symName: __ZN5boost4asio6detail17executor_functionD2Ev, symObjAddr: 0xFF28, symBinAddr: 0x100012F20, symSize: 0x6C }
  - { offsetInCU: 0x61185, offset: 0x61185, size: 0x8, addend: 0x0, symName: __ZN5boost4asio6detail23get_recycling_allocatorINSt3__19allocatorIvEENS1_16thread_info_base11default_tagEE3getERKS5_, symObjAddr: 0xFF94, symBinAddr: 0x100012F8C, symSize: 0x24 }
  - { offsetInCU: 0x611B8, offset: 0x611B8, size: 0x8, addend: 0x0, symName: __ZN5boost4asio6detail19recycling_allocatorINS1_11executor_opINS1_17executor_functionENSt3__19allocatorIvEENS1_19scheduler_operationEEENS1_16thread_info_base11default_tagEEC1IvEERKNS2_IT_SB_EE, symObjAddr: 0xFFB8, symBinAddr: 0x100012FB0, symSize: 0x34 }
  - { offsetInCU: 0x611F3, offset: 0x611F3, size: 0x8, addend: 0x0, symName: __ZN5boost4asio6detail19recycling_allocatorINS1_11executor_opINS1_17executor_functionENSt3__19allocatorIvEENS1_19scheduler_operationEEENS1_16thread_info_base11default_tagEE8allocateEm, symObjAddr: 0xFFEC, symBinAddr: 0x100012FE4, symSize: 0x40 }
  - { offsetInCU: 0x61237, offset: 0x61237, size: 0x8, addend: 0x0, symName: __ZN5boost4asio6detail19recycling_allocatorIvNS1_16thread_info_base11default_tagEEC1Ev, symObjAddr: 0x1002C, symBinAddr: 0x100013024, symSize: 0x2C }
  - { offsetInCU: 0x61261, offset: 0x61261, size: 0x8, addend: 0x0, symName: __ZN5boost4asio6detail19recycling_allocatorIvNS1_16thread_info_base11default_tagEEC2Ev, symObjAddr: 0x10058, symBinAddr: 0x100013050, symSize: 0x14 }
  - { offsetInCU: 0x6128B, offset: 0x6128B, size: 0x8, addend: 0x0, symName: __ZN5boost4asio6detail19recycling_allocatorINS1_11executor_opINS1_17executor_functionENSt3__19allocatorIvEENS1_19scheduler_operationEEENS1_16thread_info_base11default_tagEEC2IvEERKNS2_IT_SB_EE, symObjAddr: 0x1006C, symBinAddr: 0x100013064, symSize: 0x18 }
  - { offsetInCU: 0x612C6, offset: 0x612C6, size: 0x8, addend: 0x0, symName: __ZN5boost4asio6detail16thread_info_base8allocateINS2_11default_tagEEEPvT_PS2_mm, symObjAddr: 0x10084, symBinAddr: 0x10001307C, symSize: 0x218 }
  - { offsetInCU: 0x613C0, offset: 0x613C0, size: 0x8, addend: 0x0, symName: __ZN5boost4asio6detail14thread_context24top_of_thread_call_stackEv, symObjAddr: 0x1029C, symBinAddr: 0x100013294, symSize: 0x14 }
  - { offsetInCU: 0x613D7, offset: 0x613D7, size: 0x8, addend: 0x0, symName: __ZN5boost10wrapexceptISt9bad_allocEC1ERKS1_, symObjAddr: 0x10540, symBinAddr: 0x100013538, symSize: 0x34 }
  - { offsetInCU: 0x6140F, offset: 0x6140F, size: 0x8, addend: 0x0, symName: __ZN5boost10wrapexceptISt9bad_allocED1Ev, symObjAddr: 0x10574, symBinAddr: 0x10001356C, symSize: 0x2C }
  - { offsetInCU: 0x6143B, offset: 0x6143B, size: 0x8, addend: 0x0, symName: __ZN5boost10wrapexceptISt9bad_allocEC2ERKS1_, symObjAddr: 0x105A0, symBinAddr: 0x100013598, symSize: 0xE4 }
  - { offsetInCU: 0x61473, offset: 0x61473, size: 0x8, addend: 0x0, symName: __ZNSt9bad_allocC2ERKS_, symObjAddr: 0x10684, symBinAddr: 0x10001367C, symSize: 0x4C }
  - { offsetInCU: 0x614A8, offset: 0x614A8, size: 0x8, addend: 0x0, symName: __ZN5boost10wrapexceptISt9bad_allocE9copy_fromEPKv, symObjAddr: 0x106D0, symBinAddr: 0x1000136C8, symSize: 0x14 }
  - { offsetInCU: 0x614D8, offset: 0x614D8, size: 0x8, addend: 0x0, symName: __ZNK5boost10wrapexceptISt9bad_allocE5cloneEv, symObjAddr: 0x106E4, symBinAddr: 0x1000136DC, symSize: 0xE4 }
  - { offsetInCU: 0x6151A, offset: 0x6151A, size: 0x8, addend: 0x0, symName: __ZNK5boost10wrapexceptISt9bad_allocE7rethrowEv, symObjAddr: 0x107C8, symBinAddr: 0x1000137C0, symSize: 0x6C }
  - { offsetInCU: 0x61540, offset: 0x61540, size: 0x8, addend: 0x0, symName: __ZN5boost10wrapexceptISt9bad_allocED0Ev, symObjAddr: 0x10834, symBinAddr: 0x10001382C, symSize: 0x30 }
  - { offsetInCU: 0x6156C, offset: 0x6156C, size: 0x8, addend: 0x0, symName: __ZThn8_N5boost10wrapexceptISt9bad_allocED1Ev, symObjAddr: 0x10864, symBinAddr: 0x10001385C, symSize: 0x1C }
  - { offsetInCU: 0x61582, offset: 0x61582, size: 0x8, addend: 0x0, symName: __ZThn8_N5boost10wrapexceptISt9bad_allocED0Ev, symObjAddr: 0x10880, symBinAddr: 0x100013878, symSize: 0x18 }
  - { offsetInCU: 0x61598, offset: 0x61598, size: 0x8, addend: 0x0, symName: __ZThn16_N5boost10wrapexceptISt9bad_allocED1Ev, symObjAddr: 0x10898, symBinAddr: 0x100013890, symSize: 0x1C }
  - { offsetInCU: 0x615AE, offset: 0x615AE, size: 0x8, addend: 0x0, symName: __ZThn16_N5boost10wrapexceptISt9bad_allocED0Ev, symObjAddr: 0x108B4, symBinAddr: 0x1000138AC, symSize: 0x18 }
  - { offsetInCU: 0x615CA, offset: 0x615CA, size: 0x8, addend: 0x0, symName: __ZN5boost10wrapexceptISt9bad_allocEC1ERKS2_, symObjAddr: 0x108CC, symBinAddr: 0x1000138C4, symSize: 0x34 }
  - { offsetInCU: 0x6160B, offset: 0x6160B, size: 0x8, addend: 0x0, symName: __ZN5boost10wrapexceptISt9bad_allocE7deleterD1Ev, symObjAddr: 0x10900, symBinAddr: 0x1000138F8, symSize: 0x2C }
  - { offsetInCU: 0x61635, offset: 0x61635, size: 0x8, addend: 0x0, symName: __ZN5boost10wrapexceptISt9bad_allocEC2ERKS2_, symObjAddr: 0x1092C, symBinAddr: 0x100013924, symSize: 0xC4 }
  - { offsetInCU: 0x6166A, offset: 0x6166A, size: 0x8, addend: 0x0, symName: __ZN5boost10wrapexceptISt9bad_allocE7deleterD2Ev, symObjAddr: 0x109F0, symBinAddr: 0x1000139E8, symSize: 0x58 }
  - { offsetInCU: 0x61694, offset: 0x61694, size: 0x8, addend: 0x0, symName: __ZN5boost10wrapexceptISt9bad_allocED2Ev, symObjAddr: 0x10A48, symBinAddr: 0x100013A40, symSize: 0x44 }
  - { offsetInCU: 0x616C0, offset: 0x616C0, size: 0x8, addend: 0x0, symName: __ZN5boost4asio6detail10call_stackINS1_14thread_contextENS1_16thread_info_baseEE3topEv, symObjAddr: 0x10A8C, symBinAddr: 0x100013A84, symSize: 0x5C }
  - { offsetInCU: 0x616E3, offset: 0x616E3, size: 0x8, addend: 0x0, symName: __ZN5boost4asio6detail11executor_opINS1_17executor_functionENSt3__19allocatorIvEENS1_19scheduler_operationEEC2IS3_EEOT_RKS6_, symObjAddr: 0x10AE8, symBinAddr: 0x100013AE0, symSize: 0x4C }
  - { offsetInCU: 0x61734, offset: 0x61734, size: 0x8, addend: 0x0, symName: __ZN5boost4asio6detail11executor_opINS1_17executor_functionENSt3__19allocatorIvEENS1_19scheduler_operationEE11do_completeEPvPS7_RKNS_6system10error_codeEm, symObjAddr: 0x10B34, symBinAddr: 0x100013B2C, symSize: 0x100 }
  - { offsetInCU: 0x617D1, offset: 0x617D1, size: 0x8, addend: 0x0, symName: __ZN5boost4asio6detail11executor_opINS1_17executor_functionENSt3__19allocatorIvEENS1_19scheduler_operationEE3ptr5resetEv, symObjAddr: 0x10C34, symBinAddr: 0x100013C2C, symSize: 0xA4 }
  - { offsetInCU: 0x61814, offset: 0x61814, size: 0x8, addend: 0x0, symName: __ZN5boost4asio6detail16std_fenced_blockC1ENS2_6half_tE, symObjAddr: 0x10CD8, symBinAddr: 0x100013CD0, symSize: 0x34 }
  - { offsetInCU: 0x61848, offset: 0x61848, size: 0x8, addend: 0x0, symName: __ZN5boost4asio6detail11executor_opINS1_17executor_functionENSt3__19allocatorIvEENS1_19scheduler_operationEED1Ev, symObjAddr: 0x10D0C, symBinAddr: 0x100013D04, symSize: 0x2C }
  - { offsetInCU: 0x61875, offset: 0x61875, size: 0x8, addend: 0x0, symName: __ZN5boost4asio6detail19recycling_allocatorINS1_11executor_opINS1_17executor_functionENSt3__19allocatorIvEENS1_19scheduler_operationEEENS1_16thread_info_base11default_tagEE10deallocateEPS9_m, symObjAddr: 0x10D38, symBinAddr: 0x100013D30, symSize: 0x3C }
  - { offsetInCU: 0x618B9, offset: 0x618B9, size: 0x8, addend: 0x0, symName: __ZN5boost4asio6detail11executor_opINS1_17executor_functionENSt3__19allocatorIvEENS1_19scheduler_operationEED2Ev, symObjAddr: 0x10D74, symBinAddr: 0x100013D6C, symSize: 0x38 }
  - { offsetInCU: 0x618E6, offset: 0x618E6, size: 0x8, addend: 0x0, symName: __ZN5boost4asio6detail16thread_info_base10deallocateINS2_11default_tagEEEvT_PS2_Pvm, symObjAddr: 0x10DAC, symBinAddr: 0x100013DA4, symSize: 0xE0 }
  - { offsetInCU: 0x61970, offset: 0x61970, size: 0x8, addend: 0x0, symName: __ZN5boost4asio6detail16std_fenced_blockC2ENS2_6half_tE, symObjAddr: 0x10E8C, symBinAddr: 0x100013E84, symSize: 0x30 }
  - { offsetInCU: 0x619A4, offset: 0x619A4, size: 0x8, addend: 0x0, symName: __ZN5boost4asio6detail11executor_opINS1_17executor_functionENSt3__19allocatorIvEENS1_19scheduler_operationEE3ptrD2Ev, symObjAddr: 0x10EBC, symBinAddr: 0x100013EB4, symSize: 0x34 }
  - { offsetInCU: 0x619D4, offset: 0x619D4, size: 0x8, addend: 0x0, symName: __ZNK31boost_asio_execution_execute_fn4implclIRKN5boost4asio10io_context19basic_executor_typeINSt3__19allocatorIvEELm0EEERNS3_6detail22executor_function_viewEEENS6_9enable_ifIXeqsr11call_traitsIS0_T_FvT0_EEE8overloadLNS_13overload_typeE0EENS_11call_traitsIS0_SG_SI_vvvvvE11result_typeEE4typeEOSG_OSH_, symObjAddr: 0x10EF0, symBinAddr: 0x100013EE8, symSize: 0x30 }
  - { offsetInCU: 0x61A28, offset: 0x61A28, size: 0x8, addend: 0x0, symName: __ZNK5boost4asio10io_context19basic_executor_typeINSt3__19allocatorIvEELm0EE7executeIRNS0_6detail22executor_function_viewEEEvOT_, symObjAddr: 0x10F20, symBinAddr: 0x100013F18, symSize: 0x1A0 }
  - { offsetInCU: 0x61AB5, offset: 0x61AB5, size: 0x8, addend: 0x0, symName: __ZN5boost4asio6detail22executor_function_viewC1IS2_EERT_, symObjAddr: 0x110C0, symBinAddr: 0x1000140B8, symSize: 0x34 }
  - { offsetInCU: 0x61AFC, offset: 0x61AFC, size: 0x8, addend: 0x0, symName: __ZN5boost4asio6detail11executor_opINS1_22executor_function_viewENSt3__19allocatorIvEENS1_19scheduler_operationEE3ptr8allocateERKS6_, symObjAddr: 0x11128, symBinAddr: 0x100014120, symSize: 0x40 }
  - { offsetInCU: 0x61B35, offset: 0x61B35, size: 0x8, addend: 0x0, symName: __ZN5boost4asio6detail11executor_opINS1_22executor_function_viewENSt3__19allocatorIvEENS1_19scheduler_operationEEC1IRS3_EEOT_RKS6_, symObjAddr: 0x11168, symBinAddr: 0x100014160, symSize: 0x3C }
  - { offsetInCU: 0x61B86, offset: 0x61B86, size: 0x8, addend: 0x0, symName: __ZN5boost4asio6detail11executor_opINS1_22executor_function_viewENSt3__19allocatorIvEENS1_19scheduler_operationEE3ptrD1Ev, symObjAddr: 0x111A4, symBinAddr: 0x10001419C, symSize: 0x2C }
  - { offsetInCU: 0x61BB0, offset: 0x61BB0, size: 0x8, addend: 0x0, symName: __ZN5boost4asio6detail22executor_function_viewC2IS2_EERT_, symObjAddr: 0x111D0, symBinAddr: 0x1000141C8, symSize: 0x2C }
  - { offsetInCU: 0x61BF1, offset: 0x61BF1, size: 0x8, addend: 0x0, symName: __ZN5boost4asio6detail22executor_function_view8completeIS2_EEvPv, symObjAddr: 0x111FC, symBinAddr: 0x1000141F4, symSize: 0x24 }
  - { offsetInCU: 0x61C1D, offset: 0x61C1D, size: 0x8, addend: 0x0, symName: __ZN5boost4asio6detail22executor_function_viewclEv, symObjAddr: 0x11220, symBinAddr: 0x100014218, symSize: 0x2C }
  - { offsetInCU: 0x61C49, offset: 0x61C49, size: 0x8, addend: 0x0, symName: __ZN5boost4asio6detail19recycling_allocatorINS1_11executor_opINS1_22executor_function_viewENSt3__19allocatorIvEENS1_19scheduler_operationEEENS1_16thread_info_base11default_tagEEC1IvEERKNS2_IT_SB_EE, symObjAddr: 0x11270, symBinAddr: 0x100014268, symSize: 0x34 }
  - { offsetInCU: 0x61C84, offset: 0x61C84, size: 0x8, addend: 0x0, symName: __ZN5boost4asio6detail19recycling_allocatorINS1_11executor_opINS1_22executor_function_viewENSt3__19allocatorIvEENS1_19scheduler_operationEEENS1_16thread_info_base11default_tagEE8allocateEm, symObjAddr: 0x112A4, symBinAddr: 0x10001429C, symSize: 0x40 }
  - { offsetInCU: 0x61CC8, offset: 0x61CC8, size: 0x8, addend: 0x0, symName: __ZN5boost4asio6detail19recycling_allocatorINS1_11executor_opINS1_22executor_function_viewENSt3__19allocatorIvEENS1_19scheduler_operationEEENS1_16thread_info_base11default_tagEEC2IvEERKNS2_IT_SB_EE, symObjAddr: 0x112E4, symBinAddr: 0x1000142DC, symSize: 0x18 }
  - { offsetInCU: 0x61D03, offset: 0x61D03, size: 0x8, addend: 0x0, symName: __ZN5boost4asio6detail11executor_opINS1_22executor_function_viewENSt3__19allocatorIvEENS1_19scheduler_operationEEC2IRS3_EEOT_RKS6_, symObjAddr: 0x112FC, symBinAddr: 0x1000142F4, symSize: 0x4C }
  - { offsetInCU: 0x61D54, offset: 0x61D54, size: 0x8, addend: 0x0, symName: __ZN5boost4asio6detail11executor_opINS1_22executor_function_viewENSt3__19allocatorIvEENS1_19scheduler_operationEE11do_completeEPvPS7_RKNS_6system10error_codeEm, symObjAddr: 0x11348, symBinAddr: 0x100014340, symSize: 0xE4 }
  - { offsetInCU: 0x61DF1, offset: 0x61DF1, size: 0x8, addend: 0x0, symName: __ZN5boost4asio6detail11executor_opINS1_22executor_function_viewENSt3__19allocatorIvEENS1_19scheduler_operationEE3ptr5resetEv, symObjAddr: 0x1142C, symBinAddr: 0x100014424, symSize: 0xA4 }
  - { offsetInCU: 0x61E34, offset: 0x61E34, size: 0x8, addend: 0x0, symName: __ZN5boost4asio6detail11executor_opINS1_22executor_function_viewENSt3__19allocatorIvEENS1_19scheduler_operationEED1Ev, symObjAddr: 0x114D0, symBinAddr: 0x1000144C8, symSize: 0x2C }
  - { offsetInCU: 0x61E61, offset: 0x61E61, size: 0x8, addend: 0x0, symName: __ZN5boost4asio6detail19recycling_allocatorINS1_11executor_opINS1_22executor_function_viewENSt3__19allocatorIvEENS1_19scheduler_operationEEENS1_16thread_info_base11default_tagEE10deallocateEPS9_m, symObjAddr: 0x114FC, symBinAddr: 0x1000144F4, symSize: 0x3C }
  - { offsetInCU: 0x61EA5, offset: 0x61EA5, size: 0x8, addend: 0x0, symName: __ZN5boost4asio6detail11executor_opINS1_22executor_function_viewENSt3__19allocatorIvEENS1_19scheduler_operationEED2Ev, symObjAddr: 0x11538, symBinAddr: 0x100014530, symSize: 0x2C }
  - { offsetInCU: 0x61ED2, offset: 0x61ED2, size: 0x8, addend: 0x0, symName: __ZN5boost4asio6detail11executor_opINS1_22executor_function_viewENSt3__19allocatorIvEENS1_19scheduler_operationEE3ptrD2Ev, symObjAddr: 0x11564, symBinAddr: 0x10001455C, symSize: 0x34 }
  - { offsetInCU: 0x61F0E, offset: 0x61F0E, size: 0x8, addend: 0x0, symName: __ZNK19boost_asio_query_fn4implclIRKN5boost4asio10io_context19basic_executor_typeINSt3__19allocatorIvEELm0EEERKNS3_9execution6detail10blocking_tILi0EEEEENS6_9enable_ifIXeqsr11call_traitsIS0_T_FvT0_EEE8overloadLNS_13overload_typeE1EENS_11call_traitsIS0_SJ_SL_vvvvE11result_typeEE4typeEOSJ_OSK_, symObjAddr: 0x11598, symBinAddr: 0x100014590, symSize: 0x48 }
  - { offsetInCU: 0x61F62, offset: 0x61F62, size: 0x8, addend: 0x0, symName: __ZNK5boost4asio10io_context19basic_executor_typeINSt3__19allocatorIvEELm0EE5queryENS0_9execution6detail10blocking_tILi0EEE, symObjAddr: 0x115E0, symBinAddr: 0x1000145D8, symSize: 0x64 }
  - { offsetInCU: 0x61F93, offset: 0x61F93, size: 0x8, addend: 0x0, symName: __ZN5boost4asio9execution6detail10blocking_tILi0EEC1ENS2_8blocking7never_tILi0EEE, symObjAddr: 0x11644, symBinAddr: 0x10001463C, symSize: 0x2C }
  - { offsetInCU: 0x61FC8, offset: 0x61FC8, size: 0x8, addend: 0x0, symName: __ZN5boost4asio9execution6detail10blocking_tILi0EEC1ENS2_8blocking10possibly_tILi0EEE, symObjAddr: 0x11670, symBinAddr: 0x100014668, symSize: 0x2C }
  - { offsetInCU: 0x61FFC, offset: 0x61FFC, size: 0x8, addend: 0x0, symName: __ZN5boost4asio9execution6detail10blocking_tILi0EEC2ENS2_8blocking7never_tILi0EEE, symObjAddr: 0x1169C, symBinAddr: 0x100014694, symSize: 0x1C }
  - { offsetInCU: 0x62031, offset: 0x62031, size: 0x8, addend: 0x0, symName: __ZN5boost4asio9execution6detail10blocking_tILi0EEC2ENS2_8blocking10possibly_tILi0EEE, symObjAddr: 0x116B8, symBinAddr: 0x1000146B0, symSize: 0x18 }
  - { offsetInCU: 0x62065, offset: 0x62065, size: 0x8, addend: 0x0, symName: __ZN5boost4asio9execution6detail10blocking_tILi0EEC2ENS2_8blocking8always_tILi0EEE, symObjAddr: 0x116D0, symBinAddr: 0x1000146C8, symSize: 0x1C }
  - { offsetInCU: 0x62099, offset: 0x62099, size: 0x8, addend: 0x0, symName: __ZN5boost4asio9execution6detail17any_executor_base14destroy_objectINS0_10io_context19basic_executor_typeINSt3__19allocatorIvEELm0EEEEEvRS3_, symObjAddr: 0x11704, symBinAddr: 0x1000146FC, symSize: 0x28 }
  - { offsetInCU: 0x620C6, offset: 0x620C6, size: 0x8, addend: 0x0, symName: __ZN5boost4asio9execution6detail17any_executor_base11copy_objectINS0_10io_context19basic_executor_typeINSt3__19allocatorIvEELm0EEEEEvRS3_RKS3_, symObjAddr: 0x1172C, symBinAddr: 0x100014724, symSize: 0x4C }
  - { offsetInCU: 0x62102, offset: 0x62102, size: 0x8, addend: 0x0, symName: __ZN5boost4asio9execution6detail17any_executor_base11move_objectINS0_10io_context19basic_executor_typeINSt3__19allocatorIvEELm0EEEEEvRS3_SB_, symObjAddr: 0x11778, symBinAddr: 0x100014770, symSize: 0x58 }
  - { offsetInCU: 0x6213E, offset: 0x6213E, size: 0x8, addend: 0x0, symName: __ZN5boost4asio9execution6detail17any_executor_base13target_objectINS0_10io_context19basic_executor_typeINSt3__19allocatorIvEELm0EEEEEPKvRKS3_, symObjAddr: 0x117D0, symBinAddr: 0x1000147C8, symSize: 0x24 }
  - { offsetInCU: 0x6216B, offset: 0x6216B, size: 0x8, addend: 0x0, symName: __ZN5boost4asio9execution6detail17any_executor_base6objectINS0_10io_context19basic_executor_typeINSt3__19allocatorIvEELm0EEEEERT_v, symObjAddr: 0x117F4, symBinAddr: 0x1000147EC, symSize: 0x14 }
  - { offsetInCU: 0x6219A, offset: 0x6219A, size: 0x8, addend: 0x0, symName: __ZNK5boost4asio9execution6detail17any_executor_base6objectINS0_10io_context19basic_executor_typeINSt3__19allocatorIvEELm0EEEEERKT_v, symObjAddr: 0x11808, symBinAddr: 0x100014800, symSize: 0x14 }
  - { offsetInCU: 0x621C9, offset: 0x621C9, size: 0x8, addend: 0x0, symName: __ZN5boost4asio10io_context19basic_executor_typeINSt3__19allocatorIvEELm0EEC1ERKS6_, symObjAddr: 0x1181C, symBinAddr: 0x100014814, symSize: 0x34 }
  - { offsetInCU: 0x62202, offset: 0x62202, size: 0x8, addend: 0x0, symName: __ZN5boost4asio10io_context19basic_executor_typeINSt3__19allocatorIvEELm0EEC2ERKS6_, symObjAddr: 0x11850, symBinAddr: 0x100014848, symSize: 0x24 }
  - { offsetInCU: 0x6223B, offset: 0x6223B, size: 0x8, addend: 0x0, symName: __ZN5boost4asio9execution6detail17any_executor_base8query_fnINS0_10io_context19basic_executor_typeINSt3__19allocatorIvEELm0EEENS1_12context_as_tIRNS0_17execution_contextEEEEEvPvPKvSH_, symObjAddr: 0x11874, symBinAddr: 0x10001486C, symSize: 0x38 }
  - { offsetInCU: 0x6228F, offset: 0x6228F, size: 0x8, addend: 0x0, symName: __ZN5boost4asio9execution6detail17any_executor_base10require_fnINS1_12any_executorIJNS1_12context_as_tIRNS0_17execution_contextEEENS2_8blocking7never_tILi0EEENS1_11prefer_onlyINSA_10possibly_tILi0EEEEENSD_INS2_16outstanding_work9tracked_tILi0EEEEENSD_INSH_11untracked_tILi0EEEEENSD_INS2_12relationship6fork_tILi0EEEEENSD_INSO_14continuation_tILi0EEEEEEEENS0_10io_context19basic_executor_typeINSt3__19allocatorIvEELm0EEES9_EET_PKvS14_, symObjAddr: 0x118AC, symBinAddr: 0x1000148A4, symSize: 0x3C }
  - { offsetInCU: 0x622DD, offset: 0x622DD, size: 0x8, addend: 0x0, symName: __ZN5boost4asio9execution6detail17any_executor_base9prefer_fnINS1_12any_executorIJNS1_12context_as_tIRNS0_17execution_contextEEENS2_8blocking7never_tILi0EEENS1_11prefer_onlyINSA_10possibly_tILi0EEEEENSD_INS2_16outstanding_work9tracked_tILi0EEEEENSD_INSH_11untracked_tILi0EEEEENSD_INS2_12relationship6fork_tILi0EEEEENSD_INSO_14continuation_tILi0EEEEEEEENS0_10io_context19basic_executor_typeINSt3__19allocatorIvEELm0EEES9_EET_PKvS14_, symObjAddr: 0x118E8, symBinAddr: 0x1000148E0, symSize: 0x3C }
  - { offsetInCU: 0x6232B, offset: 0x6232B, size: 0x8, addend: 0x0, symName: __ZN5boost4asio9execution6detail17any_executor_base8query_fnINS0_10io_context19basic_executor_typeINSt3__19allocatorIvEELm0EEENS2_8blocking7never_tILi0EEEEEvPvPKvSG_, symObjAddr: 0x11924, symBinAddr: 0x10001491C, symSize: 0x38 }
  - { offsetInCU: 0x6237F, offset: 0x6237F, size: 0x8, addend: 0x0, symName: __ZN5boost4asio9execution6detail17any_executor_base10require_fnINS1_12any_executorIJNS1_12context_as_tIRNS0_17execution_contextEEENS2_8blocking7never_tILi0EEENS1_11prefer_onlyINSA_10possibly_tILi0EEEEENSD_INS2_16outstanding_work9tracked_tILi0EEEEENSD_INSH_11untracked_tILi0EEEEENSD_INS2_12relationship6fork_tILi0EEEEENSD_INSO_14continuation_tILi0EEEEEEEENS0_10io_context19basic_executor_typeINSt3__19allocatorIvEELm0EEESC_EET_PKvS14_, symObjAddr: 0x1195C, symBinAddr: 0x100014954, symSize: 0x38 }
  - { offsetInCU: 0x623CD, offset: 0x623CD, size: 0x8, addend: 0x0, symName: __ZN5boost4asio9execution6detail17any_executor_base9prefer_fnINS1_12any_executorIJNS1_12context_as_tIRNS0_17execution_contextEEENS2_8blocking7never_tILi0EEENS1_11prefer_onlyINSA_10possibly_tILi0EEEEENSD_INS2_16outstanding_work9tracked_tILi0EEEEENSD_INSH_11untracked_tILi0EEEEENSD_INS2_12relationship6fork_tILi0EEEEENSD_INSO_14continuation_tILi0EEEEEEEENS0_10io_context19basic_executor_typeINSt3__19allocatorIvEELm0EEESC_EET_PKvS14_, symObjAddr: 0x11994, symBinAddr: 0x10001498C, symSize: 0x38 }
  - { offsetInCU: 0x6241B, offset: 0x6241B, size: 0x8, addend: 0x0, symName: __ZN5boost4asio9execution6detail17any_executor_base8query_fnINS0_10io_context19basic_executor_typeINSt3__19allocatorIvEELm0EEENS1_11prefer_onlyINS2_8blocking10possibly_tILi0EEEEEEEvPvPKvSI_, symObjAddr: 0x119CC, symBinAddr: 0x1000149C4, symSize: 0x38 }
  - { offsetInCU: 0x6246F, offset: 0x6246F, size: 0x8, addend: 0x0, symName: __ZN5boost4asio9execution6detail17any_executor_base10require_fnINS1_12any_executorIJNS1_12context_as_tIRNS0_17execution_contextEEENS2_8blocking7never_tILi0EEENS1_11prefer_onlyINSA_10possibly_tILi0EEEEENSD_INS2_16outstanding_work9tracked_tILi0EEEEENSD_INSH_11untracked_tILi0EEEEENSD_INS2_12relationship6fork_tILi0EEEEENSD_INSO_14continuation_tILi0EEEEEEEENS0_10io_context19basic_executor_typeINSt3__19allocatorIvEELm0EEESG_EET_PKvS14_, symObjAddr: 0x11A04, symBinAddr: 0x1000149FC, symSize: 0x3C }
  - { offsetInCU: 0x624BD, offset: 0x624BD, size: 0x8, addend: 0x0, symName: __ZN5boost4asio9execution6detail17any_executor_base9prefer_fnINS1_12any_executorIJNS1_12context_as_tIRNS0_17execution_contextEEENS2_8blocking7never_tILi0EEENS1_11prefer_onlyINSA_10possibly_tILi0EEEEENSD_INS2_16outstanding_work9tracked_tILi0EEEEENSD_INSH_11untracked_tILi0EEEEENSD_INS2_12relationship6fork_tILi0EEEEENSD_INSO_14continuation_tILi0EEEEEEEENS0_10io_context19basic_executor_typeINSt3__19allocatorIvEELm0EEESG_EET_PKvS14_, symObjAddr: 0x11A40, symBinAddr: 0x100014A38, symSize: 0x38 }
  - { offsetInCU: 0x6250B, offset: 0x6250B, size: 0x8, addend: 0x0, symName: __ZN5boost4asio9execution6detail17any_executor_base8query_fnINS0_10io_context19basic_executor_typeINSt3__19allocatorIvEELm0EEENS1_11prefer_onlyINS2_16outstanding_work9tracked_tILi0EEEEEEEvPvPKvSI_, symObjAddr: 0x11A78, symBinAddr: 0x100014A70, symSize: 0x38 }
  - { offsetInCU: 0x6255F, offset: 0x6255F, size: 0x8, addend: 0x0, symName: __ZN5boost4asio9execution6detail17any_executor_base10require_fnINS1_12any_executorIJNS1_12context_as_tIRNS0_17execution_contextEEENS2_8blocking7never_tILi0EEENS1_11prefer_onlyINSA_10possibly_tILi0EEEEENSD_INS2_16outstanding_work9tracked_tILi0EEEEENSD_INSH_11untracked_tILi0EEEEENSD_INS2_12relationship6fork_tILi0EEEEENSD_INSO_14continuation_tILi0EEEEEEEENS0_10io_context19basic_executor_typeINSt3__19allocatorIvEELm0EEESK_EET_PKvS14_, symObjAddr: 0x11AB0, symBinAddr: 0x100014AA8, symSize: 0x3C }
  - { offsetInCU: 0x625AD, offset: 0x625AD, size: 0x8, addend: 0x0, symName: __ZN5boost4asio9execution6detail17any_executor_base9prefer_fnINS1_12any_executorIJNS1_12context_as_tIRNS0_17execution_contextEEENS2_8blocking7never_tILi0EEENS1_11prefer_onlyINSA_10possibly_tILi0EEEEENSD_INS2_16outstanding_work9tracked_tILi0EEEEENSD_INSH_11untracked_tILi0EEEEENSD_INS2_12relationship6fork_tILi0EEEEENSD_INSO_14continuation_tILi0EEEEEEEENS0_10io_context19basic_executor_typeINSt3__19allocatorIvEELm0EEESK_EET_PKvS14_, symObjAddr: 0x11AEC, symBinAddr: 0x100014AE4, symSize: 0x38 }
  - { offsetInCU: 0x625FB, offset: 0x625FB, size: 0x8, addend: 0x0, symName: __ZN5boost4asio9execution6detail17any_executor_base8query_fnINS0_10io_context19basic_executor_typeINSt3__19allocatorIvEELm0EEENS1_11prefer_onlyINS2_16outstanding_work11untracked_tILi0EEEEEEEvPvPKvSI_, symObjAddr: 0x11B24, symBinAddr: 0x100014B1C, symSize: 0x38 }
  - { offsetInCU: 0x6264F, offset: 0x6264F, size: 0x8, addend: 0x0, symName: __ZN5boost4asio9execution6detail17any_executor_base10require_fnINS1_12any_executorIJNS1_12context_as_tIRNS0_17execution_contextEEENS2_8blocking7never_tILi0EEENS1_11prefer_onlyINSA_10possibly_tILi0EEEEENSD_INS2_16outstanding_work9tracked_tILi0EEEEENSD_INSH_11untracked_tILi0EEEEENSD_INS2_12relationship6fork_tILi0EEEEENSD_INSO_14continuation_tILi0EEEEEEEENS0_10io_context19basic_executor_typeINSt3__19allocatorIvEELm0EEESN_EET_PKvS14_, symObjAddr: 0x11B5C, symBinAddr: 0x100014B54, symSize: 0x3C }
  - { offsetInCU: 0x6269D, offset: 0x6269D, size: 0x8, addend: 0x0, symName: __ZN5boost4asio9execution6detail17any_executor_base9prefer_fnINS1_12any_executorIJNS1_12context_as_tIRNS0_17execution_contextEEENS2_8blocking7never_tILi0EEENS1_11prefer_onlyINSA_10possibly_tILi0EEEEENSD_INS2_16outstanding_work9tracked_tILi0EEEEENSD_INSH_11untracked_tILi0EEEEENSD_INS2_12relationship6fork_tILi0EEEEENSD_INSO_14continuation_tILi0EEEEEEEENS0_10io_context19basic_executor_typeINSt3__19allocatorIvEELm0EEESN_EET_PKvS14_, symObjAddr: 0x11B98, symBinAddr: 0x100014B90, symSize: 0x38 }
  - { offsetInCU: 0x626EB, offset: 0x626EB, size: 0x8, addend: 0x0, symName: __ZN5boost4asio9execution6detail17any_executor_base8query_fnINS0_10io_context19basic_executor_typeINSt3__19allocatorIvEELm0EEENS1_11prefer_onlyINS2_12relationship6fork_tILi0EEEEEEEvPvPKvSI_, symObjAddr: 0x11BD0, symBinAddr: 0x100014BC8, symSize: 0x38 }
  - { offsetInCU: 0x6273F, offset: 0x6273F, size: 0x8, addend: 0x0, symName: __ZN5boost4asio9execution6detail17any_executor_base10require_fnINS1_12any_executorIJNS1_12context_as_tIRNS0_17execution_contextEEENS2_8blocking7never_tILi0EEENS1_11prefer_onlyINSA_10possibly_tILi0EEEEENSD_INS2_16outstanding_work9tracked_tILi0EEEEENSD_INSH_11untracked_tILi0EEEEENSD_INS2_12relationship6fork_tILi0EEEEENSD_INSO_14continuation_tILi0EEEEEEEENS0_10io_context19basic_executor_typeINSt3__19allocatorIvEELm0EEESR_EET_PKvS14_, symObjAddr: 0x11C08, symBinAddr: 0x100014C00, symSize: 0x3C }
  - { offsetInCU: 0x6278D, offset: 0x6278D, size: 0x8, addend: 0x0, symName: __ZN5boost4asio9execution6detail17any_executor_base9prefer_fnINS1_12any_executorIJNS1_12context_as_tIRNS0_17execution_contextEEENS2_8blocking7never_tILi0EEENS1_11prefer_onlyINSA_10possibly_tILi0EEEEENSD_INS2_16outstanding_work9tracked_tILi0EEEEENSD_INSH_11untracked_tILi0EEEEENSD_INS2_12relationship6fork_tILi0EEEEENSD_INSO_14continuation_tILi0EEEEEEEENS0_10io_context19basic_executor_typeINSt3__19allocatorIvEELm0EEESR_EET_PKvS14_, symObjAddr: 0x11C44, symBinAddr: 0x100014C3C, symSize: 0x38 }
  - { offsetInCU: 0x627DB, offset: 0x627DB, size: 0x8, addend: 0x0, symName: __ZN5boost4asio9execution6detail17any_executor_base8query_fnINS0_10io_context19basic_executor_typeINSt3__19allocatorIvEELm0EEENS1_11prefer_onlyINS2_12relationship14continuation_tILi0EEEEEEEvPvPKvSI_, symObjAddr: 0x11C7C, symBinAddr: 0x100014C74, symSize: 0x38 }
  - { offsetInCU: 0x6282F, offset: 0x6282F, size: 0x8, addend: 0x0, symName: __ZN5boost4asio9execution6detail17any_executor_base10require_fnINS1_12any_executorIJNS1_12context_as_tIRNS0_17execution_contextEEENS2_8blocking7never_tILi0EEENS1_11prefer_onlyINSA_10possibly_tILi0EEEEENSD_INS2_16outstanding_work9tracked_tILi0EEEEENSD_INSH_11untracked_tILi0EEEEENSD_INS2_12relationship6fork_tILi0EEEEENSD_INSO_14continuation_tILi0EEEEEEEENS0_10io_context19basic_executor_typeINSt3__19allocatorIvEELm0EEESU_EET_PKvS14_, symObjAddr: 0x11CB4, symBinAddr: 0x100014CAC, symSize: 0x3C }
  - { offsetInCU: 0x6287D, offset: 0x6287D, size: 0x8, addend: 0x0, symName: __ZN5boost4asio9execution6detail17any_executor_base9prefer_fnINS1_12any_executorIJNS1_12context_as_tIRNS0_17execution_contextEEENS2_8blocking7never_tILi0EEENS1_11prefer_onlyINSA_10possibly_tILi0EEEEENSD_INS2_16outstanding_work9tracked_tILi0EEEEENSD_INSH_11untracked_tILi0EEEEENSD_INS2_12relationship6fork_tILi0EEEEENSD_INSO_14continuation_tILi0EEEEEEEENS0_10io_context19basic_executor_typeINSt3__19allocatorIvEELm0EEESU_EET_PKvS14_, symObjAddr: 0x11CF0, symBinAddr: 0x100014CE8, symSize: 0x38 }
  - { offsetInCU: 0x628CB, offset: 0x628CB, size: 0x8, addend: 0x0, symName: __ZN5boost4asio9execution6detail17any_executor_base13query_fn_implINS0_10io_context19basic_executor_typeINSt3__19allocatorIvEELm0EEENS1_12context_as_tIRNS0_17execution_contextEEEEEvPvPKvSH_PNS7_9enable_ifIXntsr7is_sameIT_vEE5valueEvE4typeE, symObjAddr: 0x11D28, symBinAddr: 0x100014D20, symSize: 0x3C }
  - { offsetInCU: 0x6292A, offset: 0x6292A, size: 0x8, addend: 0x0, symName: __ZN5boost4asio9execution6detail17any_executor_base17query_fn_non_voidINS0_10io_context19basic_executor_typeINSt3__19allocatorIvEELm0EEENS1_12context_as_tIRNS0_17execution_contextEEEEEvPvPKvSH_PNS7_9enable_ifIXaaaasr5boost4asio9can_queryIRKT_RKT0_EE5valuentsr7is_sameINSM_29polymorphic_query_result_typeEvEE5valuesr12is_referenceISP_EE5valueEvE4typeE, symObjAddr: 0x11D64, symBinAddr: 0x100014D5C, symSize: 0x44 }
  - { offsetInCU: 0x6298F, offset: 0x6298F, size: 0x8, addend: 0x0, symName: __ZNK19boost_asio_query_fn4implclIRKN5boost4asio10io_context19basic_executor_typeINSt3__19allocatorIvEELm0EEERKNS3_9execution12context_as_tIRNS3_17execution_contextEEEEENS6_9enable_ifIXeqsr11call_traitsIS0_T_FvT0_EEE8overloadLNS_13overload_typeE2EENS_11call_traitsIS0_SK_SM_vvvvE11result_typeEE4typeEOSK_OSL_, symObjAddr: 0x11DA8, symBinAddr: 0x100014DA0, symSize: 0x38 }
  - { offsetInCU: 0x629EF, offset: 0x629EF, size: 0x8, addend: 0x0, symName: __ZNK19boost_asio_query_fn4implclIRKN5boost4asio10io_context19basic_executor_typeINSt3__19allocatorIvEELm0EEERKNS3_9execution6detail9context_tILi0EEEEENS6_9enable_ifIXeqsr11call_traitsIS0_T_FvT0_EEE8overloadLNS_13overload_typeE1EENS_11call_traitsIS0_SJ_SL_vvvvE11result_typeEE4typeEOSJ_OSK_, symObjAddr: 0x11E20, symBinAddr: 0x100014E18, symSize: 0x2C }
  - { offsetInCU: 0x62A43, offset: 0x62A43, size: 0x8, addend: 0x0, symName: __ZNK5boost4asio10io_context19basic_executor_typeINSt3__19allocatorIvEELm0EE5queryENS0_9execution6detail9context_tILi0EEE, symObjAddr: 0x11E4C, symBinAddr: 0x100014E44, symSize: 0x24 }
  - { offsetInCU: 0x62A74, offset: 0x62A74, size: 0x8, addend: 0x0, symName: __ZN5boost4asio9execution6detail17any_executor_base15require_fn_implINS1_12any_executorIJNS1_12context_as_tIRNS0_17execution_contextEEENS2_8blocking7never_tILi0EEENS1_11prefer_onlyINSA_10possibly_tILi0EEEEENSD_INS2_16outstanding_work9tracked_tILi0EEEEENSD_INSH_11untracked_tILi0EEEEENSD_INS2_12relationship6fork_tILi0EEEEENSD_INSO_14continuation_tILi0EEEEEEEENS0_10io_context19basic_executor_typeINSt3__19allocatorIvEELm0EEES9_EET_PKvS14_z, symObjAddr: 0x11E70, symBinAddr: 0x100014E68, symSize: 0x38 }
  - { offsetInCU: 0x62ABB, offset: 0x62ABB, size: 0x8, addend: 0x0, symName: __ZN5boost4asio9execution12any_executorIJNS1_12context_as_tIRNS0_17execution_contextEEENS1_6detail8blocking7never_tILi0EEENS1_11prefer_onlyINS8_10possibly_tILi0EEEEENSB_INS7_16outstanding_work9tracked_tILi0EEEEENSB_INSF_11untracked_tILi0EEEEENSB_INS7_12relationship6fork_tILi0EEEEENSB_INSM_14continuation_tILi0EEEEEEEC1Ev, symObjAddr: 0x11EA8, symBinAddr: 0x100014EA0, symSize: 0x2C }
  - { offsetInCU: 0x62AE5, offset: 0x62AE5, size: 0x8, addend: 0x0, symName: __ZN5boost4asio9execution12any_executorIJNS1_12context_as_tIRNS0_17execution_contextEEENS1_6detail8blocking7never_tILi0EEENS1_11prefer_onlyINS8_10possibly_tILi0EEEEENSB_INS7_16outstanding_work9tracked_tILi0EEEEENSB_INSF_11untracked_tILi0EEEEENSB_INS7_12relationship6fork_tILi0EEEEENSB_INSM_14continuation_tILi0EEEEEEEC2Ev, symObjAddr: 0x11ED4, symBinAddr: 0x100014ECC, symSize: 0x44 }
  - { offsetInCU: 0x62B0F, offset: 0x62B0F, size: 0x8, addend: 0x0, symName: __ZN5boost4asio9execution6detail17any_executor_baseC2Ev, symObjAddr: 0x11F18, symBinAddr: 0x100014F10, symSize: 0x20 }
  - { offsetInCU: 0x62B39, offset: 0x62B39, size: 0x8, addend: 0x0, symName: __ZN5boost4asio9execution6detail17any_executor_base8query_fnIvNS1_12context_as_tIRNS0_17execution_contextEEEEEvPvPKvSB_, symObjAddr: 0x11F44, symBinAddr: 0x100014F3C, symSize: 0x38 }
  - { offsetInCU: 0x62B89, offset: 0x62B89, size: 0x8, addend: 0x0, symName: __ZN5boost4asio9execution6detail17any_executor_base10require_fnINS1_12any_executorIJNS1_12context_as_tIRNS0_17execution_contextEEENS2_8blocking7never_tILi0EEENS1_11prefer_onlyINSA_10possibly_tILi0EEEEENSD_INS2_16outstanding_work9tracked_tILi0EEEEENSD_INSH_11untracked_tILi0EEEEENSD_INS2_12relationship6fork_tILi0EEEEENSD_INSO_14continuation_tILi0EEEEEEEEvS9_EET_PKvSY_, symObjAddr: 0x11F7C, symBinAddr: 0x100014F74, symSize: 0x38 }
  - { offsetInCU: 0x62BD3, offset: 0x62BD3, size: 0x8, addend: 0x0, symName: __ZN5boost4asio9execution6detail17any_executor_base9prefer_fnINS1_12any_executorIJNS1_12context_as_tIRNS0_17execution_contextEEENS2_8blocking7never_tILi0EEENS1_11prefer_onlyINSA_10possibly_tILi0EEEEENSD_INS2_16outstanding_work9tracked_tILi0EEEEENSD_INSH_11untracked_tILi0EEEEENSD_INS2_12relationship6fork_tILi0EEEEENSD_INSO_14continuation_tILi0EEEEEEEEvS9_EET_PKvSY_, symObjAddr: 0x11FB4, symBinAddr: 0x100014FAC, symSize: 0x38 }
  - { offsetInCU: 0x62C1D, offset: 0x62C1D, size: 0x8, addend: 0x0, symName: __ZN5boost4asio9execution6detail17any_executor_base8query_fnIvNS2_8blocking7never_tILi0EEEEEvPvPKvSA_, symObjAddr: 0x11FEC, symBinAddr: 0x100014FE4, symSize: 0x38 }
  - { offsetInCU: 0x62C6D, offset: 0x62C6D, size: 0x8, addend: 0x0, symName: __ZN5boost4asio9execution6detail17any_executor_base10require_fnINS1_12any_executorIJNS1_12context_as_tIRNS0_17execution_contextEEENS2_8blocking7never_tILi0EEENS1_11prefer_onlyINSA_10possibly_tILi0EEEEENSD_INS2_16outstanding_work9tracked_tILi0EEEEENSD_INSH_11untracked_tILi0EEEEENSD_INS2_12relationship6fork_tILi0EEEEENSD_INSO_14continuation_tILi0EEEEEEEEvSC_EET_PKvSY_, symObjAddr: 0x12024, symBinAddr: 0x10001501C, symSize: 0x38 }
  - { offsetInCU: 0x62CB7, offset: 0x62CB7, size: 0x8, addend: 0x0, symName: __ZN5boost4asio9execution6detail17any_executor_base9prefer_fnINS1_12any_executorIJNS1_12context_as_tIRNS0_17execution_contextEEENS2_8blocking7never_tILi0EEENS1_11prefer_onlyINSA_10possibly_tILi0EEEEENSD_INS2_16outstanding_work9tracked_tILi0EEEEENSD_INSH_11untracked_tILi0EEEEENSD_INS2_12relationship6fork_tILi0EEEEENSD_INSO_14continuation_tILi0EEEEEEEEvSC_EET_PKvSY_, symObjAddr: 0x1205C, symBinAddr: 0x100015054, symSize: 0x38 }
  - { offsetInCU: 0x62D01, offset: 0x62D01, size: 0x8, addend: 0x0, symName: __ZN5boost4asio9execution6detail17any_executor_base8query_fnIvNS1_11prefer_onlyINS2_8blocking10possibly_tILi0EEEEEEEvPvPKvSC_, symObjAddr: 0x12094, symBinAddr: 0x10001508C, symSize: 0x38 }
  - { offsetInCU: 0x62D51, offset: 0x62D51, size: 0x8, addend: 0x0, symName: __ZN5boost4asio9execution6detail17any_executor_base10require_fnINS1_12any_executorIJNS1_12context_as_tIRNS0_17execution_contextEEENS2_8blocking7never_tILi0EEENS1_11prefer_onlyINSA_10possibly_tILi0EEEEENSD_INS2_16outstanding_work9tracked_tILi0EEEEENSD_INSH_11untracked_tILi0EEEEENSD_INS2_12relationship6fork_tILi0EEEEENSD_INSO_14continuation_tILi0EEEEEEEEvSG_EET_PKvSY_, symObjAddr: 0x120CC, symBinAddr: 0x1000150C4, symSize: 0x38 }
  - { offsetInCU: 0x62D9B, offset: 0x62D9B, size: 0x8, addend: 0x0, symName: __ZN5boost4asio9execution6detail17any_executor_base9prefer_fnINS1_12any_executorIJNS1_12context_as_tIRNS0_17execution_contextEEENS2_8blocking7never_tILi0EEENS1_11prefer_onlyINSA_10possibly_tILi0EEEEENSD_INS2_16outstanding_work9tracked_tILi0EEEEENSD_INSH_11untracked_tILi0EEEEENSD_INS2_12relationship6fork_tILi0EEEEENSD_INSO_14continuation_tILi0EEEEEEEEvSG_EET_PKvSY_, symObjAddr: 0x12104, symBinAddr: 0x1000150FC, symSize: 0x38 }
  - { offsetInCU: 0x62DE5, offset: 0x62DE5, size: 0x8, addend: 0x0, symName: __ZN5boost4asio9execution6detail17any_executor_base8query_fnIvNS1_11prefer_onlyINS2_16outstanding_work9tracked_tILi0EEEEEEEvPvPKvSC_, symObjAddr: 0x1213C, symBinAddr: 0x100015134, symSize: 0x38 }
  - { offsetInCU: 0x62E35, offset: 0x62E35, size: 0x8, addend: 0x0, symName: __ZN5boost4asio9execution6detail17any_executor_base10require_fnINS1_12any_executorIJNS1_12context_as_tIRNS0_17execution_contextEEENS2_8blocking7never_tILi0EEENS1_11prefer_onlyINSA_10possibly_tILi0EEEEENSD_INS2_16outstanding_work9tracked_tILi0EEEEENSD_INSH_11untracked_tILi0EEEEENSD_INS2_12relationship6fork_tILi0EEEEENSD_INSO_14continuation_tILi0EEEEEEEEvSK_EET_PKvSY_, symObjAddr: 0x12174, symBinAddr: 0x10001516C, symSize: 0x38 }
  - { offsetInCU: 0x62E7F, offset: 0x62E7F, size: 0x8, addend: 0x0, symName: __ZN5boost4asio9execution6detail17any_executor_base9prefer_fnINS1_12any_executorIJNS1_12context_as_tIRNS0_17execution_contextEEENS2_8blocking7never_tILi0EEENS1_11prefer_onlyINSA_10possibly_tILi0EEEEENSD_INS2_16outstanding_work9tracked_tILi0EEEEENSD_INSH_11untracked_tILi0EEEEENSD_INS2_12relationship6fork_tILi0EEEEENSD_INSO_14continuation_tILi0EEEEEEEEvSK_EET_PKvSY_, symObjAddr: 0x121AC, symBinAddr: 0x1000151A4, symSize: 0x38 }
  - { offsetInCU: 0x62EC9, offset: 0x62EC9, size: 0x8, addend: 0x0, symName: __ZN5boost4asio9execution6detail17any_executor_base8query_fnIvNS1_11prefer_onlyINS2_16outstanding_work11untracked_tILi0EEEEEEEvPvPKvSC_, symObjAddr: 0x121E4, symBinAddr: 0x1000151DC, symSize: 0x38 }
  - { offsetInCU: 0x62F19, offset: 0x62F19, size: 0x8, addend: 0x0, symName: __ZN5boost4asio9execution6detail17any_executor_base10require_fnINS1_12any_executorIJNS1_12context_as_tIRNS0_17execution_contextEEENS2_8blocking7never_tILi0EEENS1_11prefer_onlyINSA_10possibly_tILi0EEEEENSD_INS2_16outstanding_work9tracked_tILi0EEEEENSD_INSH_11untracked_tILi0EEEEENSD_INS2_12relationship6fork_tILi0EEEEENSD_INSO_14continuation_tILi0EEEEEEEEvSN_EET_PKvSY_, symObjAddr: 0x1221C, symBinAddr: 0x100015214, symSize: 0x38 }
  - { offsetInCU: 0x62F63, offset: 0x62F63, size: 0x8, addend: 0x0, symName: __ZN5boost4asio9execution6detail17any_executor_base9prefer_fnINS1_12any_executorIJNS1_12context_as_tIRNS0_17execution_contextEEENS2_8blocking7never_tILi0EEENS1_11prefer_onlyINSA_10possibly_tILi0EEEEENSD_INS2_16outstanding_work9tracked_tILi0EEEEENSD_INSH_11untracked_tILi0EEEEENSD_INS2_12relationship6fork_tILi0EEEEENSD_INSO_14continuation_tILi0EEEEEEEEvSN_EET_PKvSY_, symObjAddr: 0x12254, symBinAddr: 0x10001524C, symSize: 0x38 }
  - { offsetInCU: 0x62FAD, offset: 0x62FAD, size: 0x8, addend: 0x0, symName: __ZN5boost4asio9execution6detail17any_executor_base8query_fnIvNS1_11prefer_onlyINS2_12relationship6fork_tILi0EEEEEEEvPvPKvSC_, symObjAddr: 0x1228C, symBinAddr: 0x100015284, symSize: 0x38 }
  - { offsetInCU: 0x62FFD, offset: 0x62FFD, size: 0x8, addend: 0x0, symName: __ZN5boost4asio9execution6detail17any_executor_base10require_fnINS1_12any_executorIJNS1_12context_as_tIRNS0_17execution_contextEEENS2_8blocking7never_tILi0EEENS1_11prefer_onlyINSA_10possibly_tILi0EEEEENSD_INS2_16outstanding_work9tracked_tILi0EEEEENSD_INSH_11untracked_tILi0EEEEENSD_INS2_12relationship6fork_tILi0EEEEENSD_INSO_14continuation_tILi0EEEEEEEEvSR_EET_PKvSY_, symObjAddr: 0x122C4, symBinAddr: 0x1000152BC, symSize: 0x38 }
  - { offsetInCU: 0x63047, offset: 0x63047, size: 0x8, addend: 0x0, symName: __ZN5boost4asio9execution6detail17any_executor_base9prefer_fnINS1_12any_executorIJNS1_12context_as_tIRNS0_17execution_contextEEENS2_8blocking7never_tILi0EEENS1_11prefer_onlyINSA_10possibly_tILi0EEEEENSD_INS2_16outstanding_work9tracked_tILi0EEEEENSD_INSH_11untracked_tILi0EEEEENSD_INS2_12relationship6fork_tILi0EEEEENSD_INSO_14continuation_tILi0EEEEEEEEvSR_EET_PKvSY_, symObjAddr: 0x122FC, symBinAddr: 0x1000152F4, symSize: 0x38 }
  - { offsetInCU: 0x63091, offset: 0x63091, size: 0x8, addend: 0x0, symName: __ZN5boost4asio9execution6detail17any_executor_base8query_fnIvNS1_11prefer_onlyINS2_12relationship14continuation_tILi0EEEEEEEvPvPKvSC_, symObjAddr: 0x12334, symBinAddr: 0x10001532C, symSize: 0x38 }
  - { offsetInCU: 0x630E1, offset: 0x630E1, size: 0x8, addend: 0x0, symName: __ZN5boost4asio9execution6detail17any_executor_base10require_fnINS1_12any_executorIJNS1_12context_as_tIRNS0_17execution_contextEEENS2_8blocking7never_tILi0EEENS1_11prefer_onlyINSA_10possibly_tILi0EEEEENSD_INS2_16outstanding_work9tracked_tILi0EEEEENSD_INSH_11untracked_tILi0EEEEENSD_INS2_12relationship6fork_tILi0EEEEENSD_INSO_14continuation_tILi0EEEEEEEEvSU_EET_PKvSY_, symObjAddr: 0x1236C, symBinAddr: 0x100015364, symSize: 0x38 }
  - { offsetInCU: 0x6312B, offset: 0x6312B, size: 0x8, addend: 0x0, symName: __ZN5boost4asio9execution6detail17any_executor_base9prefer_fnINS1_12any_executorIJNS1_12context_as_tIRNS0_17execution_contextEEENS2_8blocking7never_tILi0EEENS1_11prefer_onlyINSA_10possibly_tILi0EEEEENSD_INS2_16outstanding_work9tracked_tILi0EEEEENSD_INSH_11untracked_tILi0EEEEENSD_INS2_12relationship6fork_tILi0EEEEENSD_INSO_14continuation_tILi0EEEEEEEEvSU_EET_PKvSY_, symObjAddr: 0x123A4, symBinAddr: 0x10001539C, symSize: 0x38 }
  - { offsetInCU: 0x63175, offset: 0x63175, size: 0x8, addend: 0x0, symName: __ZN5boost4asio9execution6detail17any_executor_base13query_fn_implIvNS1_12context_as_tIRNS0_17execution_contextEEEEEvPvPKvSB_PNSt3__19enable_ifIXsr7is_sameIT_vEE5valueEvE4typeE, symObjAddr: 0x123DC, symBinAddr: 0x1000153D4, symSize: 0x38 }
  - { offsetInCU: 0x631D0, offset: 0x631D0, size: 0x8, addend: 0x0, symName: __ZN5boost4asio9execution6detail17any_executor_base13query_fn_voidEPvPKvS6_, symObjAddr: 0x12414, symBinAddr: 0x10001540C, symSize: 0x54 }
  - { offsetInCU: 0x63215, offset: 0x63215, size: 0x8, addend: 0x0, symName: __ZN5boost4asio9execution12bad_executorC1Ev, symObjAddr: 0x12468, symBinAddr: 0x100015460, symSize: 0x2C }
  - { offsetInCU: 0x63241, offset: 0x63241, size: 0x8, addend: 0x0, symName: __ZN5boost4asio9execution12bad_executorD1Ev, symObjAddr: 0x12500, symBinAddr: 0x1000154F8, symSize: 0x2C }
  - { offsetInCU: 0x6326E, offset: 0x6326E, size: 0x8, addend: 0x0, symName: __ZN5boost4asio9execution12bad_executorC2Ev, symObjAddr: 0x1252C, symBinAddr: 0x100015524, symSize: 0x44 }
  - { offsetInCU: 0x6329A, offset: 0x6329A, size: 0x8, addend: 0x0, symName: __ZN5boost4asio9execution12bad_executorD0Ev, symObjAddr: 0x12570, symBinAddr: 0x100015568, symSize: 0x30 }
  - { offsetInCU: 0x632C7, offset: 0x632C7, size: 0x8, addend: 0x0, symName: __ZNK5boost4asio9execution12bad_executor4whatEv, symObjAddr: 0x125A0, symBinAddr: 0x100015598, symSize: 0x18 }
  - { offsetInCU: 0x632EF, offset: 0x632EF, size: 0x8, addend: 0x0, symName: __ZN5boost10wrapexceptINS_4asio9execution12bad_executorEEC1ERKS3_, symObjAddr: 0x125B8, symBinAddr: 0x1000155B0, symSize: 0x34 }
  - { offsetInCU: 0x63327, offset: 0x63327, size: 0x8, addend: 0x0, symName: __ZN5boost10wrapexceptINS_4asio9execution12bad_executorEED1Ev, symObjAddr: 0x125EC, symBinAddr: 0x1000155E4, symSize: 0x2C }
  - { offsetInCU: 0x63353, offset: 0x63353, size: 0x8, addend: 0x0, symName: __ZN5boost10wrapexceptINS_4asio9execution12bad_executorEEC2ERKS3_, symObjAddr: 0x12618, symBinAddr: 0x100015610, symSize: 0xE4 }
  - { offsetInCU: 0x6338B, offset: 0x6338B, size: 0x8, addend: 0x0, symName: __ZN5boost4asio9execution12bad_executorC2ERKS2_, symObjAddr: 0x126FC, symBinAddr: 0x1000156F4, symSize: 0x4C }
  - { offsetInCU: 0x633C1, offset: 0x633C1, size: 0x8, addend: 0x0, symName: __ZN5boost10wrapexceptINS_4asio9execution12bad_executorEE9copy_fromEPKv, symObjAddr: 0x12748, symBinAddr: 0x100015740, symSize: 0x14 }
  - { offsetInCU: 0x633F1, offset: 0x633F1, size: 0x8, addend: 0x0, symName: __ZN5boost4asio9execution12bad_executorD2Ev, symObjAddr: 0x1275C, symBinAddr: 0x100015754, symSize: 0x2C }
  - { offsetInCU: 0x6341E, offset: 0x6341E, size: 0x8, addend: 0x0, symName: __ZNK5boost10wrapexceptINS_4asio9execution12bad_executorEE5cloneEv, symObjAddr: 0x12788, symBinAddr: 0x100015780, symSize: 0xE4 }
  - { offsetInCU: 0x63460, offset: 0x63460, size: 0x8, addend: 0x0, symName: __ZNK5boost10wrapexceptINS_4asio9execution12bad_executorEE7rethrowEv, symObjAddr: 0x1286C, symBinAddr: 0x100015864, symSize: 0x6C }
  - { offsetInCU: 0x63486, offset: 0x63486, size: 0x8, addend: 0x0, symName: __ZN5boost10wrapexceptINS_4asio9execution12bad_executorEED0Ev, symObjAddr: 0x128D8, symBinAddr: 0x1000158D0, symSize: 0x30 }
  - { offsetInCU: 0x634B2, offset: 0x634B2, size: 0x8, addend: 0x0, symName: __ZThn8_N5boost10wrapexceptINS_4asio9execution12bad_executorEED1Ev, symObjAddr: 0x12908, symBinAddr: 0x100015900, symSize: 0x1C }
  - { offsetInCU: 0x634C8, offset: 0x634C8, size: 0x8, addend: 0x0, symName: __ZThn8_N5boost10wrapexceptINS_4asio9execution12bad_executorEED0Ev, symObjAddr: 0x12924, symBinAddr: 0x10001591C, symSize: 0x18 }
  - { offsetInCU: 0x634DE, offset: 0x634DE, size: 0x8, addend: 0x0, symName: __ZThn16_N5boost10wrapexceptINS_4asio9execution12bad_executorEED1Ev, symObjAddr: 0x1293C, symBinAddr: 0x100015934, symSize: 0x1C }
  - { offsetInCU: 0x634F4, offset: 0x634F4, size: 0x8, addend: 0x0, symName: __ZThn16_N5boost10wrapexceptINS_4asio9execution12bad_executorEED0Ev, symObjAddr: 0x12958, symBinAddr: 0x100015950, symSize: 0x18 }
  - { offsetInCU: 0x63510, offset: 0x63510, size: 0x8, addend: 0x0, symName: __ZN5boost10wrapexceptINS_4asio9execution12bad_executorEEC1ERKS4_, symObjAddr: 0x12970, symBinAddr: 0x100015968, symSize: 0x34 }
  - { offsetInCU: 0x63551, offset: 0x63551, size: 0x8, addend: 0x0, symName: __ZN5boost10wrapexceptINS_4asio9execution12bad_executorEE7deleterD1Ev, symObjAddr: 0x129A4, symBinAddr: 0x10001599C, symSize: 0x2C }
  - { offsetInCU: 0x6357B, offset: 0x6357B, size: 0x8, addend: 0x0, symName: __ZN5boost10wrapexceptINS_4asio9execution12bad_executorEEC2ERKS4_, symObjAddr: 0x129D0, symBinAddr: 0x1000159C8, symSize: 0xC4 }
  - { offsetInCU: 0x635B0, offset: 0x635B0, size: 0x8, addend: 0x0, symName: __ZN5boost10wrapexceptINS_4asio9execution12bad_executorEE7deleterD2Ev, symObjAddr: 0x12A94, symBinAddr: 0x100015A8C, symSize: 0x58 }
  - { offsetInCU: 0x635DA, offset: 0x635DA, size: 0x8, addend: 0x0, symName: __ZN5boost10wrapexceptINS_4asio9execution12bad_executorEED2Ev, symObjAddr: 0x12AEC, symBinAddr: 0x100015AE4, symSize: 0x44 }
  - { offsetInCU: 0x63606, offset: 0x63606, size: 0x8, addend: 0x0, symName: __ZN5boost4asio9execution6detail17any_executor_base15require_fn_implINS1_12any_executorIJNS1_12context_as_tIRNS0_17execution_contextEEENS2_8blocking7never_tILi0EEENS1_11prefer_onlyINSA_10possibly_tILi0EEEEENSD_INS2_16outstanding_work9tracked_tILi0EEEEENSD_INSH_11untracked_tILi0EEEEENSD_INS2_12relationship6fork_tILi0EEEEENSD_INSO_14continuation_tILi0EEEEEEEEvS9_EET_PKvSY_PNSt3__19enable_ifIXsr7is_sameIT0_vEE5valueEvE4typeE, symObjAddr: 0x12B30, symBinAddr: 0x100015B28, symSize: 0x58 }
  - { offsetInCU: 0x63662, offset: 0x63662, size: 0x8, addend: 0x0, symName: __ZN5boost4asio9execution6detail17any_executor_base14prefer_fn_implINS1_12any_executorIJNS1_12context_as_tIRNS0_17execution_contextEEENS2_8blocking7never_tILi0EEENS1_11prefer_onlyINSA_10possibly_tILi0EEEEENSD_INS2_16outstanding_work9tracked_tILi0EEEEENSD_INSH_11untracked_tILi0EEEEENSD_INS2_12relationship6fork_tILi0EEEEENSD_INSO_14continuation_tILi0EEEEEEEEvS9_EET_PKvSY_PNSt3__19enable_ifIXsr7is_sameIT0_vEE5valueEvE4typeE, symObjAddr: 0x12B88, symBinAddr: 0x100015B80, symSize: 0x58 }
  - { offsetInCU: 0x636BE, offset: 0x636BE, size: 0x8, addend: 0x0, symName: __ZN5boost4asio9execution6detail17any_executor_base13query_fn_implIvNS2_8blocking7never_tILi0EEEEEvPvPKvSA_PNSt3__19enable_ifIXsr7is_sameIT_vEE5valueEvE4typeE, symObjAddr: 0x12BE0, symBinAddr: 0x100015BD8, symSize: 0x38 }
  - { offsetInCU: 0x63719, offset: 0x63719, size: 0x8, addend: 0x0, symName: __ZN5boost4asio9execution6detail17any_executor_base15require_fn_implINS1_12any_executorIJNS1_12context_as_tIRNS0_17execution_contextEEENS2_8blocking7never_tILi0EEENS1_11prefer_onlyINSA_10possibly_tILi0EEEEENSD_INS2_16outstanding_work9tracked_tILi0EEEEENSD_INSH_11untracked_tILi0EEEEENSD_INS2_12relationship6fork_tILi0EEEEENSD_INSO_14continuation_tILi0EEEEEEEEvSC_EET_PKvSY_PNSt3__19enable_ifIXsr7is_sameIT0_vEE5valueEvE4typeE, symObjAddr: 0x12C18, symBinAddr: 0x100015C10, symSize: 0x58 }
  - { offsetInCU: 0x63775, offset: 0x63775, size: 0x8, addend: 0x0, symName: __ZN5boost4asio9execution6detail17any_executor_base14prefer_fn_implINS1_12any_executorIJNS1_12context_as_tIRNS0_17execution_contextEEENS2_8blocking7never_tILi0EEENS1_11prefer_onlyINSA_10possibly_tILi0EEEEENSD_INS2_16outstanding_work9tracked_tILi0EEEEENSD_INSH_11untracked_tILi0EEEEENSD_INS2_12relationship6fork_tILi0EEEEENSD_INSO_14continuation_tILi0EEEEEEEEvSC_EET_PKvSY_PNSt3__19enable_ifIXsr7is_sameIT0_vEE5valueEvE4typeE, symObjAddr: 0x12C70, symBinAddr: 0x100015C68, symSize: 0x58 }
  - { offsetInCU: 0x637D1, offset: 0x637D1, size: 0x8, addend: 0x0, symName: __ZN5boost4asio9execution6detail17any_executor_base13query_fn_implIvNS1_11prefer_onlyINS2_8blocking10possibly_tILi0EEEEEEEvPvPKvSC_PNSt3__19enable_ifIXsr7is_sameIT_vEE5valueEvE4typeE, symObjAddr: 0x12CC8, symBinAddr: 0x100015CC0, symSize: 0x38 }
  - { offsetInCU: 0x6382C, offset: 0x6382C, size: 0x8, addend: 0x0, symName: __ZN5boost4asio9execution6detail17any_executor_base15require_fn_implINS1_12any_executorIJNS1_12context_as_tIRNS0_17execution_contextEEENS2_8blocking7never_tILi0EEENS1_11prefer_onlyINSA_10possibly_tILi0EEEEENSD_INS2_16outstanding_work9tracked_tILi0EEEEENSD_INSH_11untracked_tILi0EEEEENSD_INS2_12relationship6fork_tILi0EEEEENSD_INSO_14continuation_tILi0EEEEEEEEvSG_EET_PKvSY_PNSt3__19enable_ifIXsr7is_sameIT0_vEE5valueEvE4typeE, symObjAddr: 0x12D00, symBinAddr: 0x100015CF8, symSize: 0x58 }
  - { offsetInCU: 0x63888, offset: 0x63888, size: 0x8, addend: 0x0, symName: __ZN5boost4asio9execution6detail17any_executor_base14prefer_fn_implINS1_12any_executorIJNS1_12context_as_tIRNS0_17execution_contextEEENS2_8blocking7never_tILi0EEENS1_11prefer_onlyINSA_10possibly_tILi0EEEEENSD_INS2_16outstanding_work9tracked_tILi0EEEEENSD_INSH_11untracked_tILi0EEEEENSD_INS2_12relationship6fork_tILi0EEEEENSD_INSO_14continuation_tILi0EEEEEEEEvSG_EET_PKvSY_PNSt3__19enable_ifIXsr7is_sameIT0_vEE5valueEvE4typeE, symObjAddr: 0x12D58, symBinAddr: 0x100015D50, symSize: 0x58 }
  - { offsetInCU: 0x638E4, offset: 0x638E4, size: 0x8, addend: 0x0, symName: __ZN5boost4asio9execution6detail17any_executor_base13query_fn_implIvNS1_11prefer_onlyINS2_16outstanding_work9tracked_tILi0EEEEEEEvPvPKvSC_PNSt3__19enable_ifIXsr7is_sameIT_vEE5valueEvE4typeE, symObjAddr: 0x12DB0, symBinAddr: 0x100015DA8, symSize: 0x38 }
  - { offsetInCU: 0x6393F, offset: 0x6393F, size: 0x8, addend: 0x0, symName: __ZN5boost4asio9execution6detail17any_executor_base15require_fn_implINS1_12any_executorIJNS1_12context_as_tIRNS0_17execution_contextEEENS2_8blocking7never_tILi0EEENS1_11prefer_onlyINSA_10possibly_tILi0EEEEENSD_INS2_16outstanding_work9tracked_tILi0EEEEENSD_INSH_11untracked_tILi0EEEEENSD_INS2_12relationship6fork_tILi0EEEEENSD_INSO_14continuation_tILi0EEEEEEEEvSK_EET_PKvSY_PNSt3__19enable_ifIXsr7is_sameIT0_vEE5valueEvE4typeE, symObjAddr: 0x12DE8, symBinAddr: 0x100015DE0, symSize: 0x58 }
  - { offsetInCU: 0x6399B, offset: 0x6399B, size: 0x8, addend: 0x0, symName: __ZN5boost4asio9execution6detail17any_executor_base14prefer_fn_implINS1_12any_executorIJNS1_12context_as_tIRNS0_17execution_contextEEENS2_8blocking7never_tILi0EEENS1_11prefer_onlyINSA_10possibly_tILi0EEEEENSD_INS2_16outstanding_work9tracked_tILi0EEEEENSD_INSH_11untracked_tILi0EEEEENSD_INS2_12relationship6fork_tILi0EEEEENSD_INSO_14continuation_tILi0EEEEEEEEvSK_EET_PKvSY_PNSt3__19enable_ifIXsr7is_sameIT0_vEE5valueEvE4typeE, symObjAddr: 0x12E40, symBinAddr: 0x100015E38, symSize: 0x58 }
  - { offsetInCU: 0x639F7, offset: 0x639F7, size: 0x8, addend: 0x0, symName: __ZN5boost4asio9execution6detail17any_executor_base13query_fn_implIvNS1_11prefer_onlyINS2_16outstanding_work11untracked_tILi0EEEEEEEvPvPKvSC_PNSt3__19enable_ifIXsr7is_sameIT_vEE5valueEvE4typeE, symObjAddr: 0x12E98, symBinAddr: 0x100015E90, symSize: 0x38 }
  - { offsetInCU: 0x63A52, offset: 0x63A52, size: 0x8, addend: 0x0, symName: __ZN5boost4asio9execution6detail17any_executor_base15require_fn_implINS1_12any_executorIJNS1_12context_as_tIRNS0_17execution_contextEEENS2_8blocking7never_tILi0EEENS1_11prefer_onlyINSA_10possibly_tILi0EEEEENSD_INS2_16outstanding_work9tracked_tILi0EEEEENSD_INSH_11untracked_tILi0EEEEENSD_INS2_12relationship6fork_tILi0EEEEENSD_INSO_14continuation_tILi0EEEEEEEEvSN_EET_PKvSY_PNSt3__19enable_ifIXsr7is_sameIT0_vEE5valueEvE4typeE, symObjAddr: 0x12ED0, symBinAddr: 0x100015EC8, symSize: 0x58 }
  - { offsetInCU: 0x63AAE, offset: 0x63AAE, size: 0x8, addend: 0x0, symName: __ZN5boost4asio9execution6detail17any_executor_base14prefer_fn_implINS1_12any_executorIJNS1_12context_as_tIRNS0_17execution_contextEEENS2_8blocking7never_tILi0EEENS1_11prefer_onlyINSA_10possibly_tILi0EEEEENSD_INS2_16outstanding_work9tracked_tILi0EEEEENSD_INSH_11untracked_tILi0EEEEENSD_INS2_12relationship6fork_tILi0EEEEENSD_INSO_14continuation_tILi0EEEEEEEEvSN_EET_PKvSY_PNSt3__19enable_ifIXsr7is_sameIT0_vEE5valueEvE4typeE, symObjAddr: 0x12F28, symBinAddr: 0x100015F20, symSize: 0x58 }
  - { offsetInCU: 0x63B0A, offset: 0x63B0A, size: 0x8, addend: 0x0, symName: __ZN5boost4asio9execution6detail17any_executor_base13query_fn_implIvNS1_11prefer_onlyINS2_12relationship6fork_tILi0EEEEEEEvPvPKvSC_PNSt3__19enable_ifIXsr7is_sameIT_vEE5valueEvE4typeE, symObjAddr: 0x12F80, symBinAddr: 0x100015F78, symSize: 0x38 }
  - { offsetInCU: 0x63B65, offset: 0x63B65, size: 0x8, addend: 0x0, symName: __ZN5boost4asio9execution6detail17any_executor_base15require_fn_implINS1_12any_executorIJNS1_12context_as_tIRNS0_17execution_contextEEENS2_8blocking7never_tILi0EEENS1_11prefer_onlyINSA_10possibly_tILi0EEEEENSD_INS2_16outstanding_work9tracked_tILi0EEEEENSD_INSH_11untracked_tILi0EEEEENSD_INS2_12relationship6fork_tILi0EEEEENSD_INSO_14continuation_tILi0EEEEEEEEvSR_EET_PKvSY_PNSt3__19enable_ifIXsr7is_sameIT0_vEE5valueEvE4typeE, symObjAddr: 0x12FB8, symBinAddr: 0x100015FB0, symSize: 0x58 }
  - { offsetInCU: 0x63BC1, offset: 0x63BC1, size: 0x8, addend: 0x0, symName: __ZN5boost4asio9execution6detail17any_executor_base14prefer_fn_implINS1_12any_executorIJNS1_12context_as_tIRNS0_17execution_contextEEENS2_8blocking7never_tILi0EEENS1_11prefer_onlyINSA_10possibly_tILi0EEEEENSD_INS2_16outstanding_work9tracked_tILi0EEEEENSD_INSH_11untracked_tILi0EEEEENSD_INS2_12relationship6fork_tILi0EEEEENSD_INSO_14continuation_tILi0EEEEEEEEvSR_EET_PKvSY_PNSt3__19enable_ifIXsr7is_sameIT0_vEE5valueEvE4typeE, symObjAddr: 0x13010, symBinAddr: 0x100016008, symSize: 0x58 }
  - { offsetInCU: 0x63C1D, offset: 0x63C1D, size: 0x8, addend: 0x0, symName: __ZN5boost4asio9execution6detail17any_executor_base13query_fn_implIvNS1_11prefer_onlyINS2_12relationship14continuation_tILi0EEEEEEEvPvPKvSC_PNSt3__19enable_ifIXsr7is_sameIT_vEE5valueEvE4typeE, symObjAddr: 0x13068, symBinAddr: 0x100016060, symSize: 0x38 }
  - { offsetInCU: 0x63C78, offset: 0x63C78, size: 0x8, addend: 0x0, symName: __ZN5boost4asio9execution6detail17any_executor_base15require_fn_implINS1_12any_executorIJNS1_12context_as_tIRNS0_17execution_contextEEENS2_8blocking7never_tILi0EEENS1_11prefer_onlyINSA_10possibly_tILi0EEEEENSD_INS2_16outstanding_work9tracked_tILi0EEEEENSD_INSH_11untracked_tILi0EEEEENSD_INS2_12relationship6fork_tILi0EEEEENSD_INSO_14continuation_tILi0EEEEEEEEvSU_EET_PKvSY_PNSt3__19enable_ifIXsr7is_sameIT0_vEE5valueEvE4typeE, symObjAddr: 0x130A0, symBinAddr: 0x100016098, symSize: 0x58 }
  - { offsetInCU: 0x63CD4, offset: 0x63CD4, size: 0x8, addend: 0x0, symName: __ZN5boost4asio9execution6detail17any_executor_base14prefer_fn_implINS1_12any_executorIJNS1_12context_as_tIRNS0_17execution_contextEEENS2_8blocking7never_tILi0EEENS1_11prefer_onlyINSA_10possibly_tILi0EEEEENSD_INS2_16outstanding_work9tracked_tILi0EEEEENSD_INSH_11untracked_tILi0EEEEENSD_INS2_12relationship6fork_tILi0EEEEENSD_INSO_14continuation_tILi0EEEEEEEEvSU_EET_PKvSY_PNSt3__19enable_ifIXsr7is_sameIT0_vEE5valueEvE4typeE, symObjAddr: 0x130F8, symBinAddr: 0x1000160F0, symSize: 0x58 }
  - { offsetInCU: 0x63D30, offset: 0x63D30, size: 0x8, addend: 0x0, symName: __ZN5boost4asio9execution6detail17any_executor_base14prefer_fn_implINS1_12any_executorIJNS1_12context_as_tIRNS0_17execution_contextEEENS2_8blocking7never_tILi0EEENS1_11prefer_onlyINSA_10possibly_tILi0EEEEENSD_INS2_16outstanding_work9tracked_tILi0EEEEENSD_INSH_11untracked_tILi0EEEEENSD_INS2_12relationship6fork_tILi0EEEEENSD_INSO_14continuation_tILi0EEEEEEEENS0_10io_context19basic_executor_typeINSt3__19allocatorIvEELm0EEES9_EET_PKvS14_z, symObjAddr: 0x13150, symBinAddr: 0x100016148, symSize: 0x38 }
  - { offsetInCU: 0x63D77, offset: 0x63D77, size: 0x8, addend: 0x0, symName: __ZN5boost4asio9execution6detail17any_executor_base13query_fn_implINS0_10io_context19basic_executor_typeINSt3__19allocatorIvEELm0EEENS2_8blocking7never_tILi0EEEEEvPvPKvSG_PNS7_9enable_ifIXntsr7is_sameIT_vEE5valueEvE4typeE, symObjAddr: 0x13188, symBinAddr: 0x100016180, symSize: 0x3C }
  - { offsetInCU: 0x63DD6, offset: 0x63DD6, size: 0x8, addend: 0x0, symName: __ZN5boost4asio9execution6detail17any_executor_base17query_fn_non_voidINS0_10io_context19basic_executor_typeINSt3__19allocatorIvEELm0EEENS2_8blocking7never_tILi0EEEEEvPvPKvSG_PNS7_9enable_ifIXaaaaaasr5boost4asio9can_queryIRKT_RKT0_EE5valuentsr7is_sameINSL_29polymorphic_query_result_typeEvEE5valuentsr12is_referenceISO_EE5valuentsr9is_scalarISO_EE5valueEvE4typeE, symObjAddr: 0x131C4, symBinAddr: 0x1000161BC, symSize: 0x88 }
  - { offsetInCU: 0x63E3B, offset: 0x63E3B, size: 0x8, addend: 0x0, symName: __ZNK19boost_asio_query_fn4implclIRKN5boost4asio10io_context19basic_executor_typeINSt3__19allocatorIvEELm0EEERKNS3_9execution6detail8blocking7never_tILi0EEEEENS6_9enable_ifIXeqsr11call_traitsIS0_T_FvT0_EEE8overloadLNS_13overload_typeE1EENS_11call_traitsIS0_SK_SM_vvvvE11result_typeEE4typeEOSK_OSL_, symObjAddr: 0x1324C, symBinAddr: 0x100016244, symSize: 0x4C }
  - { offsetInCU: 0x63E8F, offset: 0x63E8F, size: 0x8, addend: 0x0, symName: __ZN5boost4asio9execution6detail17any_executor_base15require_fn_implINS1_12any_executorIJNS1_12context_as_tIRNS0_17execution_contextEEENS2_8blocking7never_tILi0EEENS1_11prefer_onlyINSA_10possibly_tILi0EEEEENSD_INS2_16outstanding_work9tracked_tILi0EEEEENSD_INSH_11untracked_tILi0EEEEENSD_INS2_12relationship6fork_tILi0EEEEENSD_INSO_14continuation_tILi0EEEEEEEENS0_10io_context19basic_executor_typeINSt3__19allocatorIvEELm0EEESC_EET_PKvS14_PNSY_9enable_ifIXaantsr7is_sameIT0_vEE5valuesrT1_13is_requirableEvE4typeE, symObjAddr: 0x13298, symBinAddr: 0x100016290, symSize: 0x84 }
  - { offsetInCU: 0x63EEE, offset: 0x63EEE, size: 0x8, addend: 0x0, symName: __ZNK21boost_asio_require_fn4implclIRKN5boost4asio10io_context19basic_executor_typeINSt3__19allocatorIvEELm0EEERKNS3_9execution6detail8blocking7never_tILi0EEEEENS6_9enable_ifIXeqsr11call_traitsIS0_T_FvT0_EEE8overloadLNS_13overload_typeE1EENS_11call_traitsIS0_SK_SM_vvvvvE11result_typeEE4typeEOSK_OSL_, symObjAddr: 0x1331C, symBinAddr: 0x100016314, symSize: 0x34 }
  - { offsetInCU: 0x63F44, offset: 0x63F44, size: 0x8, addend: 0x0, symName: __ZN5boost4asio9execution12any_executorIJNS1_12context_as_tIRNS0_17execution_contextEEENS1_6detail8blocking7never_tILi0EEENS1_11prefer_onlyINS8_10possibly_tILi0EEEEENSB_INS7_16outstanding_work9tracked_tILi0EEEEENSB_INSF_11untracked_tILi0EEEEENSB_INS7_12relationship6fork_tILi0EEEEENSB_INSM_14continuation_tILi0EEEEEEEC1INS0_10io_context19basic_executor_typeINSt3__19allocatorIvEELm0EEEEET_PNSX_9enable_ifIXsr11conditionalIXaantsr7is_sameIS11_ST_EE5valuentsr10is_base_ofINS7_17any_executor_baseES11_EE5valueENS7_24is_valid_target_executorIS11_FvS6_SA_SE_SI_SL_SP_SS_EEENSX_17integral_constantIbLb0EEEE4typeE5valueEvE4typeE, symObjAddr: 0x13350, symBinAddr: 0x100016348, symSize: 0x3C }
  - { offsetInCU: 0x63F92, offset: 0x63F92, size: 0x8, addend: 0x0, symName: __ZNK5boost4asio10io_context19basic_executor_typeINSt3__19allocatorIvEELm0EE7requireENS0_9execution6detail8blocking7never_tILi0EEE, symObjAddr: 0x1338C, symBinAddr: 0x100016384, symSize: 0x58 }
  - { offsetInCU: 0x63FC3, offset: 0x63FC3, size: 0x8, addend: 0x0, symName: __ZN5boost4asio10io_context19basic_executor_typeINSt3__19allocatorIvEELm0EEC1EPS1_RKS5_m, symObjAddr: 0x133E4, symBinAddr: 0x1000163DC, symSize: 0x44 }
  - { offsetInCU: 0x6401A, offset: 0x6401A, size: 0x8, addend: 0x0, symName: __ZN5boost4asio10io_context19basic_executor_typeINSt3__19allocatorIvEELm0EEC2EPS1_RKS5_m, symObjAddr: 0x13428, symBinAddr: 0x100016420, symSize: 0x30 }
  - { offsetInCU: 0x64071, offset: 0x64071, size: 0x8, addend: 0x0, symName: __ZN5boost4asio9execution6detail17any_executor_base14prefer_fn_implINS1_12any_executorIJNS1_12context_as_tIRNS0_17execution_contextEEENS2_8blocking7never_tILi0EEENS1_11prefer_onlyINSA_10possibly_tILi0EEEEENSD_INS2_16outstanding_work9tracked_tILi0EEEEENSD_INSH_11untracked_tILi0EEEEENSD_INS2_12relationship6fork_tILi0EEEEENSD_INSO_14continuation_tILi0EEEEEEEENS0_10io_context19basic_executor_typeINSt3__19allocatorIvEELm0EEESC_EET_PKvS14_PNSY_9enable_ifIXaantsr7is_sameIT0_vEE5valuesrT1_13is_preferableEvE4typeE, symObjAddr: 0x13458, symBinAddr: 0x100016450, symSize: 0x84 }
  - { offsetInCU: 0x640D0, offset: 0x640D0, size: 0x8, addend: 0x0, symName: __ZNK20boost_asio_prefer_fn4implclIRKN5boost4asio10io_context19basic_executor_typeINSt3__19allocatorIvEELm0EEERKNS3_9execution6detail8blocking7never_tILi0EEEEENS6_9enable_ifIXeqsr11call_traitsIS0_T_FvT0_EEE8overloadLNS_13overload_typeE1EENS_11call_traitsIS0_SK_SM_vvvvvvvE11result_typeEE4typeEOSK_OSL_, symObjAddr: 0x134DC, symBinAddr: 0x1000164D4, symSize: 0x34 }
  - { offsetInCU: 0x64126, offset: 0x64126, size: 0x8, addend: 0x0, symName: __ZN5boost4asio9execution6detail17any_executor_base13query_fn_implINS0_10io_context19basic_executor_typeINSt3__19allocatorIvEELm0EEENS1_11prefer_onlyINS2_8blocking10possibly_tILi0EEEEEEEvPvPKvSI_PNS7_9enable_ifIXntsr7is_sameIT_vEE5valueEvE4typeE, symObjAddr: 0x13510, symBinAddr: 0x100016508, symSize: 0x3C }
  - { offsetInCU: 0x64185, offset: 0x64185, size: 0x8, addend: 0x0, symName: __ZN5boost4asio9execution6detail17any_executor_base17query_fn_non_voidINS0_10io_context19basic_executor_typeINSt3__19allocatorIvEELm0EEENS1_11prefer_onlyINS2_8blocking10possibly_tILi0EEEEEEEvPvPKvSI_PNS7_9enable_ifIXaaaaaasr5boost4asio9can_queryIRKT_RKT0_EE5valuentsr7is_sameINSN_29polymorphic_query_result_typeEvEE5valuentsr12is_referenceISQ_EE5valuentsr9is_scalarISQ_EE5valueEvE4typeE, symObjAddr: 0x1354C, symBinAddr: 0x100016544, symSize: 0x88 }
  - { offsetInCU: 0x641EA, offset: 0x641EA, size: 0x8, addend: 0x0, symName: __ZNK19boost_asio_query_fn4implclIRKN5boost4asio10io_context19basic_executor_typeINSt3__19allocatorIvEELm0EEERKNS3_9execution11prefer_onlyINSC_6detail8blocking10possibly_tILi0EEEEEEENS6_9enable_ifIXeqsr11call_traitsIS0_T_FvT0_EEE8overloadLNS_13overload_typeE2EENS_11call_traitsIS0_SM_SO_vvvvE11result_typeEE4typeEOSM_OSN_, symObjAddr: 0x135D4, symBinAddr: 0x1000165CC, symSize: 0x40 }
